 CourseworkBase2020

 Timestamp is 66324987 (Wed May  1 14:54:15 2024)

 Preferred load address is 00400000

 Start         Length     Name                   Class
 0001:00000000 00004fc0H .text$di                CODE
 0001:00004fc0 000399f0H .text$mn                CODE
 0001:0003e9b0 00003370H .text$x                 CODE
 0001:00041d20 00001012H .text$yd                CODE
 0002:00000000 00000104H .CRT$XCA                DATA
 0002:00000104 00000104H .CRT$XCAA               DATA
 0002:00000208 00000104H .CRT$XCU                DATA
 0002:0000030c 00000104H .CRT$XCZ                DATA
 0002:00000410 00000104H .CRT$XIA                DATA
 0002:00000514 00000104H .CRT$XIAA               DATA
 0002:00000618 00000104H .CRT$XIAC               DATA
 0002:0000071c 00000104H .CRT$XIZ                DATA
 0002:00000820 00000104H .CRT$XPA                DATA
 0002:00000924 00000104H .CRT$XPZ                DATA
 0002:00000a28 00000104H .CRT$XTA                DATA
 0002:00000b2c 00000114H .CRT$XTZ                DATA
 0002:00000c40 0000a280H .rdata                  DATA
 0002:0000aec0 00000180H .rdata$CastGuardVftablesA DATA
 0002:0000b040 0000014cH .rdata$CastGuardVftablesC DATA
 0002:0000b18c 000012c0H .rdata$r                DATA
 0002:0000c44c 00000354H .rdata$sxdata           DATA
 0002:0000c7a0 000001a8H .rdata$zzzdbg           DATA
 0002:0000c948 00000104H .rtc$IAA                DATA
 0002:0000ca4c 00000104H .rtc$IZZ                DATA
 0002:0000cb50 00000104H .rtc$TAA                DATA
 0002:0000cc54 00000104H .rtc$TZZ                DATA
 0002:0000cd58 00002056H .xdata$x                DATA
 0002:0000edae 00000000H .edata                  DATA
 0003:00000000 000001c0H .data                   DATA
 0003:000001c0 00000210H .data$r                 DATA
 0003:000003d0 00000720H .data$rs                DATA
 0003:00000af0 000004f4H .bss                    DATA
 0004:00000000 0000038cH .idata$5                DATA
 0004:0000038c 0000008cH .idata$2                DATA
 0004:00000418 00000014H .idata$3                DATA
 0004:0000042c 0000038cH .idata$4                DATA
 0004:000007b8 00000ea3H .idata$6                DATA
 0005:00000000 0000010eH .00cfg                  DATA
 0006:00000000 00000170H .rsrc$01                DATA
 0006:00000170 000002ccH .rsrc$02                DATA

  Address         Publics by Value              Rva+Base       Lib:Object

 0000:00000000       ___AbsoluteZero            00000000     <absolute>
 0000:00000000       ___arm64x_extra_rfe_table  00000000     <absolute>
 0000:00000000       ___arm64x_extra_rfe_table_size 00000000     <absolute>
 0000:00000000       ___arm64x_native_entrypoint 00000000     <absolute>
 0000:00000000       ___arm64x_redirection_metadata 00000000     <absolute>
 0000:00000000       ___arm64x_redirection_metadata_count 00000000     <absolute>
 0000:00000000       ___dynamic_value_reloc_table 00000000     <absolute>
 0000:00000000       ___enclave_config          00000000     <absolute>
 0000:00000000       ___guard_check_icall_a64n_fptr 00000000     <absolute>
 0000:00000000       ___guard_eh_cont_count     00000000     <absolute>
 0000:00000000       ___guard_eh_cont_table     00000000     <absolute>
 0000:00000000       ___guard_fids_count        00000000     <absolute>
 0000:00000000       ___guard_fids_table        00000000     <absolute>
 0000:00000000       ___guard_iat_count         00000000     <absolute>
 0000:00000000       ___guard_iat_table         00000000     <absolute>
 0000:00000000       ___guard_longjmp_count     00000000     <absolute>
 0000:00000000       ___guard_longjmp_table     00000000     <absolute>
 0000:00000000       ___hybrid_auxiliary_delayload_iat 00000000     <absolute>
 0000:00000000       ___hybrid_auxiliary_delayload_iat_copy 00000000     <absolute>
 0000:00000000       ___hybrid_auxiliary_iat    00000000     <absolute>
 0000:00000000       ___hybrid_auxiliary_iat_copy 00000000     <absolute>
 0000:00000000       ___hybrid_code_map         00000000     <absolute>
 0000:00000000       ___hybrid_code_map_count   00000000     <absolute>
 0000:00000000       ___hybrid_image_info_bitfield 00000000     <absolute>
 0000:00000000       ___volatile_metadata       00000000     <absolute>
 0000:00000000       ___x64_code_ranges_to_entry_points 00000000     <absolute>
 0000:00000000       ___x64_code_ranges_to_entry_points_count 00000000     <absolute>
 0000:0000007c       ___safe_se_handler_count   0000007c     <absolute>
 0000:00000100       ___guard_flags             00000100     <absolute>
 0000:00000000       ___ImageBase               00400000     <linker-defined>
 0001:00004fc0       ??0CrimsonWasteland2@@QAE@XZ 00405fc0 f   CrimsonWasteland2.obj
 0001:000052c0       ??1CrimsonWasteland2@@UAE@XZ 004062c0 f   CrimsonWasteland2.obj
 0001:00005310       ?virtInitialise@CrimsonWasteland2@@UAEHXZ 00406310 f   CrimsonWasteland2.obj
 0001:00005340       ?virtSetupBackgroundBuffer@CrimsonWasteland2@@UAEXXZ 00406340 f   CrimsonWasteland2.obj
 0001:00006590       ?virtMainLoopDoBeforeUpdate@CrimsonWasteland2@@UAEXXZ 00407590 f   CrimsonWasteland2.obj
 0001:000066d0       ?copyAllBackgroundBuffer@CrimsonWasteland2@@UAEXXZ 004076d0 f   CrimsonWasteland2.obj
 0001:00006770       ?virtInitialiseObjects@CrimsonWasteland2@@UAEHXZ 00407770 f   CrimsonWasteland2.obj
 0001:00006870       ?virtDrawStringsOnTop@CrimsonWasteland2@@UAEXXZ 00407870 f   CrimsonWasteland2.obj
 0001:00007150       ?virtDrawStringsUnderneath@CrimsonWasteland2@@UAEXXZ 00408150 f   CrimsonWasteland2.obj
 0001:00007540       ?virtMouseDown@CrimsonWasteland2@@UAEXHHH@Z 00408540 f   CrimsonWasteland2.obj
 0001:00007940       ?virtMouseWheel@CrimsonWasteland2@@UAEXHHHH@Z 00408940 f   CrimsonWasteland2.obj
 0001:00007a40       ?virtKeyDown@CrimsonWasteland2@@UAEXH@Z 00408a40 f   CrimsonWasteland2.obj
 0001:00007f50       ?getTextWidth@@YAHABV?$basic_string@DU?$char_traits@D@std@@V?$allocator@D@2@@std@@@Z 00408f50 f   CrimsonWasteland2.obj
 0001:00008b50       ??$?0$$V@?$_Compressed_pair@V?$allocator@D@std@@V?$_String_val@U?$_Simple_types@D@std@@@2@$00@std@@QAE@U_Zero_then_variadic_args_t@1@@Z 00409b50 f i CrimsonWasteland2.obj
 0001:00008b80       ??$?0$$V@?$_Compressed_pair@V?$allocator@U?$_Tree_node@U?$pair@$$CBV?$basic_string@DU?$char_traits@D@std@@V?$allocator@D@2@@std@@V?$shared_ptr@VRawImageData@@@2@@std@@PAX@std@@@std@@V?$_Tree_val@U?$_Tree_simple_types@U?$pair@$$CBV?$basic_string@DU?$char_traits@D@std@@V?$allocator@D@2@@std@@V?$shared_ptr@VRawImageData@@@2@@std@@@std@@@2@$00@std@@QAE@U_Zero_then_variadic_args_t@1@@Z 00409b80 f i CrimsonWasteland2.obj
 0001:00008bb0       ??$?0$$V@?$_Compressed_pair@V?$allocator@U?$_Tree_node@U?$pair@$$CBV?$basic_string@DU?$char_traits@D@std@@V?$allocator@D@2@@std@@V?$weak_ptr@VRawImageData@@@2@@std@@PAX@std@@@std@@V?$_Tree_val@U?$_Tree_simple_types@U?$pair@$$CBV?$basic_string@DU?$char_traits@D@std@@V?$allocator@D@2@@std@@V?$weak_ptr@VRawImageData@@@2@@std@@@std@@@2@$00@std@@QAE@U_Zero_then_variadic_args_t@1@@Z 00409bb0 f i CrimsonWasteland2.obj
 0001:00008be0       ??$?0AAPAU?$_Tree_node@U?$pair@$$CBV?$basic_string@DU?$char_traits@D@std@@V?$allocator@D@2@@std@@V?$shared_ptr@VRawImageData@@@2@@std@@PAX@std@@_N$0A@@?$pair@PAU?$_Tree_node@U?$pair@$$CBV?$basic_string@DU?$char_traits@D@std@@V?$allocator@D@2@@std@@V?$shared_ptr@VRawImageData@@@2@@std@@PAX@std@@_N@std@@QAE@AAPAU?$_Tree_node@U?$pair@$$CBV?$basic_string@DU?$char_traits@D@std@@V?$allocator@D@2@@std@@V?$shared_ptr@VRawImageData@@@2@@std@@PAX@1@$$QA_N@Z 00409be0 f i CrimsonWasteland2.obj
 0001:00008c30       ??$?0AAPAU?$_Tree_node@U?$pair@$$CBV?$basic_string@DU?$char_traits@D@std@@V?$allocator@D@2@@std@@V?$weak_ptr@VRawImageData@@@2@@std@@PAX@std@@_N$0A@@?$pair@PAU?$_Tree_node@U?$pair@$$CBV?$basic_string@DU?$char_traits@D@std@@V?$allocator@D@2@@std@@V?$weak_ptr@VRawImageData@@@2@@std@@PAX@std@@_N@std@@QAE@AAPAU?$_Tree_node@U?$pair@$$CBV?$basic_string@DU?$char_traits@D@std@@V?$allocator@D@2@@std@@V?$weak_ptr@VRawImageData@@@2@@std@@PAX@1@$$QA_N@Z 00409c30 f i CrimsonWasteland2.obj
 0001:00008c80       ??$?0AAV?$basic_string@DU?$char_traits@D@std@@V?$allocator@D@2@@std@@AAV?$shared_ptr@VRawImageData@@@1@$0A@@?$pair@V?$basic_string@DU?$char_traits@D@std@@V?$allocator@D@2@@std@@V?$shared_ptr@VRawImageData@@@2@@std@@QAE@AAV?$basic_string@DU?$char_traits@D@std@@V?$allocator@D@2@@1@AAV?$shared_ptr@VRawImageData@@@1@@Z 00409c80 f i CrimsonWasteland2.obj
 0001:00008cd0       ??$?0AAV?$basic_string@DU?$char_traits@D@std@@V?$allocator@D@2@@std@@AAV?$weak_ptr@VRawImageData@@@1@$0A@@?$pair@V?$basic_string@DU?$char_traits@D@std@@V?$allocator@D@2@@std@@V?$weak_ptr@VRawImageData@@@2@@std@@QAE@AAV?$basic_string@DU?$char_traits@D@std@@V?$allocator@D@2@@1@AAV?$weak_ptr@VRawImageData@@@1@@Z 00409cd0 f i CrimsonWasteland2.obj
 0001:00008d20       ??$?0ABU?$less@V?$basic_string@DU?$char_traits@D@std@@V?$allocator@D@2@@std@@@std@@U_Zero_then_variadic_args_t@1@@?$_Compressed_pair@U?$less@V?$basic_string@DU?$char_traits@D@std@@V?$allocator@D@2@@std@@@std@@V?$_Compressed_pair@V?$allocator@U?$_Tree_node@U?$pair@$$CBV?$basic_string@DU?$char_traits@D@std@@V?$allocator@D@2@@std@@V?$shared_ptr@VRawImageData@@@2@@std@@PAX@std@@@std@@V?$_Tree_val@U?$_Tree_simple_types@U?$pair@$$CBV?$basic_string@DU?$char_traits@D@std@@V?$allocator@D@2@@std@@V?$shared_ptr@VRawImageData@@@2@@std@@@std@@@2@$00@2@$00@std@@QAE@U_One_then_variadic_args_t@1@ABU?$less@V?$basic_string@DU?$char_traits@D@std@@V?$allocator@D@2@@std@@@1@$$QAU_Zero_then_variadic_args_t@1@@Z 00409d20 f i CrimsonWasteland2.obj
 0001:00008d70       ??$?0ABU?$less@V?$basic_string@DU?$char_traits@D@std@@V?$allocator@D@2@@std@@@std@@U_Zero_then_variadic_args_t@1@@?$_Compressed_pair@U?$less@V?$basic_string@DU?$char_traits@D@std@@V?$allocator@D@2@@std@@@std@@V?$_Compressed_pair@V?$allocator@U?$_Tree_node@U?$pair@$$CBV?$basic_string@DU?$char_traits@D@std@@V?$allocator@D@2@@std@@V?$weak_ptr@VRawImageData@@@2@@std@@PAX@std@@@std@@V?$_Tree_val@U?$_Tree_simple_types@U?$pair@$$CBV?$basic_string@DU?$char_traits@D@std@@V?$allocator@D@2@@std@@V?$weak_ptr@VRawImageData@@@2@@std@@@std@@@2@$00@2@$00@std@@QAE@U_One_then_variadic_args_t@1@ABU?$less@V?$basic_string@DU?$char_traits@D@std@@V?$allocator@D@2@@std@@@1@$$QAU_Zero_then_variadic_args_t@1@@Z 00409d70 f i CrimsonWasteland2.obj
 0001:00008dc0       ??$?0ABV?$allocator@V?$basic_string@DU?$char_traits@D@std@@V?$allocator@D@2@@std@@@std@@$$V@?$_Compressed_pair@V?$allocator@V?$basic_string@DU?$char_traits@D@std@@V?$allocator@D@2@@std@@@std@@V?$_Vector_val@U?$_Simple_types@V?$basic_string@DU?$char_traits@D@std@@V?$allocator@D@2@@std@@@std@@@2@$00@std@@QAE@U_One_then_variadic_args_t@1@ABV?$allocator@V?$basic_string@DU?$char_traits@D@std@@V?$allocator@D@2@@std@@@1@@Z 00409dc0 f i CrimsonWasteland2.obj
 0001:00008df0       ??$?0D@?$allocator@U_Container_proxy@std@@@std@@QAE@ABV?$allocator@D@1@@Z 00409df0 f i CrimsonWasteland2.obj
 0001:00008e10       ??$?0PAU?$_Tree_node@U?$pair@$$CBV?$basic_string@DU?$char_traits@D@std@@V?$allocator@D@2@@std@@V?$shared_ptr@VRawImageData@@@2@@std@@PAX@std@@_N$0A@@?$pair@PAU?$_Tree_node@U?$pair@$$CBV?$basic_string@DU?$char_traits@D@std@@V?$allocator@D@2@@std@@V?$shared_ptr@VRawImageData@@@2@@std@@PAX@std@@_N@std@@QAE@$$QAPAU?$_Tree_node@U?$pair@$$CBV?$basic_string@DU?$char_traits@D@std@@V?$allocator@D@2@@std@@V?$shared_ptr@VRawImageData@@@2@@std@@PAX@1@$$QA_N@Z 00409e10 f i CrimsonWasteland2.obj
 0001:00008e60       ??$?0PAU?$_Tree_node@U?$pair@$$CBV?$basic_string@DU?$char_traits@D@std@@V?$allocator@D@2@@std@@V?$weak_ptr@VRawImageData@@@2@@std@@PAX@std@@_N$0A@@?$pair@PAU?$_Tree_node@U?$pair@$$CBV?$basic_string@DU?$char_traits@D@std@@V?$allocator@D@2@@std@@V?$weak_ptr@VRawImageData@@@2@@std@@PAX@std@@_N@std@@QAE@$$QAPAU?$_Tree_node@U?$pair@$$CBV?$basic_string@DU?$char_traits@D@std@@V?$allocator@D@2@@std@@V?$weak_ptr@VRawImageData@@@2@@std@@PAX@1@$$QA_N@Z 00409e60 f i CrimsonWasteland2.obj
 0001:00008eb0       ??$?0U?$_Tree_node@U?$pair@$$CBV?$basic_string@DU?$char_traits@D@std@@V?$allocator@D@2@@std@@V?$shared_ptr@VRawImageData@@@2@@std@@PAX@std@@@?$allocator@U_Container_proxy@std@@@std@@QAE@ABV?$allocator@U?$_Tree_node@U?$pair@$$CBV?$basic_string@DU?$char_traits@D@std@@V?$allocator@D@2@@std@@V?$shared_ptr@VRawImageData@@@2@@std@@PAX@std@@@1@@Z 00409eb0 f i CrimsonWasteland2.obj
 0001:00008ed0       ??$?0U?$_Tree_node@U?$pair@$$CBV?$basic_string@DU?$char_traits@D@std@@V?$allocator@D@2@@std@@V?$weak_ptr@VRawImageData@@@2@@std@@PAX@std@@@?$allocator@U_Container_proxy@std@@@std@@QAE@ABV?$allocator@U?$_Tree_node@U?$pair@$$CBV?$basic_string@DU?$char_traits@D@std@@V?$allocator@D@2@@std@@V?$weak_ptr@VRawImageData@@@2@@std@@PAX@std@@@1@@Z 00409ed0 f i CrimsonWasteland2.obj
 0001:00008ef0       ??$?0U?$pair@V?$basic_string@DU?$char_traits@D@std@@V?$allocator@D@2@@std@@V?$shared_ptr@VRawImageData@@@2@@std@@@?$_Tree_temp_node@V?$allocator@U?$_Tree_node@U?$pair@$$CBV?$basic_string@DU?$char_traits@D@std@@V?$allocator@D@2@@std@@V?$shared_ptr@VRawImageData@@@2@@std@@PAX@std@@@std@@@std@@QAE@AAV?$allocator@U?$_Tree_node@U?$pair@$$CBV?$basic_string@DU?$char_traits@D@std@@V?$allocator@D@2@@std@@V?$shared_ptr@VRawImageData@@@2@@std@@PAX@std@@@1@PAU?$_Tree_node@U?$pair@$$CBV?$basic_string@DU?$char_traits@D@std@@V?$allocator@D@2@@std@@V?$shared_ptr@VRawImageData@@@2@@std@@PAX@1@$$QAU?$pair@V?$basic_string@DU?$char_traits@D@std@@V?$allocator@D@2@@std@@V?$shared_ptr@VRawImageData@@@2@@1@@Z 00409ef0 f i CrimsonWasteland2.obj
 0001:00009000       ??$?0U?$pair@V?$basic_string@DU?$char_traits@D@std@@V?$allocator@D@2@@std@@V?$weak_ptr@VRawImageData@@@2@@std@@@?$_Tree_temp_node@V?$allocator@U?$_Tree_node@U?$pair@$$CBV?$basic_string@DU?$char_traits@D@std@@V?$allocator@D@2@@std@@V?$weak_ptr@VRawImageData@@@2@@std@@PAX@std@@@std@@@std@@QAE@AAV?$allocator@U?$_Tree_node@U?$pair@$$CBV?$basic_string@DU?$char_traits@D@std@@V?$allocator@D@2@@std@@V?$weak_ptr@VRawImageData@@@2@@std@@PAX@std@@@1@PAU?$_Tree_node@U?$pair@$$CBV?$basic_string@DU?$char_traits@D@std@@V?$allocator@D@2@@std@@V?$weak_ptr@VRawImageData@@@2@@std@@PAX@1@$$QAU?$pair@V?$basic_string@DU?$char_traits@D@std@@V?$allocator@D@2@@std@@V?$weak_ptr@VRawImageData@@@2@@1@@Z 0040a000 f i CrimsonWasteland2.obj
 0001:00009110       ??$?0V?$_Tree_iterator@V?$_Tree_val@U?$_Tree_simple_types@U?$pair@$$CBV?$basic_string@DU?$char_traits@D@std@@V?$allocator@D@2@@std@@V?$shared_ptr@VRawImageData@@@2@@std@@@std@@@std@@@std@@AB_N$0A@@?$pair@V?$_Tree_iterator@V?$_Tree_val@U?$_Tree_simple_types@U?$pair@$$CBV?$basic_string@DU?$char_traits@D@std@@V?$allocator@D@2@@std@@V?$shared_ptr@VRawImageData@@@2@@std@@@std@@@std@@@std@@_N@std@@QAE@$$QAV?$_Tree_iterator@V?$_Tree_val@U?$_Tree_simple_types@U?$pair@$$CBV?$basic_string@DU?$char_traits@D@std@@V?$allocator@D@2@@std@@V?$shared_ptr@VRawImageData@@@2@@std@@@std@@@std@@@1@AB_N@Z 0040a110 f i CrimsonWasteland2.obj
 0001:00009160       ??$?0V?$_Tree_iterator@V?$_Tree_val@U?$_Tree_simple_types@U?$pair@$$CBV?$basic_string@DU?$char_traits@D@std@@V?$allocator@D@2@@std@@V?$weak_ptr@VRawImageData@@@2@@std@@@std@@@std@@@std@@AB_N$0A@@?$pair@V?$_Tree_iterator@V?$_Tree_val@U?$_Tree_simple_types@U?$pair@$$CBV?$basic_string@DU?$char_traits@D@std@@V?$allocator@D@2@@std@@V?$weak_ptr@VRawImageData@@@2@@std@@@std@@@std@@@std@@_N@std@@QAE@$$QAV?$_Tree_iterator@V?$_Tree_val@U?$_Tree_simple_types@U?$pair@$$CBV?$basic_string@DU?$char_traits@D@std@@V?$allocator@D@2@@std@@V?$weak_ptr@VRawImageData@@@2@@std@@@std@@@std@@@1@AB_N@Z 0040a160 f i CrimsonWasteland2.obj
 0001:000091b0       ??$?0V?$allocator@D@std@@$$V@?$_Compressed_pair@V?$allocator@D@std@@V?$_String_val@U?$_Simple_types@D@std@@@2@$00@std@@QAE@U_One_then_variadic_args_t@1@$$QAV?$allocator@D@1@@Z 0040a1b0 f i CrimsonWasteland2.obj
 0001:000091e0       ??$?0V?$basic_string@DU?$char_traits@D@std@@V?$allocator@D@2@@std@@@?$allocator@U_Container_proxy@std@@@std@@QAE@ABV?$allocator@V?$basic_string@DU?$char_traits@D@std@@V?$allocator@D@2@@std@@@1@@Z 0040a1e0 f i CrimsonWasteland2.obj
 0001:00009200       ??$?0V?$basic_string@DU?$char_traits@D@std@@V?$allocator@D@2@@std@@V?$shared_ptr@VRawImageData@@@1@$0A@@?$pair@$$CBV?$basic_string@DU?$char_traits@D@std@@V?$allocator@D@2@@std@@V?$shared_ptr@VRawImageData@@@2@@std@@QAE@$$QAU?$pair@V?$basic_string@DU?$char_traits@D@std@@V?$allocator@D@2@@std@@V?$shared_ptr@VRawImageData@@@2@@1@@Z 0040a200 f i CrimsonWasteland2.obj
 0001:00009250       ??$?0V?$basic_string@DU?$char_traits@D@std@@V?$allocator@D@2@@std@@V?$weak_ptr@VRawImageData@@@1@$0A@@?$pair@$$CBV?$basic_string@DU?$char_traits@D@std@@V?$allocator@D@2@@std@@V?$weak_ptr@VRawImageData@@@2@@std@@QAE@$$QAU?$pair@V?$basic_string@DU?$char_traits@D@std@@V?$allocator@D@2@@std@@V?$weak_ptr@VRawImageData@@@2@@1@@Z 0040a250 f i CrimsonWasteland2.obj
 0001:000092a0       ??$?0VRawImageData@@$0A@@?$shared_ptr@VRawImageData@@@std@@QAE@PAVRawImageData@@@Z 0040a2a0 f i CrimsonWasteland2.obj
 0001:00009390       ??$?0VRawImageData@@$0A@@?$weak_ptr@VRawImageData@@@std@@QAE@ABV?$shared_ptr@VRawImageData@@@1@@Z 0040a390 f i CrimsonWasteland2.obj
 0001:000093c0       ??$?6DU?$char_traits@D@std@@V?$allocator@D@1@@std@@YAAAV?$basic_ostream@DU?$char_traits@D@std@@@0@AAV10@ABV?$basic_string@DU?$char_traits@D@std@@V?$allocator@D@2@@0@@Z 0040a3c0 f i CrimsonWasteland2.obj
 0001:000093f0       ??$?6U?$char_traits@D@std@@@std@@YAAAV?$basic_ostream@DU?$char_traits@D@std@@@0@AAV10@PBD@Z 0040a3f0 f i CrimsonWasteland2.obj
 0001:00009790       ??$?8DU?$char_traits@D@std@@V?$allocator@D@1@@std@@YA_NABV?$basic_string@DU?$char_traits@D@std@@V?$allocator@D@2@@0@0@Z 0040a790 f i CrimsonWasteland2.obj
 0001:000097b0       ??$?8DU?$char_traits@D@std@@V?$allocator@D@1@@std@@YA_NABV?$basic_string@DU?$char_traits@D@std@@V?$allocator@D@2@@0@QBD@Z 0040a7b0 f i CrimsonWasteland2.obj
 0001:000097d0       ??$?9VRawImageData@@@std@@YA_NABV?$shared_ptr@VRawImageData@@@0@$$T@Z 0040a7d0 f i CrimsonWasteland2.obj
 0001:00009810       ??$?CVRawImageData@@$0A@@?$shared_ptr@VRawImageData@@@std@@QBEPAVRawImageData@@XZ 0040a810 f i CrimsonWasteland2.obj
 0001:00009830       ??$?HDU?$char_traits@D@std@@V?$allocator@D@1@@std@@YA?AV?$basic_string@DU?$char_traits@D@std@@V?$allocator@D@2@@0@$$QAV10@QBD@Z 0040a830 f i CrimsonWasteland2.obj
 0001:00009880       ??$?HDU?$char_traits@D@std@@V?$allocator@D@1@@std@@YA?AV?$basic_string@DU?$char_traits@D@std@@V?$allocator@D@2@@0@QBDABV10@@Z 0040a880 f i CrimsonWasteland2.obj
 0001:00009930       ??$?MDU?$char_traits@D@std@@V?$allocator@D@1@@std@@YA_NABV?$basic_string@DU?$char_traits@D@std@@V?$allocator@D@2@@0@0@Z 0040a930 f i CrimsonWasteland2.obj
 0001:00009970       ??$_Adl_verify_range@V?$_Vector_iterator@V?$_Vector_val@U?$_Simple_types@PAVDisplayableObject@@@std@@@std@@@std@@V12@@std@@YAXABV?$_Vector_iterator@V?$_Vector_val@U?$_Simple_types@PAVDisplayableObject@@@std@@@std@@@0@0@Z 0040a970 f i CrimsonWasteland2.obj
 0001:00009990       ??$_Adl_verify_range@V?$_Vector_iterator@V?$_Vector_val@U?$_Simple_types@V?$basic_string@DU?$char_traits@D@std@@V?$allocator@D@2@@std@@@std@@@std@@@std@@V12@@std@@YAXABV?$_Vector_iterator@V?$_Vector_val@U?$_Simple_types@V?$basic_string@DU?$char_traits@D@std@@V?$allocator@D@2@@std@@@std@@@std@@@0@0@Z 0040a990 f i CrimsonWasteland2.obj
 0001:000099b0       ??$_Alloc_proxy@V?$allocator@U_Container_proxy@std@@@std@@@_Container_base12@std@@QAEX$$QAV?$allocator@U_Container_proxy@std@@@1@@Z 0040a9b0 f i CrimsonWasteland2.obj
 0001:00009a10       ??$_Allocate@$07U_Default_allocate_traits@std@@$0A@@std@@YAPAXI@Z 0040aa10 f i CrimsonWasteland2.obj
 0001:00009a50       ??$_Allocate_at_least_helper@V?$allocator@D@std@@@std@@YAPADAAV?$allocator@D@0@AAI@Z 0040aa50 f i CrimsonWasteland2.obj
 0001:00009a70       ??$_Allocate_at_least_helper@V?$allocator@PAVDisplayableObject@@@std@@@std@@YAPAPAVDisplayableObject@@AAV?$allocator@PAVDisplayableObject@@@0@AAI@Z 0040aa70 f i CrimsonWasteland2.obj
 0001:00009a90       ??$_Allocate_at_least_helper@V?$allocator@V?$basic_string@DU?$char_traits@D@std@@V?$allocator@D@2@@std@@@std@@@std@@YAPAV?$basic_string@DU?$char_traits@D@std@@V?$allocator@D@2@@0@AAV?$allocator@V?$basic_string@DU?$char_traits@D@std@@V?$allocator@D@2@@std@@@0@AAI@Z 0040aa90 f i CrimsonWasteland2.obj
 0001:00009ab0       ??$_Allocate_for_capacity@$0A@@?$basic_string@DU?$char_traits@D@std@@V?$allocator@D@2@@std@@CAPADAAV?$allocator@D@1@AAI@Z 0040aab0 f i CrimsonWasteland2.obj
 0001:00009b00       ??$_Allocate_manually_vector_aligned@U_Default_allocate_traits@std@@@std@@YAPAXI@Z 0040ab00 f i CrimsonWasteland2.obj
 0001:00009bf0       ??$_Buyheadnode@V?$allocator@U?$_Tree_node@U?$pair@$$CBV?$basic_string@DU?$char_traits@D@std@@V?$allocator@D@2@@std@@V?$shared_ptr@VRawImageData@@@2@@std@@PAX@std@@@std@@@?$_Tree_node@U?$pair@$$CBV?$basic_string@DU?$char_traits@D@std@@V?$allocator@D@2@@std@@V?$shared_ptr@VRawImageData@@@2@@std@@PAX@std@@SAPAU01@AAV?$allocator@U?$_Tree_node@U?$pair@$$CBV?$basic_string@DU?$char_traits@D@std@@V?$allocator@D@2@@std@@V?$shared_ptr@VRawImageData@@@2@@std@@PAX@std@@@1@@Z 0040abf0 f i CrimsonWasteland2.obj
 0001:00009c70       ??$_Buyheadnode@V?$allocator@U?$_Tree_node@U?$pair@$$CBV?$basic_string@DU?$char_traits@D@std@@V?$allocator@D@2@@std@@V?$weak_ptr@VRawImageData@@@2@@std@@PAX@std@@@std@@@?$_Tree_node@U?$pair@$$CBV?$basic_string@DU?$char_traits@D@std@@V?$allocator@D@2@@std@@V?$weak_ptr@VRawImageData@@@2@@std@@PAX@std@@SAPAU01@AAV?$allocator@U?$_Tree_node@U?$pair@$$CBV?$basic_string@DU?$char_traits@D@std@@V?$allocator@D@2@@std@@V?$weak_ptr@VRawImageData@@@2@@std@@PAX@std@@@1@@Z 0040ac70 f i CrimsonWasteland2.obj
 0001:00009cf0       ??$_Construct@$00PBD@?$basic_string@DU?$char_traits@D@std@@V?$allocator@D@2@@std@@AAEXQBDI@Z 0040acf0 f i CrimsonWasteland2.obj
 0001:00009ef0       ??$_Construct@$01PBD@?$basic_string@DU?$char_traits@D@std@@V?$allocator@D@2@@std@@AAEXQBDI@Z 0040aef0 f i CrimsonWasteland2.obj
 0001:0000a0a0       ??$_Construct_from_weak@VRawImageData@@@?$_Ptr_base@VRawImageData@@@std@@IAE_NABV?$weak_ptr@VRawImageData@@@1@@Z 0040b0a0 f i CrimsonWasteland2.obj
 0001:0000a100       ??$_Construct_in_place@PADAAPAD@std@@YAXAAPAD0@Z 0040b100 f i CrimsonWasteland2.obj
 0001:0000a150       ??$_Construct_in_place@PADABQAD@std@@YAXAAPADABQAD@Z 0040b150 f i CrimsonWasteland2.obj
 0001:0000a1a0       ??$_Construct_in_place@PAU?$_Tree_node@U?$pair@$$CBV?$basic_string@DU?$char_traits@D@std@@V?$allocator@D@2@@std@@V?$shared_ptr@VRawImageData@@@2@@std@@PAX@std@@AAPAU12@@std@@YAXAAPAU?$_Tree_node@U?$pair@$$CBV?$basic_string@DU?$char_traits@D@std@@V?$allocator@D@2@@std@@V?$shared_ptr@VRawImageData@@@2@@std@@PAX@0@0@Z 0040b1a0 f i CrimsonWasteland2.obj
 0001:0000a1f0       ??$_Construct_in_place@PAU?$_Tree_node@U?$pair@$$CBV?$basic_string@DU?$char_traits@D@std@@V?$allocator@D@2@@std@@V?$shared_ptr@VRawImageData@@@2@@std@@PAX@std@@ABQAU12@@std@@YAXAAPAU?$_Tree_node@U?$pair@$$CBV?$basic_string@DU?$char_traits@D@std@@V?$allocator@D@2@@std@@V?$shared_ptr@VRawImageData@@@2@@std@@PAX@0@ABQAU10@@Z 0040b1f0 f i CrimsonWasteland2.obj
 0001:0000a240       ??$_Construct_in_place@PAU?$_Tree_node@U?$pair@$$CBV?$basic_string@DU?$char_traits@D@std@@V?$allocator@D@2@@std@@V?$weak_ptr@VRawImageData@@@2@@std@@PAX@std@@AAPAU12@@std@@YAXAAPAU?$_Tree_node@U?$pair@$$CBV?$basic_string@DU?$char_traits@D@std@@V?$allocator@D@2@@std@@V?$weak_ptr@VRawImageData@@@2@@std@@PAX@0@0@Z 0040b240 f i CrimsonWasteland2.obj
 0001:0000a290       ??$_Construct_in_place@PAU?$_Tree_node@U?$pair@$$CBV?$basic_string@DU?$char_traits@D@std@@V?$allocator@D@2@@std@@V?$weak_ptr@VRawImageData@@@2@@std@@PAX@std@@ABQAU12@@std@@YAXAAPAU?$_Tree_node@U?$pair@$$CBV?$basic_string@DU?$char_traits@D@std@@V?$allocator@D@2@@std@@V?$weak_ptr@VRawImageData@@@2@@std@@PAX@0@ABQAU10@@Z 0040b290 f i CrimsonWasteland2.obj
 0001:0000a2e0       ??$_Construct_in_place@U_Container_proxy@std@@PAU_Container_base12@2@@std@@YAXAAU_Container_proxy@0@$$QAPAU_Container_base12@0@@Z 0040b2e0 f i CrimsonWasteland2.obj
 0001:0000a330       ??$_Construct_n@PBV?$basic_string@DU?$char_traits@D@std@@V?$allocator@D@2@@std@@PBV12@@?$vector@V?$basic_string@DU?$char_traits@D@std@@V?$allocator@D@2@@std@@V?$allocator@V?$basic_string@DU?$char_traits@D@std@@V?$allocator@D@2@@std@@@2@@std@@AAEXI$$QAPBV?$basic_string@DU?$char_traits@D@std@@V?$allocator@D@2@@1@0@Z 0040b330 f i CrimsonWasteland2.obj
 0001:0000a460       ??$_Convert_size@II@std@@YAII@Z 0040b460 f i CrimsonWasteland2.obj
 0001:0000a470       ??$_Copy_construct_from@VRawImageData@@@?$_Ptr_base@VRawImageData@@@std@@IAEXABV?$shared_ptr@VRawImageData@@@1@@Z 0040b470 f i CrimsonWasteland2.obj
 0001:0000a4b0       ??$_Copy_memmove@PAPAVDisplayableObject@@PAPAV1@@std@@YAPAPAVDisplayableObject@@PAPAV1@00@Z 0040b4b0 f i CrimsonWasteland2.obj
 0001:0000a540       ??$_Could_compare_equal_to_value_type@PAPAVDisplayableObject@@PAV1@@std@@YA_NABQAVDisplayableObject@@@Z 0040b540 f i CrimsonWasteland2.obj
 0001:0000a550       ??$_Deallocate@$07$0A@@std@@YAXPAXI@Z 0040b550 f i CrimsonWasteland2.obj
 0001:0000a5d0       ??$_Deallocate_plain@V?$allocator@U_Container_proxy@std@@@std@@@std@@YAXAAV?$allocator@U_Container_proxy@std@@@0@QAU_Container_proxy@0@@Z 0040b5d0 f i CrimsonWasteland2.obj
 0001:0000a630       ??$_Debug_lt_pred@ABU?$less@V?$basic_string@DU?$char_traits@D@std@@V?$allocator@D@2@@std@@@std@@ABV?$basic_string@DU?$char_traits@D@std@@V?$allocator@D@2@@2@ABV32@$0A@@std@@YA_NABU?$less@V?$basic_string@DU?$char_traits@D@std@@V?$allocator@D@2@@std@@@0@ABV?$basic_string@DU?$char_traits@D@std@@V?$allocator@D@2@@0@1@Z 0040b630 f i CrimsonWasteland2.obj
 0001:0000a6f0       ??$_Delete_plain_internal@V?$allocator@U_Container_proxy@std@@@std@@@std@@YAXAAV?$allocator@U_Container_proxy@std@@@0@QAU_Container_proxy@0@@Z 0040b6f0 f i CrimsonWasteland2.obj
 0001:0000a710       ??$_Destroy_in_place@PAD@std@@YAXAAPAD@Z 0040b710 f i CrimsonWasteland2.obj
 0001:0000a720       ??$_Destroy_in_place@PAU?$_Tree_node@U?$pair@$$CBV?$basic_string@DU?$char_traits@D@std@@V?$allocator@D@2@@std@@V?$shared_ptr@VRawImageData@@@2@@std@@PAX@std@@@std@@YAXAAPAU?$_Tree_node@U?$pair@$$CBV?$basic_string@DU?$char_traits@D@std@@V?$allocator@D@2@@std@@V?$shared_ptr@VRawImageData@@@2@@std@@PAX@0@@Z 0040b720 f i CrimsonWasteland2.obj
 0001:0000a730       ??$_Destroy_in_place@PAU?$_Tree_node@U?$pair@$$CBV?$basic_string@DU?$char_traits@D@std@@V?$allocator@D@2@@std@@V?$weak_ptr@VRawImageData@@@2@@std@@PAX@std@@@std@@YAXAAPAU?$_Tree_node@U?$pair@$$CBV?$basic_string@DU?$char_traits@D@std@@V?$allocator@D@2@@std@@V?$weak_ptr@VRawImageData@@@2@@std@@PAX@0@@Z 0040b730 f i CrimsonWasteland2.obj
 0001:0000a740       ??$_Destroy_range@V?$allocator@PAVDisplayableObject@@@std@@@std@@YAXPAPAVDisplayableObject@@QAPAV1@AAV?$allocator@PAVDisplayableObject@@@0@@Z 0040b740 f i CrimsonWasteland2.obj
 0001:0000a750       ??$_Destroy_range@V?$allocator@V?$basic_string@DU?$char_traits@D@std@@V?$allocator@D@2@@std@@@std@@@std@@YAXPAV?$basic_string@DU?$char_traits@D@std@@V?$allocator@D@2@@0@QAV10@AAV?$allocator@V?$basic_string@DU?$char_traits@D@std@@V?$allocator@D@2@@std@@@0@@Z 0040b750 f i CrimsonWasteland2.obj
 0001:0000a7d0       ??$_Emplace@U?$pair@V?$basic_string@DU?$char_traits@D@std@@V?$allocator@D@2@@std@@V?$shared_ptr@VRawImageData@@@2@@std@@@?$_Tree@V?$_Tmap_traits@V?$basic_string@DU?$char_traits@D@std@@V?$allocator@D@2@@std@@V?$shared_ptr@VRawImageData@@@2@U?$less@V?$basic_string@DU?$char_traits@D@std@@V?$allocator@D@2@@std@@@2@V?$allocator@U?$pair@$$CBV?$basic_string@DU?$char_traits@D@std@@V?$allocator@D@2@@std@@V?$shared_ptr@VRawImageData@@@2@@std@@@2@$0A@@std@@@std@@IAE?AU?$pair@PAU?$_Tree_node@U?$pair@$$CBV?$basic_string@DU?$char_traits@D@std@@V?$allocator@D@2@@std@@V?$shared_ptr@VRawImageData@@@2@@std@@PAX@std@@_N@1@$$QAU?$pair@V?$basic_string@DU?$char_traits@D@std@@V?$allocator@D@2@@std@@V?$shared_ptr@VRawImageData@@@2@@1@@Z 0040b7d0 f i CrimsonWasteland2.obj
 0001:0000a900       ??$_Emplace@U?$pair@V?$basic_string@DU?$char_traits@D@std@@V?$allocator@D@2@@std@@V?$weak_ptr@VRawImageData@@@2@@std@@@?$_Tree@V?$_Tmap_traits@V?$basic_string@DU?$char_traits@D@std@@V?$allocator@D@2@@std@@V?$weak_ptr@VRawImageData@@@2@U?$less@V?$basic_string@DU?$char_traits@D@std@@V?$allocator@D@2@@std@@@2@V?$allocator@U?$pair@$$CBV?$basic_string@DU?$char_traits@D@std@@V?$allocator@D@2@@std@@V?$weak_ptr@VRawImageData@@@2@@std@@@2@$0A@@std@@@std@@IAE?AU?$pair@PAU?$_Tree_node@U?$pair@$$CBV?$basic_string@DU?$char_traits@D@std@@V?$allocator@D@2@@std@@V?$weak_ptr@VRawImageData@@@2@@std@@PAX@std@@_N@1@$$QAU?$pair@V?$basic_string@DU?$char_traits@D@std@@V?$allocator@D@2@@std@@V?$weak_ptr@VRawImageData@@@2@@1@@Z 0040b900 f i CrimsonWasteland2.obj
 0001:0000aa30       ??$_Emplace_back@$$V@?$_Uninitialized_backout_al@V?$allocator@PAVDisplayableObject@@@std@@@std@@QAEXXZ 0040ba30 f i CrimsonWasteland2.obj
 0001:0000aa80       ??$_Emplace_back@ABV?$basic_string@DU?$char_traits@D@std@@V?$allocator@D@2@@std@@@?$_Uninitialized_backout_al@V?$allocator@V?$basic_string@DU?$char_traits@D@std@@V?$allocator@D@2@@std@@@std@@@std@@QAEXABV?$basic_string@DU?$char_traits@D@std@@V?$allocator@D@2@@1@@Z 0040ba80 f i CrimsonWasteland2.obj
 0001:0000aae0       ??$_Emplace_back@PAVDisplayableObject@@@?$_Uninitialized_backout_al@V?$allocator@PAVDisplayableObject@@@std@@@std@@QAEX$$QAPAVDisplayableObject@@@Z 0040bae0 f i CrimsonWasteland2.obj
 0001:0000ab40       ??$_Erase_head@V?$allocator@U?$_Tree_node@U?$pair@$$CBV?$basic_string@DU?$char_traits@D@std@@V?$allocator@D@2@@std@@V?$weak_ptr@VRawImageData@@@2@@std@@PAX@std@@@std@@@?$_Tree_val@U?$_Tree_simple_types@U?$pair@$$CBV?$basic_string@DU?$char_traits@D@std@@V?$allocator@D@2@@std@@V?$weak_ptr@VRawImageData@@@2@@std@@@std@@@std@@QAEXAAV?$allocator@U?$_Tree_node@U?$pair@$$CBV?$basic_string@DU?$char_traits@D@std@@V?$allocator@D@2@@std@@V?$weak_ptr@VRawImageData@@@2@@std@@PAX@std@@@1@@Z 0040bb40 f i CrimsonWasteland2.obj
 0001:0000ab90       ??$_Erase_tree@V?$allocator@U?$_Tree_node@U?$pair@$$CBV?$basic_string@DU?$char_traits@D@std@@V?$allocator@D@2@@std@@V?$weak_ptr@VRawImageData@@@2@@std@@PAX@std@@@std@@@?$_Tree_val@U?$_Tree_simple_types@U?$pair@$$CBV?$basic_string@DU?$char_traits@D@std@@V?$allocator@D@2@@std@@V?$weak_ptr@VRawImageData@@@2@@std@@@std@@@std@@QAEXAAV?$allocator@U?$_Tree_node@U?$pair@$$CBV?$basic_string@DU?$char_traits@D@std@@V?$allocator@D@2@@std@@V?$weak_ptr@VRawImageData@@@2@@std@@PAX@std@@@1@PAU?$_Tree_node@U?$pair@$$CBV?$basic_string@DU?$char_traits@D@std@@V?$allocator@D@2@@std@@V?$weak_ptr@VRawImageData@@@2@@std@@PAX@1@@Z 0040bb90 f i CrimsonWasteland2.obj
 0001:0000abf0       ??$_Find@V?$basic_string@DU?$char_traits@D@std@@V?$allocator@D@2@@std@@@?$_Tree@V?$_Tmap_traits@V?$basic_string@DU?$char_traits@D@std@@V?$allocator@D@2@@std@@V?$weak_ptr@VRawImageData@@@2@U?$less@V?$basic_string@DU?$char_traits@D@std@@V?$allocator@D@2@@std@@@2@V?$allocator@U?$pair@$$CBV?$basic_string@DU?$char_traits@D@std@@V?$allocator@D@2@@std@@V?$weak_ptr@VRawImageData@@@2@@std@@@2@$0A@@std@@@std@@ABEPAU?$_Tree_node@U?$pair@$$CBV?$basic_string@DU?$char_traits@D@std@@V?$allocator@D@2@@std@@V?$weak_ptr@VRawImageData@@@2@@std@@PAX@1@ABV?$basic_string@DU?$char_traits@D@std@@V?$allocator@D@2@@1@@Z 0040bbf0 f i CrimsonWasteland2.obj
 0001:0000ac50       ??$_Find_lower_bound@V?$basic_string@DU?$char_traits@D@std@@V?$allocator@D@2@@std@@@?$_Tree@V?$_Tmap_traits@V?$basic_string@DU?$char_traits@D@std@@V?$allocator@D@2@@std@@V?$shared_ptr@VRawImageData@@@2@U?$less@V?$basic_string@DU?$char_traits@D@std@@V?$allocator@D@2@@std@@@2@V?$allocator@U?$pair@$$CBV?$basic_string@DU?$char_traits@D@std@@V?$allocator@D@2@@std@@V?$shared_ptr@VRawImageData@@@2@@std@@@2@$0A@@std@@@std@@IBE?AU?$_Tree_find_result@PAU?$_Tree_node@U?$pair@$$CBV?$basic_string@DU?$char_traits@D@std@@V?$allocator@D@2@@std@@V?$shared_ptr@VRawImageData@@@2@@std@@PAX@std@@@1@ABV?$basic_string@DU?$char_traits@D@std@@V?$allocator@D@2@@1@@Z 0040bc50 f i CrimsonWasteland2.obj
 0001:0000ad40       ??$_Find_lower_bound@V?$basic_string@DU?$char_traits@D@std@@V?$allocator@D@2@@std@@@?$_Tree@V?$_Tmap_traits@V?$basic_string@DU?$char_traits@D@std@@V?$allocator@D@2@@std@@V?$weak_ptr@VRawImageData@@@2@U?$less@V?$basic_string@DU?$char_traits@D@std@@V?$allocator@D@2@@std@@@2@V?$allocator@U?$pair@$$CBV?$basic_string@DU?$char_traits@D@std@@V?$allocator@D@2@@std@@V?$weak_ptr@VRawImageData@@@2@@std@@@2@$0A@@std@@@std@@IBE?AU?$_Tree_find_result@PAU?$_Tree_node@U?$pair@$$CBV?$basic_string@DU?$char_traits@D@std@@V?$allocator@D@2@@std@@V?$weak_ptr@VRawImageData@@@2@@std@@PAX@std@@@1@ABV?$basic_string@DU?$char_traits@D@std@@V?$allocator@D@2@@1@@Z 0040bd40 f i CrimsonWasteland2.obj
 0001:0000ae30       ??$_Find_unchecked@PAPAVDisplayableObject@@PAV1@@std@@YAPAPAVDisplayableObject@@PAPAV1@QAPAV1@ABQAV1@@Z 0040be30 f i CrimsonWasteland2.obj
 0001:0000aed0       ??$_Find_unchecked@PAV?$basic_string@DU?$char_traits@D@std@@V?$allocator@D@2@@std@@V12@@std@@YAPAV?$basic_string@DU?$char_traits@D@std@@V?$allocator@D@2@@0@PAV10@QAV10@ABV10@@Z 0040bed0 f i CrimsonWasteland2.obj
 0001:0000af20       ??$_Freenode0@V?$allocator@U?$_Tree_node@U?$pair@$$CBV?$basic_string@DU?$char_traits@D@std@@V?$allocator@D@2@@std@@V?$weak_ptr@VRawImageData@@@2@@std@@PAX@std@@@std@@@?$_Tree_node@U?$pair@$$CBV?$basic_string@DU?$char_traits@D@std@@V?$allocator@D@2@@std@@V?$weak_ptr@VRawImageData@@@2@@std@@PAX@std@@SAXAAV?$allocator@U?$_Tree_node@U?$pair@$$CBV?$basic_string@DU?$char_traits@D@std@@V?$allocator@D@2@@std@@V?$weak_ptr@VRawImageData@@@2@@std@@PAX@std@@@1@PAU01@@Z 0040bf20 f i CrimsonWasteland2.obj
 0001:0000afb0       ??$_Freenode@V?$allocator@U?$_Tree_node@U?$pair@$$CBV?$basic_string@DU?$char_traits@D@std@@V?$allocator@D@2@@std@@V?$weak_ptr@VRawImageData@@@2@@std@@PAX@std@@@std@@@?$_Tree_node@U?$pair@$$CBV?$basic_string@DU?$char_traits@D@std@@V?$allocator@D@2@@std@@V?$weak_ptr@VRawImageData@@@2@@std@@PAX@std@@SAXAAV?$allocator@U?$_Tree_node@U?$pair@$$CBV?$basic_string@DU?$char_traits@D@std@@V?$allocator@D@2@@std@@V?$weak_ptr@VRawImageData@@@2@@std@@PAX@std@@@1@PAU01@@Z 0040bfb0 f i CrimsonWasteland2.obj
 0001:0000b030       ??$_Get_size_of_n@$00@std@@YAII@Z 0040c030 f i CrimsonWasteland2.obj
 0001:0000b050       ??$_Get_size_of_n@$03@std@@YAII@Z 0040c050 f i CrimsonWasteland2.obj
 0001:0000b090       ??$_Get_size_of_n@$07@std@@YAII@Z 0040c090 f i CrimsonWasteland2.obj
 0001:0000b0d0       ??$_Get_size_of_n@$0BM@@std@@YAII@Z 0040c0d0 f i CrimsonWasteland2.obj
 0001:0000b100       ??$_Get_size_of_n@$0DE@@std@@YAII@Z 0040c100 f i CrimsonWasteland2.obj
 0001:0000b130       ??$_Get_unwrapped@AAV?$_Vector_iterator@V?$_Vector_val@U?$_Simple_types@PAVDisplayableObject@@@std@@@std@@@std@@@std@@YA?A_TAAV?$_Vector_iterator@V?$_Vector_val@U?$_Simple_types@PAVDisplayableObject@@@std@@@std@@@0@@Z 0040c130 f i CrimsonWasteland2.obj
 0001:0000b140       ??$_Get_unwrapped@AAV?$_Vector_iterator@V?$_Vector_val@U?$_Simple_types@V?$basic_string@DU?$char_traits@D@std@@V?$allocator@D@2@@std@@@std@@@std@@@std@@@std@@YA?A_TAAV?$_Vector_iterator@V?$_Vector_val@U?$_Simple_types@V?$basic_string@DU?$char_traits@D@std@@V?$allocator@D@2@@std@@@std@@@std@@@0@@Z 0040c140 f i CrimsonWasteland2.obj
 0001:0000b150       ??$_Get_unwrapped@ABQAPAVDisplayableObject@@@std@@YA?A_TABQAPAVDisplayableObject@@@Z 0040c150 f i CrimsonWasteland2.obj
 0001:0000b160       ??$_Get_unwrapped@ABV?$_Vector_iterator@V?$_Vector_val@U?$_Simple_types@PAVDisplayableObject@@@std@@@std@@@std@@@std@@YA?A_TABV?$_Vector_iterator@V?$_Vector_val@U?$_Simple_types@PAVDisplayableObject@@@std@@@std@@@0@@Z 0040c160 f i CrimsonWasteland2.obj
 0001:0000b170       ??$_Get_unwrapped@ABV?$_Vector_iterator@V?$_Vector_val@U?$_Simple_types@V?$basic_string@DU?$char_traits@D@std@@V?$allocator@D@2@@std@@@std@@@std@@@std@@@std@@YA?A_TABV?$_Vector_iterator@V?$_Vector_val@U?$_Simple_types@V?$basic_string@DU?$char_traits@D@std@@V?$allocator@D@2@@std@@@std@@@std@@@0@@Z 0040c170 f i CrimsonWasteland2.obj
 0001:0000b180       ??$_Get_unwrapped@PBV?$basic_string@DU?$char_traits@D@std@@V?$allocator@D@2@@std@@@std@@YA?A_T$$QAPBV?$basic_string@DU?$char_traits@D@std@@V?$allocator@D@2@@0@@Z 0040c180 f i CrimsonWasteland2.obj
 0001:0000b190       ??$_Insert_string@DU?$char_traits@D@std@@I@std@@YAAAV?$basic_ostream@DU?$char_traits@D@std@@@0@AAV10@QBDI@Z 0040c190 f i CrimsonWasteland2.obj
 0001:0000b4d0       ??$_Kfn@$$CBV?$basic_string@DU?$char_traits@D@std@@V?$allocator@D@2@@std@@V?$shared_ptr@VRawImageData@@@2@@?$_Tmap_traits@V?$basic_string@DU?$char_traits@D@std@@V?$allocator@D@2@@std@@V?$shared_ptr@VRawImageData@@@2@U?$less@V?$basic_string@DU?$char_traits@D@std@@V?$allocator@D@2@@std@@@2@V?$allocator@U?$pair@$$CBV?$basic_string@DU?$char_traits@D@std@@V?$allocator@D@2@@std@@V?$shared_ptr@VRawImageData@@@2@@std@@@2@$0A@@std@@SAABV?$basic_string@DU?$char_traits@D@std@@V?$allocator@D@2@@1@ABU?$pair@$$CBV?$basic_string@DU?$char_traits@D@std@@V?$allocator@D@2@@std@@V?$shared_ptr@VRawImageData@@@2@@1@@Z 0040c4d0 f i CrimsonWasteland2.obj
 0001:0000b4e0       ??$_Kfn@$$CBV?$basic_string@DU?$char_traits@D@std@@V?$allocator@D@2@@std@@V?$weak_ptr@VRawImageData@@@2@@?$_Tmap_traits@V?$basic_string@DU?$char_traits@D@std@@V?$allocator@D@2@@std@@V?$weak_ptr@VRawImageData@@@2@U?$less@V?$basic_string@DU?$char_traits@D@std@@V?$allocator@D@2@@std@@@2@V?$allocator@U?$pair@$$CBV?$basic_string@DU?$char_traits@D@std@@V?$allocator@D@2@@std@@V?$weak_ptr@VRawImageData@@@2@@std@@@2@$0A@@std@@SAABV?$basic_string@DU?$char_traits@D@std@@V?$allocator@D@2@@1@ABU?$pair@$$CBV?$basic_string@DU?$char_traits@D@std@@V?$allocator@D@2@@std@@V?$weak_ptr@VRawImageData@@@2@@1@@Z 0040c4e0 f i CrimsonWasteland2.obj
 0001:0000b4f0       ??$_Lower_bound_duplicate@V?$basic_string@DU?$char_traits@D@std@@V?$allocator@D@2@@std@@@?$_Tree@V?$_Tmap_traits@V?$basic_string@DU?$char_traits@D@std@@V?$allocator@D@2@@std@@V?$shared_ptr@VRawImageData@@@2@U?$less@V?$basic_string@DU?$char_traits@D@std@@V?$allocator@D@2@@std@@@2@V?$allocator@U?$pair@$$CBV?$basic_string@DU?$char_traits@D@std@@V?$allocator@D@2@@std@@V?$shared_ptr@VRawImageData@@@2@@std@@@2@$0A@@std@@@std@@IBE_NQAU?$_Tree_node@U?$pair@$$CBV?$basic_string@DU?$char_traits@D@std@@V?$allocator@D@2@@std@@V?$shared_ptr@VRawImageData@@@2@@std@@PAX@1@ABV?$basic_string@DU?$char_traits@D@std@@V?$allocator@D@2@@1@@Z 0040c4f0 f i CrimsonWasteland2.obj
 0001:0000b560       ??$_Lower_bound_duplicate@V?$basic_string@DU?$char_traits@D@std@@V?$allocator@D@2@@std@@@?$_Tree@V?$_Tmap_traits@V?$basic_string@DU?$char_traits@D@std@@V?$allocator@D@2@@std@@V?$weak_ptr@VRawImageData@@@2@U?$less@V?$basic_string@DU?$char_traits@D@std@@V?$allocator@D@2@@std@@@2@V?$allocator@U?$pair@$$CBV?$basic_string@DU?$char_traits@D@std@@V?$allocator@D@2@@std@@V?$weak_ptr@VRawImageData@@@2@@std@@@2@$0A@@std@@@std@@IBE_NQAU?$_Tree_node@U?$pair@$$CBV?$basic_string@DU?$char_traits@D@std@@V?$allocator@D@2@@std@@V?$weak_ptr@VRawImageData@@@2@@std@@PAX@1@ABV?$basic_string@DU?$char_traits@D@std@@V?$allocator@D@2@@1@@Z 0040c560 f i CrimsonWasteland2.obj
 0001:0000b5d0       ??$_Move_construct_from@VRawImageData@@@?$_Ptr_base@VRawImageData@@@std@@IAEX$$QAV01@@Z 0040c5d0 f i CrimsonWasteland2.obj
 0001:0000b620       ??$_Move_unchecked@PAPAVDisplayableObject@@PAPAV1@@std@@YAPAPAVDisplayableObject@@PAPAV1@00@Z 0040c620 f i CrimsonWasteland2.obj
 0001:0000b690       ??$_Pocca@V?$allocator@D@std@@@std@@YAXAAV?$allocator@D@0@ABV10@@Z 0040c690 f i CrimsonWasteland2.obj
 0001:0000b6a0       ??$_Reallocate_for@V<lambda_9366063389c5f42a00a5088cf24e69de>@@PBD@?$basic_string@DU?$char_traits@D@std@@V?$allocator@D@2@@std@@AAEAAV01@IV<lambda_9366063389c5f42a00a5088cf24e69de>@@PBD@Z 0040c6a0 f i CrimsonWasteland2.obj
 0001:0000b7a0       ??$_Reallocate_grow_by@V<lambda_ab246b20b9526e2ef7792587e4298a77>@@PBDI@?$basic_string@DU?$char_traits@D@std@@V?$allocator@D@2@@std@@AAEAAV01@IV<lambda_ab246b20b9526e2ef7792587e4298a77>@@PBDI@Z 0040c7a0 f i CrimsonWasteland2.obj
 0001:0000b910       ??$_Refancy@PAPAVDisplayableObject@@$0A@@std@@YAPAPAVDisplayableObject@@PAPAV1@@Z 0040c910 f i CrimsonWasteland2.obj
 0001:0000b920       ??$_Refancy@PAV?$basic_string@DU?$char_traits@D@std@@V?$allocator@D@2@@std@@$0A@@std@@YAPAV?$basic_string@DU?$char_traits@D@std@@V?$allocator@D@2@@0@PAV10@@Z 0040c920 f i CrimsonWasteland2.obj
 0001:0000b930       ??$_Resize@U_Value_init_tag@std@@@?$vector@PAVDisplayableObject@@V?$allocator@PAVDisplayableObject@@@std@@@std@@AAEXIABU_Value_init_tag@1@@Z 0040c930 f i CrimsonWasteland2.obj
 0001:0000ba60       ??$_Resize_reallocate@U_Value_init_tag@std@@@?$vector@PAVDisplayableObject@@V?$allocator@PAVDisplayableObject@@@std@@@std@@AAEXIABU_Value_init_tag@1@@Z 0040ca60 f i CrimsonWasteland2.obj
 0001:0000bc20       ??$_Seek_wrapped@V?$_Vector_iterator@V?$_Vector_val@U?$_Simple_types@PAVDisplayableObject@@@std@@@std@@@std@@PAPAVDisplayableObject@@@std@@YAXAAV?$_Vector_iterator@V?$_Vector_val@U?$_Simple_types@PAVDisplayableObject@@@std@@@std@@@0@$$QAPAPAVDisplayableObject@@@Z 0040cc20 f i CrimsonWasteland2.obj
 0001:0000bc50       ??$_Seek_wrapped@V?$_Vector_iterator@V?$_Vector_val@U?$_Simple_types@V?$basic_string@DU?$char_traits@D@std@@V?$allocator@D@2@@std@@@std@@@std@@@std@@PAV?$basic_string@DU?$char_traits@D@std@@V?$allocator@D@2@@2@@std@@YAXAAV?$_Vector_iterator@V?$_Vector_val@U?$_Simple_types@V?$basic_string@DU?$char_traits@D@std@@V?$allocator@D@2@@std@@@std@@@std@@@0@$$QAPAV?$basic_string@DU?$char_traits@D@std@@V?$allocator@D@2@@0@@Z 0040cc50 f i CrimsonWasteland2.obj
 0001:0000bc80       ??$_Set_ptr_rep_and_enable_shared@VRawImageData@@@?$shared_ptr@VRawImageData@@@std@@AAEXQAVRawImageData@@QAV_Ref_count_base@1@@Z 0040cc80 f i CrimsonWasteland2.obj
 0001:0000bcb0       ??$_To_address@PAPAVDisplayableObject@@@std@@YA?A_PABQAPAVDisplayableObject@@@Z 0040ccb0 f i CrimsonWasteland2.obj
 0001:0000bcc0       ??$_Traits_compare@U?$char_traits@D@std@@@std@@YAHQBDI0I@Z 0040ccc0 f i CrimsonWasteland2.obj
 0001:0000bd30       ??$_Traits_equal@U?$char_traits@D@std@@@std@@YA_NQBDI0I@Z 0040cd30 f i CrimsonWasteland2.obj
 0001:0000bd80       ??$_Unfancy@D@std@@YAPADPAD@Z 0040cd80 f i CrimsonWasteland2.obj
 0001:0000bd90       ??$_Unfancy@PAVDisplayableObject@@@std@@YAPAPAVDisplayableObject@@PAPAV1@@Z 0040cd90 f i CrimsonWasteland2.obj
 0001:0000bda0       ??$_Unfancy@U_Container_proxy@std@@@std@@YAPAU_Container_proxy@0@PAU10@@Z 0040cda0 f i CrimsonWasteland2.obj
 0001:0000bdb0       ??$_Unfancy@V?$basic_string@DU?$char_traits@D@std@@V?$allocator@D@2@@std@@@std@@YAPAV?$basic_string@DU?$char_traits@D@std@@V?$allocator@D@2@@0@PAV10@@Z 0040cdb0 f i CrimsonWasteland2.obj
 0001:0000bdc0       ??$_Uninitialized_copy@PBV?$basic_string@DU?$char_traits@D@std@@V?$allocator@D@2@@std@@PBV12@V?$allocator@V?$basic_string@DU?$char_traits@D@std@@V?$allocator@D@2@@std@@@2@@std@@YAPAV?$basic_string@DU?$char_traits@D@std@@V?$allocator@D@2@@0@PBV10@0PAV10@AAV?$allocator@V?$basic_string@DU?$char_traits@D@std@@V?$allocator@D@2@@std@@@0@@Z 0040cdc0 f i CrimsonWasteland2.obj
 0001:0000beb0       ??$_Uninitialized_move@PAPAVDisplayableObject@@V?$allocator@PAVDisplayableObject@@@std@@@std@@YAPAPAVDisplayableObject@@QAPAV1@0PAPAV1@AAV?$allocator@PAVDisplayableObject@@@0@@Z 0040ceb0 f i CrimsonWasteland2.obj
 0001:0000bfd0       ??$_Uninitialized_value_construct_n@V?$allocator@PAVDisplayableObject@@@std@@@std@@YAPAPAVDisplayableObject@@PAPAV1@IAAV?$allocator@PAVDisplayableObject@@@0@@Z 0040cfd0 f i CrimsonWasteland2.obj
 0001:0000c0b0       ??$_Weakly_construct_from@VRawImageData@@@?$_Ptr_base@VRawImageData@@@std@@IAEXABV01@@Z 0040d0b0 f i CrimsonWasteland2.obj
 0001:0000c100       ??$_Zero_range@PAPAVDisplayableObject@@@std@@YAPAPAVDisplayableObject@@QAPAV1@0@Z 0040d100 f i CrimsonWasteland2.obj
 0001:0000c150       ??$__std_find_trivial@PAVDisplayableObject@@I@@YAPAPAVDisplayableObject@@PAPAV0@0I@Z 0040d150 f i CrimsonWasteland2.obj
 0001:0000c170       ??$__std_find_trivial@PAVDisplayableObject@@PAV1@@@YAPAPAVDisplayableObject@@PAPAV0@0QAV0@@Z 0040d170 f i CrimsonWasteland2.obj
 0001:0000c190       ??$addressof@$$CBV?$_Tree_val@U?$_Tree_simple_types@U?$pair@$$CBV?$basic_string@DU?$char_traits@D@std@@V?$allocator@D@2@@std@@V?$shared_ptr@VRawImageData@@@2@@std@@@std@@@std@@@std@@YAPBV?$_Tree_val@U?$_Tree_simple_types@U?$pair@$$CBV?$basic_string@DU?$char_traits@D@std@@V?$allocator@D@2@@std@@V?$shared_ptr@VRawImageData@@@2@@std@@@std@@@0@ABV10@@Z 0040d190 f i CrimsonWasteland2.obj
 0001:0000c1a0       ??$addressof@$$CBV?$_Tree_val@U?$_Tree_simple_types@U?$pair@$$CBV?$basic_string@DU?$char_traits@D@std@@V?$allocator@D@2@@std@@V?$weak_ptr@VRawImageData@@@2@@std@@@std@@@std@@@std@@YAPBV?$_Tree_val@U?$_Tree_simple_types@U?$pair@$$CBV?$basic_string@DU?$char_traits@D@std@@V?$allocator@D@2@@std@@V?$weak_ptr@VRawImageData@@@2@@std@@@std@@@0@ABV10@@Z 0040d1a0 f i CrimsonWasteland2.obj
 0001:0000c1b0       ??$addressof@$$CBV?$_Vector_val@U?$_Simple_types@PAVDisplayableObject@@@std@@@std@@@std@@YAPBV?$_Vector_val@U?$_Simple_types@PAVDisplayableObject@@@std@@@0@ABV10@@Z 0040d1b0 f i CrimsonWasteland2.obj
 0001:0000c1c0       ??$addressof@$$CBV?$basic_string@DU?$char_traits@D@std@@V?$allocator@D@2@@std@@@std@@YAPBV?$basic_string@DU?$char_traits@D@std@@V?$allocator@D@2@@0@ABV10@@Z 0040d1c0 f i CrimsonWasteland2.obj
 0001:0000c1d0       ??$addressof@PAD@std@@YAPAPADAAPAD@Z 0040d1d0 f i CrimsonWasteland2.obj
 0001:0000c1e0       ??$addressof@PAU?$_Tree_node@U?$pair@$$CBV?$basic_string@DU?$char_traits@D@std@@V?$allocator@D@2@@std@@V?$shared_ptr@VRawImageData@@@2@@std@@PAX@std@@@std@@YAPAPAU?$_Tree_node@U?$pair@$$CBV?$basic_string@DU?$char_traits@D@std@@V?$allocator@D@2@@std@@V?$shared_ptr@VRawImageData@@@2@@std@@PAX@0@AAPAU10@@Z 0040d1e0 f i CrimsonWasteland2.obj
 0001:0000c1f0       ??$addressof@PAU?$_Tree_node@U?$pair@$$CBV?$basic_string@DU?$char_traits@D@std@@V?$allocator@D@2@@std@@V?$weak_ptr@VRawImageData@@@2@@std@@PAX@std@@@std@@YAPAPAU?$_Tree_node@U?$pair@$$CBV?$basic_string@DU?$char_traits@D@std@@V?$allocator@D@2@@std@@V?$weak_ptr@VRawImageData@@@2@@std@@PAX@0@AAPAU10@@Z 0040d1f0 f i CrimsonWasteland2.obj
 0001:0000c200       ??$addressof@U?$pair@$$CBV?$basic_string@DU?$char_traits@D@std@@V?$allocator@D@2@@std@@V?$shared_ptr@VRawImageData@@@2@@std@@@std@@YAPAU?$pair@$$CBV?$basic_string@DU?$char_traits@D@std@@V?$allocator@D@2@@std@@V?$shared_ptr@VRawImageData@@@2@@0@AAU10@@Z 0040d200 f i CrimsonWasteland2.obj
 0001:0000c210       ??$addressof@U?$pair@$$CBV?$basic_string@DU?$char_traits@D@std@@V?$allocator@D@2@@std@@V?$weak_ptr@VRawImageData@@@2@@std@@@std@@YAPAU?$pair@$$CBV?$basic_string@DU?$char_traits@D@std@@V?$allocator@D@2@@std@@V?$weak_ptr@VRawImageData@@@2@@0@AAU10@@Z 0040d210 f i CrimsonWasteland2.obj
 0001:0000c220       ??$addressof@U_Container_base12@std@@@std@@YAPAU_Container_base12@0@AAU10@@Z 0040d220 f i CrimsonWasteland2.obj
 0001:0000c230       ??$addressof@U_Container_proxy@std@@@std@@YAPAU_Container_proxy@0@AAU10@@Z 0040d230 f i CrimsonWasteland2.obj
 0001:0000c240       ??$addressof@V?$_String_val@U?$_Simple_types@D@std@@@std@@@std@@YAPAV?$_String_val@U?$_Simple_types@D@std@@@0@AAV10@@Z 0040d240 f i CrimsonWasteland2.obj
 0001:0000c250       ??$addressof@V?$_Tree_val@U?$_Tree_simple_types@U?$pair@$$CBV?$basic_string@DU?$char_traits@D@std@@V?$allocator@D@2@@std@@V?$shared_ptr@VRawImageData@@@2@@std@@@std@@@std@@@std@@YAPAV?$_Tree_val@U?$_Tree_simple_types@U?$pair@$$CBV?$basic_string@DU?$char_traits@D@std@@V?$allocator@D@2@@std@@V?$shared_ptr@VRawImageData@@@2@@std@@@std@@@0@AAV10@@Z 0040d250 f i CrimsonWasteland2.obj
 0001:0000c260       ??$addressof@V?$_Tree_val@U?$_Tree_simple_types@U?$pair@$$CBV?$basic_string@DU?$char_traits@D@std@@V?$allocator@D@2@@std@@V?$weak_ptr@VRawImageData@@@2@@std@@@std@@@std@@@std@@YAPAV?$_Tree_val@U?$_Tree_simple_types@U?$pair@$$CBV?$basic_string@DU?$char_traits@D@std@@V?$allocator@D@2@@std@@V?$weak_ptr@VRawImageData@@@2@@std@@@std@@@0@AAV10@@Z 0040d260 f i CrimsonWasteland2.obj
 0001:0000c270       ??$addressof@V?$_Vector_val@U?$_Simple_types@PAVDisplayableObject@@@std@@@std@@@std@@YAPAV?$_Vector_val@U?$_Simple_types@PAVDisplayableObject@@@std@@@0@AAV10@@Z 0040d270 f i CrimsonWasteland2.obj
 0001:0000c280       ??$addressof@V?$_Vector_val@U?$_Simple_types@V?$basic_string@DU?$char_traits@D@std@@V?$allocator@D@2@@std@@@std@@@std@@@std@@YAPAV?$_Vector_val@U?$_Simple_types@V?$basic_string@DU?$char_traits@D@std@@V?$allocator@D@2@@std@@@std@@@0@AAV10@@Z 0040d280 f i CrimsonWasteland2.obj
 0001:0000c290       ??$construct@PAVDisplayableObject@@$$V@?$_Default_allocator_traits@V?$allocator@PAVDisplayableObject@@@std@@@std@@SAXAAV?$allocator@PAVDisplayableObject@@@1@QAPAVDisplayableObject@@@Z 0040d290 f i CrimsonWasteland2.obj
 0001:0000c2e0       ??$construct@PAVDisplayableObject@@PAV1@@?$_Default_allocator_traits@V?$allocator@PAVDisplayableObject@@@std@@@std@@SAXAAV?$allocator@PAVDisplayableObject@@@1@QAPAVDisplayableObject@@$$QAPAV3@@Z 0040d2e0 f i CrimsonWasteland2.obj
 0001:0000c320       ??$construct@U?$pair@$$CBV?$basic_string@DU?$char_traits@D@std@@V?$allocator@D@2@@std@@V?$shared_ptr@VRawImageData@@@2@@std@@U?$pair@V?$basic_string@DU?$char_traits@D@std@@V?$allocator@D@2@@std@@V?$shared_ptr@VRawImageData@@@2@@2@@?$_Default_allocator_traits@V?$allocator@U?$_Tree_node@U?$pair@$$CBV?$basic_string@DU?$char_traits@D@std@@V?$allocator@D@2@@std@@V?$shared_ptr@VRawImageData@@@2@@std@@PAX@std@@@std@@@std@@SAXAAV?$allocator@U?$_Tree_node@U?$pair@$$CBV?$basic_string@DU?$char_traits@D@std@@V?$allocator@D@2@@std@@V?$shared_ptr@VRawImageData@@@2@@std@@PAX@std@@@1@QAU?$pair@$$CBV?$basic_string@DU?$char_traits@D@std@@V?$allocator@D@2@@std@@V?$shared_ptr@VRawImageData@@@2@@1@$$QAU?$pair@V?$basic_string@DU?$char_traits@D@std@@V?$allocator@D@2@@std@@V?$shared_ptr@VRawImageData@@@2@@1@@Z 0040d320 f i CrimsonWasteland2.obj
 0001:0000c360       ??$construct@U?$pair@$$CBV?$basic_string@DU?$char_traits@D@std@@V?$allocator@D@2@@std@@V?$weak_ptr@VRawImageData@@@2@@std@@U?$pair@V?$basic_string@DU?$char_traits@D@std@@V?$allocator@D@2@@std@@V?$weak_ptr@VRawImageData@@@2@@2@@?$_Default_allocator_traits@V?$allocator@U?$_Tree_node@U?$pair@$$CBV?$basic_string@DU?$char_traits@D@std@@V?$allocator@D@2@@std@@V?$weak_ptr@VRawImageData@@@2@@std@@PAX@std@@@std@@@std@@SAXAAV?$allocator@U?$_Tree_node@U?$pair@$$CBV?$basic_string@DU?$char_traits@D@std@@V?$allocator@D@2@@std@@V?$weak_ptr@VRawImageData@@@2@@std@@PAX@std@@@1@QAU?$pair@$$CBV?$basic_string@DU?$char_traits@D@std@@V?$allocator@D@2@@std@@V?$weak_ptr@VRawImageData@@@2@@1@$$QAU?$pair@V?$basic_string@DU?$char_traits@D@std@@V?$allocator@D@2@@std@@V?$weak_ptr@VRawImageData@@@2@@1@@Z 0040d360 f i CrimsonWasteland2.obj
 0001:0000c3a0       ??$construct@V?$basic_string@DU?$char_traits@D@std@@V?$allocator@D@2@@std@@ABV12@@?$_Default_allocator_traits@V?$allocator@V?$basic_string@DU?$char_traits@D@std@@V?$allocator@D@2@@std@@@std@@@std@@SAXAAV?$allocator@V?$basic_string@DU?$char_traits@D@std@@V?$allocator@D@2@@std@@@1@QAV?$basic_string@DU?$char_traits@D@std@@V?$allocator@D@2@@1@ABV31@@Z 0040d3a0 f i CrimsonWasteland2.obj
 0001:0000c3e0       ??$destroy@PAVDisplayableObject@@@?$_Default_allocator_traits@V?$allocator@PAVDisplayableObject@@@std@@@std@@SAXAAV?$allocator@PAVDisplayableObject@@@1@QAPAVDisplayableObject@@@Z 0040d3e0 f i CrimsonWasteland2.obj
 0001:0000c3f0       ??$destroy@U?$pair@$$CBV?$basic_string@DU?$char_traits@D@std@@V?$allocator@D@2@@std@@V?$shared_ptr@VRawImageData@@@2@@std@@@?$_Default_allocator_traits@V?$allocator@U?$_Tree_node@U?$pair@$$CBV?$basic_string@DU?$char_traits@D@std@@V?$allocator@D@2@@std@@V?$shared_ptr@VRawImageData@@@2@@std@@PAX@std@@@std@@@std@@SAXAAV?$allocator@U?$_Tree_node@U?$pair@$$CBV?$basic_string@DU?$char_traits@D@std@@V?$allocator@D@2@@std@@V?$shared_ptr@VRawImageData@@@2@@std@@PAX@std@@@1@QAU?$pair@$$CBV?$basic_string@DU?$char_traits@D@std@@V?$allocator@D@2@@std@@V?$shared_ptr@VRawImageData@@@2@@1@@Z 0040d3f0 f i CrimsonWasteland2.obj
 0001:0000c410       ??$destroy@U?$pair@$$CBV?$basic_string@DU?$char_traits@D@std@@V?$allocator@D@2@@std@@V?$weak_ptr@VRawImageData@@@2@@std@@@?$_Default_allocator_traits@V?$allocator@U?$_Tree_node@U?$pair@$$CBV?$basic_string@DU?$char_traits@D@std@@V?$allocator@D@2@@std@@V?$weak_ptr@VRawImageData@@@2@@std@@PAX@std@@@std@@@std@@SAXAAV?$allocator@U?$_Tree_node@U?$pair@$$CBV?$basic_string@DU?$char_traits@D@std@@V?$allocator@D@2@@std@@V?$weak_ptr@VRawImageData@@@2@@std@@PAX@std@@@1@QAU?$pair@$$CBV?$basic_string@DU?$char_traits@D@std@@V?$allocator@D@2@@std@@V?$weak_ptr@VRawImageData@@@2@@1@@Z 0040d410 f i CrimsonWasteland2.obj
 0001:0000c430       ??$destroy@V?$basic_string@DU?$char_traits@D@std@@V?$allocator@D@2@@std@@@?$_Default_allocator_traits@V?$allocator@V?$basic_string@DU?$char_traits@D@std@@V?$allocator@D@2@@std@@@std@@@std@@SAXAAV?$allocator@V?$basic_string@DU?$char_traits@D@std@@V?$allocator@D@2@@std@@@1@QAV?$basic_string@DU?$char_traits@D@std@@V?$allocator@D@2@@1@@Z 0040d430 f i CrimsonWasteland2.obj
 0001:0000c450       ??$emplace@U?$pair@V?$basic_string@DU?$char_traits@D@std@@V?$allocator@D@2@@std@@V?$shared_ptr@VRawImageData@@@2@@std@@@?$_Tree@V?$_Tmap_traits@V?$basic_string@DU?$char_traits@D@std@@V?$allocator@D@2@@std@@V?$shared_ptr@VRawImageData@@@2@U?$less@V?$basic_string@DU?$char_traits@D@std@@V?$allocator@D@2@@std@@@2@V?$allocator@U?$pair@$$CBV?$basic_string@DU?$char_traits@D@std@@V?$allocator@D@2@@std@@V?$shared_ptr@VRawImageData@@@2@@std@@@2@$0A@@std@@@std@@QAE?AU?$pair@V?$_Tree_iterator@V?$_Tree_val@U?$_Tree_simple_types@U?$pair@$$CBV?$basic_string@DU?$char_traits@D@std@@V?$allocator@D@2@@std@@V?$shared_ptr@VRawImageData@@@2@@std@@@std@@@std@@@std@@_N@1@$$QAU?$pair@V?$basic_string@DU?$char_traits@D@std@@V?$allocator@D@2@@std@@V?$shared_ptr@VRawImageData@@@2@@1@@Z 0040d450 f i CrimsonWasteland2.obj
 0001:0000c4e0       ??$emplace@U?$pair@V?$basic_string@DU?$char_traits@D@std@@V?$allocator@D@2@@std@@V?$weak_ptr@VRawImageData@@@2@@std@@@?$_Tree@V?$_Tmap_traits@V?$basic_string@DU?$char_traits@D@std@@V?$allocator@D@2@@std@@V?$weak_ptr@VRawImageData@@@2@U?$less@V?$basic_string@DU?$char_traits@D@std@@V?$allocator@D@2@@std@@@2@V?$allocator@U?$pair@$$CBV?$basic_string@DU?$char_traits@D@std@@V?$allocator@D@2@@std@@V?$weak_ptr@VRawImageData@@@2@@std@@@2@$0A@@std@@@std@@QAE?AU?$pair@V?$_Tree_iterator@V?$_Tree_val@U?$_Tree_simple_types@U?$pair@$$CBV?$basic_string@DU?$char_traits@D@std@@V?$allocator@D@2@@std@@V?$weak_ptr@VRawImageData@@@2@@std@@@std@@@std@@@std@@_N@1@$$QAU?$pair@V?$basic_string@DU?$char_traits@D@std@@V?$allocator@D@2@@std@@V?$weak_ptr@VRawImageData@@@2@@1@@Z 0040d4e0 f i CrimsonWasteland2.obj
 0001:0000c570       ??$endl@DU?$char_traits@D@std@@@std@@YAAAV?$basic_ostream@DU?$char_traits@D@std@@@0@AAV10@@Z 0040d570 f i CrimsonWasteland2.obj
 0001:0000c5b0       ??$erase@V?$_Tree_iterator@V?$_Tree_val@U?$_Tree_simple_types@U?$pair@$$CBV?$basic_string@DU?$char_traits@D@std@@V?$allocator@D@2@@std@@V?$weak_ptr@VRawImageData@@@2@@std@@@std@@@std@@@std@@$0A@@?$_Tree@V?$_Tmap_traits@V?$basic_string@DU?$char_traits@D@std@@V?$allocator@D@2@@std@@V?$weak_ptr@VRawImageData@@@2@U?$less@V?$basic_string@DU?$char_traits@D@std@@V?$allocator@D@2@@std@@@2@V?$allocator@U?$pair@$$CBV?$basic_string@DU?$char_traits@D@std@@V?$allocator@D@2@@std@@V?$weak_ptr@VRawImageData@@@2@@std@@@2@$0A@@std@@@std@@QAE?AV?$_Tree_iterator@V?$_Tree_val@U?$_Tree_simple_types@U?$pair@$$CBV?$basic_string@DU?$char_traits@D@std@@V?$allocator@D@2@@std@@V?$weak_ptr@VRawImageData@@@2@@std@@@std@@@std@@@1@V21@@Z 0040d5b0 f i CrimsonWasteland2.obj
 0001:0000c700       ??$exchange@PAU?$_Tree_node@U?$pair@$$CBV?$basic_string@DU?$char_traits@D@std@@V?$allocator@D@2@@std@@V?$shared_ptr@VRawImageData@@@2@@std@@PAX@std@@$$T@std@@YAPAU?$_Tree_node@U?$pair@$$CBV?$basic_string@DU?$char_traits@D@std@@V?$allocator@D@2@@std@@V?$shared_ptr@VRawImageData@@@2@@std@@PAX@0@AAPAU10@$$QA$$T@Z 0040d700 f i CrimsonWasteland2.obj
 0001:0000c730       ??$exchange@PAU?$_Tree_node@U?$pair@$$CBV?$basic_string@DU?$char_traits@D@std@@V?$allocator@D@2@@std@@V?$weak_ptr@VRawImageData@@@2@@std@@PAX@std@@$$T@std@@YAPAU?$_Tree_node@U?$pair@$$CBV?$basic_string@DU?$char_traits@D@std@@V?$allocator@D@2@@std@@V?$weak_ptr@VRawImageData@@@2@@std@@PAX@0@AAPAU10@$$QA$$T@Z 0040d730 f i CrimsonWasteland2.obj
 0001:0000c760       ??$exchange@PAU?$_Tree_node@U?$pair@$$CBV?$basic_string@DU?$char_traits@D@std@@V?$allocator@D@2@@std@@V?$weak_ptr@VRawImageData@@@2@@std@@PAX@std@@AAPAU12@@std@@YAPAU?$_Tree_node@U?$pair@$$CBV?$basic_string@DU?$char_traits@D@std@@V?$allocator@D@2@@std@@V?$weak_ptr@VRawImageData@@@2@@std@@PAX@0@AAPAU10@0@Z 0040d760 f i CrimsonWasteland2.obj
 0001:0000c790       ??$exchange@PAU_Container_proxy@std@@$$T@std@@YAPAU_Container_proxy@0@AAPAU10@$$QA$$T@Z 0040d790 f i CrimsonWasteland2.obj
 0001:0000c7c0       ??$exchange@PAU_Iterator_base12@std@@$$T@std@@YAPAU_Iterator_base12@0@AAPAU10@$$QA$$T@Z 0040d7c0 f i CrimsonWasteland2.obj
 0001:0000c7f0       ??$find@V?$_Vector_iterator@V?$_Vector_val@U?$_Simple_types@PAVDisplayableObject@@@std@@@std@@@std@@PAVDisplayableObject@@@std@@YA?AV?$_Vector_iterator@V?$_Vector_val@U?$_Simple_types@PAVDisplayableObject@@@std@@@std@@@0@V10@V10@ABQAVDisplayableObject@@@Z 0040d7f0 f i CrimsonWasteland2.obj
 0001:0000c910       ??$find@V?$_Vector_iterator@V?$_Vector_val@U?$_Simple_types@V?$basic_string@DU?$char_traits@D@std@@V?$allocator@D@2@@std@@@std@@@std@@@std@@V?$basic_string@DU?$char_traits@D@std@@V?$allocator@D@2@@2@@std@@YA?AV?$_Vector_iterator@V?$_Vector_val@U?$_Simple_types@V?$basic_string@DU?$char_traits@D@std@@V?$allocator@D@2@@std@@@std@@@std@@@0@V10@V10@ABV?$basic_string@DU?$char_traits@D@std@@V?$allocator@D@2@@0@@Z 0040d910 f i CrimsonWasteland2.obj
 0001:0000ca30       ??$forward@AAPAD@std@@YAAAPADAAPAD@Z 0040da30 f i CrimsonWasteland2.obj
 0001:0000ca40       ??$forward@AAPAU?$_Tree_node@U?$pair@$$CBV?$basic_string@DU?$char_traits@D@std@@V?$allocator@D@2@@std@@V?$shared_ptr@VRawImageData@@@2@@std@@PAX@std@@@std@@YAAAPAU?$_Tree_node@U?$pair@$$CBV?$basic_string@DU?$char_traits@D@std@@V?$allocator@D@2@@std@@V?$shared_ptr@VRawImageData@@@2@@std@@PAX@0@AAPAU10@@Z 0040da40 f i CrimsonWasteland2.obj
 0001:0000ca50       ??$forward@AAPAU?$_Tree_node@U?$pair@$$CBV?$basic_string@DU?$char_traits@D@std@@V?$allocator@D@2@@std@@V?$weak_ptr@VRawImageData@@@2@@std@@PAX@std@@@std@@YAAAPAU?$_Tree_node@U?$pair@$$CBV?$basic_string@DU?$char_traits@D@std@@V?$allocator@D@2@@std@@V?$weak_ptr@VRawImageData@@@2@@std@@PAX@0@AAPAU10@@Z 0040da50 f i CrimsonWasteland2.obj
 0001:0000ca60       ??$forward@AAV?$basic_string@DU?$char_traits@D@std@@V?$allocator@D@2@@std@@@std@@YAAAV?$basic_string@DU?$char_traits@D@std@@V?$allocator@D@2@@0@AAV10@@Z 0040da60 f i CrimsonWasteland2.obj
 0001:0000ca70       ??$forward@AAV?$shared_ptr@VRawImageData@@@std@@@std@@YAAAV?$shared_ptr@VRawImageData@@@0@AAV10@@Z 0040da70 f i CrimsonWasteland2.obj
 0001:0000ca80       ??$forward@AAV?$weak_ptr@VRawImageData@@@std@@@std@@YAAAV?$weak_ptr@VRawImageData@@@0@AAV10@@Z 0040da80 f i CrimsonWasteland2.obj
 0001:0000ca90       ??$forward@ABQAD@std@@YAABQADABQAD@Z 0040da90 f i CrimsonWasteland2.obj
 0001:0000caa0       ??$forward@ABQAU?$_Tree_node@U?$pair@$$CBV?$basic_string@DU?$char_traits@D@std@@V?$allocator@D@2@@std@@V?$shared_ptr@VRawImageData@@@2@@std@@PAX@std@@@std@@YAABQAU?$_Tree_node@U?$pair@$$CBV?$basic_string@DU?$char_traits@D@std@@V?$allocator@D@2@@std@@V?$shared_ptr@VRawImageData@@@2@@std@@PAX@0@ABQAU10@@Z 0040daa0 f i CrimsonWasteland2.obj
 0001:0000cab0       ??$forward@ABQAU?$_Tree_node@U?$pair@$$CBV?$basic_string@DU?$char_traits@D@std@@V?$allocator@D@2@@std@@V?$weak_ptr@VRawImageData@@@2@@std@@PAX@std@@@std@@YAABQAU?$_Tree_node@U?$pair@$$CBV?$basic_string@DU?$char_traits@D@std@@V?$allocator@D@2@@std@@V?$weak_ptr@VRawImageData@@@2@@std@@PAX@0@ABQAU10@@Z 0040dab0 f i CrimsonWasteland2.obj
 0001:0000cac0       ??$forward@ABU?$less@V?$basic_string@DU?$char_traits@D@std@@V?$allocator@D@2@@std@@@std@@@std@@YAABU?$less@V?$basic_string@DU?$char_traits@D@std@@V?$allocator@D@2@@std@@@0@ABU10@@Z 0040dac0 f i CrimsonWasteland2.obj
 0001:0000cad0       ??$forward@ABV?$allocator@V?$basic_string@DU?$char_traits@D@std@@V?$allocator@D@2@@std@@@std@@@std@@YAABV?$allocator@V?$basic_string@DU?$char_traits@D@std@@V?$allocator@D@2@@std@@@0@ABV10@@Z 0040dad0 f i CrimsonWasteland2.obj
 0001:0000cae0       ??$forward@ABV?$basic_string@DU?$char_traits@D@std@@V?$allocator@D@2@@std@@@std@@YAABV?$basic_string@DU?$char_traits@D@std@@V?$allocator@D@2@@0@ABV10@@Z 0040dae0 f i CrimsonWasteland2.obj
 0001:0000caf0       ??$forward@AB_N@std@@YAAB_NAB_N@Z 0040daf0 f i CrimsonWasteland2.obj
 0001:0000cb00       ??$forward@PAPAVDisplayableObject@@@std@@YA$$QAPAPAVDisplayableObject@@AAPAPAV1@@Z 0040db00 f i CrimsonWasteland2.obj
 0001:0000cb10       ??$forward@PAU?$_Tree_node@U?$pair@$$CBV?$basic_string@DU?$char_traits@D@std@@V?$allocator@D@2@@std@@V?$shared_ptr@VRawImageData@@@2@@std@@PAX@std@@@std@@YA$$QAPAU?$_Tree_node@U?$pair@$$CBV?$basic_string@DU?$char_traits@D@std@@V?$allocator@D@2@@std@@V?$shared_ptr@VRawImageData@@@2@@std@@PAX@0@AAPAU10@@Z 0040db10 f i CrimsonWasteland2.obj
 0001:0000cb20       ??$forward@PAU?$_Tree_node@U?$pair@$$CBV?$basic_string@DU?$char_traits@D@std@@V?$allocator@D@2@@std@@V?$weak_ptr@VRawImageData@@@2@@std@@PAX@std@@@std@@YA$$QAPAU?$_Tree_node@U?$pair@$$CBV?$basic_string@DU?$char_traits@D@std@@V?$allocator@D@2@@std@@V?$weak_ptr@VRawImageData@@@2@@std@@PAX@0@AAPAU10@@Z 0040db20 f i CrimsonWasteland2.obj
 0001:0000cb30       ??$forward@PAU_Container_base12@std@@@std@@YA$$QAPAU_Container_base12@0@AAPAU10@@Z 0040db30 f i CrimsonWasteland2.obj
 0001:0000cb40       ??$forward@PAV?$basic_string@DU?$char_traits@D@std@@V?$allocator@D@2@@std@@@std@@YA$$QAPAV?$basic_string@DU?$char_traits@D@std@@V?$allocator@D@2@@0@AAPAV10@@Z 0040db40 f i CrimsonWasteland2.obj
 0001:0000cb50       ??$forward@PAVDisplayableObject@@@std@@YA$$QAPAVDisplayableObject@@AAPAV1@@Z 0040db50 f i CrimsonWasteland2.obj
 0001:0000cb60       ??$forward@PBV?$basic_string@DU?$char_traits@D@std@@V?$allocator@D@2@@std@@@std@@YA$$QAPBV?$basic_string@DU?$char_traits@D@std@@V?$allocator@D@2@@0@AAPBV10@@Z 0040db60 f i CrimsonWasteland2.obj
 0001:0000cb70       ??$forward@U?$pair@V?$basic_string@DU?$char_traits@D@std@@V?$allocator@D@2@@std@@V?$shared_ptr@VRawImageData@@@2@@std@@@std@@YA$$QAU?$pair@V?$basic_string@DU?$char_traits@D@std@@V?$allocator@D@2@@std@@V?$shared_ptr@VRawImageData@@@2@@0@AAU10@@Z 0040db70 f i CrimsonWasteland2.obj
 0001:0000cb80       ??$forward@U?$pair@V?$basic_string@DU?$char_traits@D@std@@V?$allocator@D@2@@std@@V?$weak_ptr@VRawImageData@@@2@@std@@@std@@YA$$QAU?$pair@V?$basic_string@DU?$char_traits@D@std@@V?$allocator@D@2@@std@@V?$weak_ptr@VRawImageData@@@2@@0@AAU10@@Z 0040db80 f i CrimsonWasteland2.obj
 0001:0000cb90       ??$forward@U_Zero_then_variadic_args_t@std@@@std@@YA$$QAU_Zero_then_variadic_args_t@0@AAU10@@Z 0040db90 f i CrimsonWasteland2.obj
 0001:0000cba0       ??$forward@V?$_Tree_iterator@V?$_Tree_val@U?$_Tree_simple_types@U?$pair@$$CBV?$basic_string@DU?$char_traits@D@std@@V?$allocator@D@2@@std@@V?$shared_ptr@VRawImageData@@@2@@std@@@std@@@std@@@std@@@std@@YA$$QAV?$_Tree_iterator@V?$_Tree_val@U?$_Tree_simple_types@U?$pair@$$CBV?$basic_string@DU?$char_traits@D@std@@V?$allocator@D@2@@std@@V?$shared_ptr@VRawImageData@@@2@@std@@@std@@@std@@@0@AAV10@@Z 0040dba0 f i CrimsonWasteland2.obj
 0001:0000cbb0       ??$forward@V?$_Tree_iterator@V?$_Tree_val@U?$_Tree_simple_types@U?$pair@$$CBV?$basic_string@DU?$char_traits@D@std@@V?$allocator@D@2@@std@@V?$weak_ptr@VRawImageData@@@2@@std@@@std@@@std@@@std@@@std@@YA$$QAV?$_Tree_iterator@V?$_Tree_val@U?$_Tree_simple_types@U?$pair@$$CBV?$basic_string@DU?$char_traits@D@std@@V?$allocator@D@2@@std@@V?$weak_ptr@VRawImageData@@@2@@std@@@std@@@std@@@0@AAV10@@Z 0040dbb0 f i CrimsonWasteland2.obj
 0001:0000cbc0       ??$forward@V?$allocator@D@std@@@std@@YA$$QAV?$allocator@D@0@AAV10@@Z 0040dbc0 f i CrimsonWasteland2.obj
 0001:0000cbd0       ??$forward@V?$basic_string@DU?$char_traits@D@std@@V?$allocator@D@2@@std@@@std@@YA$$QAV?$basic_string@DU?$char_traits@D@std@@V?$allocator@D@2@@0@AAV10@@Z 0040dbd0 f i CrimsonWasteland2.obj
 0001:0000cbe0       ??$forward@V?$shared_ptr@VRawImageData@@@std@@@std@@YA$$QAV?$shared_ptr@VRawImageData@@@0@AAV10@@Z 0040dbe0 f i CrimsonWasteland2.obj
 0001:0000cbf0       ??$forward@V?$weak_ptr@VRawImageData@@@std@@@std@@YA$$QAV?$weak_ptr@VRawImageData@@@0@AAV10@@Z 0040dbf0 f i CrimsonWasteland2.obj
 0001:0000cc00       ??$forward@_N@std@@YA$$QA_NAA_N@Z 0040dc00 f i CrimsonWasteland2.obj
 0001:0000cc10       ??$insert@U?$pair@V?$basic_string@DU?$char_traits@D@std@@V?$allocator@D@2@@std@@V?$shared_ptr@VRawImageData@@@2@@std@@$0A@@?$map@V?$basic_string@DU?$char_traits@D@std@@V?$allocator@D@2@@std@@V?$shared_ptr@VRawImageData@@@2@U?$less@V?$basic_string@DU?$char_traits@D@std@@V?$allocator@D@2@@std@@@2@V?$allocator@U?$pair@$$CBV?$basic_string@DU?$char_traits@D@std@@V?$allocator@D@2@@std@@V?$shared_ptr@VRawImageData@@@2@@std@@@2@@std@@QAE?AU?$pair@V?$_Tree_iterator@V?$_Tree_val@U?$_Tree_simple_types@U?$pair@$$CBV?$basic_string@DU?$char_traits@D@std@@V?$allocator@D@2@@std@@V?$shared_ptr@VRawImageData@@@2@@std@@@std@@@std@@@std@@_N@1@$$QAU?$pair@V?$basic_string@DU?$char_traits@D@std@@V?$allocator@D@2@@std@@V?$shared_ptr@VRawImageData@@@2@@1@@Z 0040dc10 f i CrimsonWasteland2.obj
 0001:0000cc60       ??$insert@U?$pair@V?$basic_string@DU?$char_traits@D@std@@V?$allocator@D@2@@std@@V?$weak_ptr@VRawImageData@@@2@@std@@$0A@@?$map@V?$basic_string@DU?$char_traits@D@std@@V?$allocator@D@2@@std@@V?$weak_ptr@VRawImageData@@@2@U?$less@V?$basic_string@DU?$char_traits@D@std@@V?$allocator@D@2@@std@@@2@V?$allocator@U?$pair@$$CBV?$basic_string@DU?$char_traits@D@std@@V?$allocator@D@2@@std@@V?$weak_ptr@VRawImageData@@@2@@std@@@2@@std@@QAE?AU?$pair@V?$_Tree_iterator@V?$_Tree_val@U?$_Tree_simple_types@U?$pair@$$CBV?$basic_string@DU?$char_traits@D@std@@V?$allocator@D@2@@std@@V?$weak_ptr@VRawImageData@@@2@@std@@@std@@@std@@@std@@_N@1@$$QAU?$pair@V?$basic_string@DU?$char_traits@D@std@@V?$allocator@D@2@@std@@V?$weak_ptr@VRawImageData@@@2@@1@@Z 0040dc60 f i CrimsonWasteland2.obj
 0001:0000ccb0       ??$max@H@std@@YAABHABH0@Z  0040dcb0 f i CrimsonWasteland2.obj
 0001:0000ccf0       ??$max@I@std@@YAABIABI0@Z  0040dcf0 f i CrimsonWasteland2.obj
 0001:0000cd30       ??$min@H@std@@YAABHABH0@Z  0040dd30 f i CrimsonWasteland2.obj
 0001:0000cd70       ??$min@I@std@@YAABIABI0@Z  0040dd70 f i CrimsonWasteland2.obj
 0001:0000cdb0       ??$move@AAD@std@@YA$$QADAAD@Z 0040ddb0 f i CrimsonWasteland2.obj
 0001:0000cdc0       ??$move@AAPAVDisplayableObject@@@std@@YA$$QAPAVDisplayableObject@@AAPAV1@@Z 0040ddc0 f i CrimsonWasteland2.obj
 0001:0000cdd0       ??$move@AAPAVRawImageData@@@std@@YA$$QAPAVRawImageData@@AAPAV1@@Z 0040ddd0 f i CrimsonWasteland2.obj
 0001:0000cde0       ??$move@AAPAV_Ref_count_base@std@@@std@@YA$$QAPAV_Ref_count_base@0@AAPAV10@@Z 0040dde0 f i CrimsonWasteland2.obj
 0001:0000cdf0       ??$move@AAPBV?$basic_string@DU?$char_traits@D@std@@V?$allocator@D@2@@std@@@std@@YA$$QAPBV?$basic_string@DU?$char_traits@D@std@@V?$allocator@D@2@@0@AAPBV10@@Z 0040ddf0 f i CrimsonWasteland2.obj
 0001:0000ce00       ??$move@AAV?$allocator@D@std@@@std@@YA$$QAV?$allocator@D@0@AAV10@@Z 0040de00 f i CrimsonWasteland2.obj
 0001:0000ce10       ??$move@AAV?$basic_string@DU?$char_traits@D@std@@V?$allocator@D@2@@std@@@std@@YA$$QAV?$basic_string@DU?$char_traits@D@std@@V?$allocator@D@2@@0@AAV10@@Z 0040de10 f i CrimsonWasteland2.obj
 0001:0000ce20       ??$move@AAV?$shared_ptr@VRawImageData@@@std@@@std@@YA$$QAV?$shared_ptr@VRawImageData@@@0@AAV10@@Z 0040de20 f i CrimsonWasteland2.obj
 0001:0000ce30       ??$move@AAV?$weak_ptr@VRawImageData@@@std@@@std@@YA$$QAV?$weak_ptr@VRawImageData@@@0@AAV10@@Z 0040de30 f i CrimsonWasteland2.obj
 0001:0000ce40       ??$swap@D$0A@@std@@YAXAAD0@Z 0040de40 f i CrimsonWasteland2.obj
 0001:0000ce90       ??$swap@PAVRawImageData@@$0A@@std@@YAXAAPAVRawImageData@@0@Z 0040de90 f i CrimsonWasteland2.obj
 0001:0000cee0       ??$swap@PAV_Ref_count_base@std@@$0A@@std@@YAXAAPAV_Ref_count_base@0@0@Z 0040dee0 f i CrimsonWasteland2.obj
 0001:0000cf30       ??0?$_Alloc_construct_ptr@V?$allocator@U?$_Tree_node@U?$pair@$$CBV?$basic_string@DU?$char_traits@D@std@@V?$allocator@D@2@@std@@V?$shared_ptr@VRawImageData@@@2@@std@@PAX@std@@@std@@@std@@QAE@AAV?$allocator@U?$_Tree_node@U?$pair@$$CBV?$basic_string@DU?$char_traits@D@std@@V?$allocator@D@2@@std@@V?$shared_ptr@VRawImageData@@@2@@std@@PAX@std@@@1@@Z 0040df30 f i CrimsonWasteland2.obj
 0001:0000cf60       ??0?$_Alloc_construct_ptr@V?$allocator@U?$_Tree_node@U?$pair@$$CBV?$basic_string@DU?$char_traits@D@std@@V?$allocator@D@2@@std@@V?$weak_ptr@VRawImageData@@@2@@std@@PAX@std@@@std@@@std@@QAE@AAV?$allocator@U?$_Tree_node@U?$pair@$$CBV?$basic_string@DU?$char_traits@D@std@@V?$allocator@D@2@@std@@V?$weak_ptr@VRawImageData@@@2@@std@@PAX@std@@@1@@Z 0040df60 f i CrimsonWasteland2.obj
 0001:0000cf90       ??0?$_Container_proxy_ptr12@V?$allocator@U_Container_proxy@std@@@std@@@std@@QAE@AAV?$allocator@U_Container_proxy@std@@@1@AAU_Container_base12@1@@Z 0040df90 f i CrimsonWasteland2.obj
 0001:0000d010       ??0?$_Ptr_base@VRawImageData@@@std@@IAE@XZ 0040e010 f i CrimsonWasteland2.obj
 0001:0000d040       ??0?$_Ref_count@VRawImageData@@@std@@QAE@PAVRawImageData@@@Z 0040e040 f i CrimsonWasteland2.obj
 0001:0000d090       ??0?$_String_val@U?$_Simple_types@D@std@@@std@@QAE@XZ 0040e090 f i CrimsonWasteland2.obj
 0001:0000d0e0       ??0?$_Temporary_owner@VRawImageData@@@std@@QAE@QAVRawImageData@@@Z 0040e0e0 f i CrimsonWasteland2.obj
 0001:0000d100       ??0?$_Tree@V?$_Tmap_traits@V?$basic_string@DU?$char_traits@D@std@@V?$allocator@D@2@@std@@V?$shared_ptr@VRawImageData@@@2@U?$less@V?$basic_string@DU?$char_traits@D@std@@V?$allocator@D@2@@std@@@2@V?$allocator@U?$pair@$$CBV?$basic_string@DU?$char_traits@D@std@@V?$allocator@D@2@@std@@V?$shared_ptr@VRawImageData@@@2@@std@@@2@$0A@@std@@@std@@QAE@ABU?$less@V?$basic_string@DU?$char_traits@D@std@@V?$allocator@D@2@@std@@@1@@Z 0040e100 f i CrimsonWasteland2.obj
 0001:0000d140       ??0?$_Tree@V?$_Tmap_traits@V?$basic_string@DU?$char_traits@D@std@@V?$allocator@D@2@@std@@V?$weak_ptr@VRawImageData@@@2@U?$less@V?$basic_string@DU?$char_traits@D@std@@V?$allocator@D@2@@std@@@2@V?$allocator@U?$pair@$$CBV?$basic_string@DU?$char_traits@D@std@@V?$allocator@D@2@@std@@V?$weak_ptr@VRawImageData@@@2@@std@@@2@$0A@@std@@@std@@QAE@ABU?$less@V?$basic_string@DU?$char_traits@D@std@@V?$allocator@D@2@@std@@@1@@Z 0040e140 f i CrimsonWasteland2.obj
 0001:0000d180       ??0?$_Tree_const_iterator@V?$_Tree_val@U?$_Tree_simple_types@U?$pair@$$CBV?$basic_string@DU?$char_traits@D@std@@V?$allocator@D@2@@std@@V?$shared_ptr@VRawImageData@@@2@@std@@@std@@@std@@@std@@QAE@$$QAV01@@Z 0040e180 f i CrimsonWasteland2.obj
 0001:0000d1b0       ??0?$_Tree_const_iterator@V?$_Tree_val@U?$_Tree_simple_types@U?$pair@$$CBV?$basic_string@DU?$char_traits@D@std@@V?$allocator@D@2@@std@@V?$shared_ptr@VRawImageData@@@2@@std@@@std@@@std@@@std@@QAE@PAU?$_Tree_node@U?$pair@$$CBV?$basic_string@DU?$char_traits@D@std@@V?$allocator@D@2@@std@@V?$shared_ptr@VRawImageData@@@2@@std@@PAX@1@PBV?$_Tree_val@U?$_Tree_simple_types@U?$pair@$$CBV?$basic_string@DU?$char_traits@D@std@@V?$allocator@D@2@@std@@V?$shared_ptr@VRawImageData@@@2@@std@@@std@@@1@@Z 0040e1b0 f i CrimsonWasteland2.obj
 0001:0000d1e0       ??0?$_Tree_const_iterator@V?$_Tree_val@U?$_Tree_simple_types@U?$pair@$$CBV?$basic_string@DU?$char_traits@D@std@@V?$allocator@D@2@@std@@V?$weak_ptr@VRawImageData@@@2@@std@@@std@@@std@@@std@@QAE@$$QAV01@@Z 0040e1e0 f i CrimsonWasteland2.obj
 0001:0000d210       ??0?$_Tree_const_iterator@V?$_Tree_val@U?$_Tree_simple_types@U?$pair@$$CBV?$basic_string@DU?$char_traits@D@std@@V?$allocator@D@2@@std@@V?$weak_ptr@VRawImageData@@@2@@std@@@std@@@std@@@std@@QAE@ABV01@@Z 0040e210 f i CrimsonWasteland2.obj
 0001:0000d240       ??0?$_Tree_const_iterator@V?$_Tree_val@U?$_Tree_simple_types@U?$pair@$$CBV?$basic_string@DU?$char_traits@D@std@@V?$allocator@D@2@@std@@V?$weak_ptr@VRawImageData@@@2@@std@@@std@@@std@@@std@@QAE@PAU?$_Tree_node@U?$pair@$$CBV?$basic_string@DU?$char_traits@D@std@@V?$allocator@D@2@@std@@V?$weak_ptr@VRawImageData@@@2@@std@@PAX@1@PBV?$_Tree_val@U?$_Tree_simple_types@U?$pair@$$CBV?$basic_string@DU?$char_traits@D@std@@V?$allocator@D@2@@std@@V?$weak_ptr@VRawImageData@@@2@@std@@@std@@@1@@Z 0040e240 f i CrimsonWasteland2.obj
 0001:0000d270       ??0?$_Tree_iterator@V?$_Tree_val@U?$_Tree_simple_types@U?$pair@$$CBV?$basic_string@DU?$char_traits@D@std@@V?$allocator@D@2@@std@@V?$shared_ptr@VRawImageData@@@2@@std@@@std@@@std@@@std@@QAE@$$QAV01@@Z 0040e270 f i CrimsonWasteland2.obj
 0001:0000d2a0       ??0?$_Tree_iterator@V?$_Tree_val@U?$_Tree_simple_types@U?$pair@$$CBV?$basic_string@DU?$char_traits@D@std@@V?$allocator@D@2@@std@@V?$shared_ptr@VRawImageData@@@2@@std@@@std@@@std@@@std@@QAE@PAU?$_Tree_node@U?$pair@$$CBV?$basic_string@DU?$char_traits@D@std@@V?$allocator@D@2@@std@@V?$shared_ptr@VRawImageData@@@2@@std@@PAX@1@PBV?$_Tree_val@U?$_Tree_simple_types@U?$pair@$$CBV?$basic_string@DU?$char_traits@D@std@@V?$allocator@D@2@@std@@V?$shared_ptr@VRawImageData@@@2@@std@@@std@@@1@@Z 0040e2a0 f i CrimsonWasteland2.obj
 0001:0000d2d0       ??0?$_Tree_iterator@V?$_Tree_val@U?$_Tree_simple_types@U?$pair@$$CBV?$basic_string@DU?$char_traits@D@std@@V?$allocator@D@2@@std@@V?$weak_ptr@VRawImageData@@@2@@std@@@std@@@std@@@std@@QAE@$$QAV01@@Z 0040e2d0 f i CrimsonWasteland2.obj
 0001:0000d300       ??0?$_Tree_iterator@V?$_Tree_val@U?$_Tree_simple_types@U?$pair@$$CBV?$basic_string@DU?$char_traits@D@std@@V?$allocator@D@2@@std@@V?$weak_ptr@VRawImageData@@@2@@std@@@std@@@std@@@std@@QAE@ABV01@@Z 0040e300 f i CrimsonWasteland2.obj
 0001:0000d330       ??0?$_Tree_iterator@V?$_Tree_val@U?$_Tree_simple_types@U?$pair@$$CBV?$basic_string@DU?$char_traits@D@std@@V?$allocator@D@2@@std@@V?$weak_ptr@VRawImageData@@@2@@std@@@std@@@std@@@std@@QAE@PAU?$_Tree_node@U?$pair@$$CBV?$basic_string@DU?$char_traits@D@std@@V?$allocator@D@2@@std@@V?$weak_ptr@VRawImageData@@@2@@std@@PAX@1@PBV?$_Tree_val@U?$_Tree_simple_types@U?$pair@$$CBV?$basic_string@DU?$char_traits@D@std@@V?$allocator@D@2@@std@@V?$weak_ptr@VRawImageData@@@2@@std@@@std@@@1@@Z 0040e330 f i CrimsonWasteland2.obj
 0001:0000d360       ??0?$_Tree_temp_node_alloc@V?$allocator@U?$_Tree_node@U?$pair@$$CBV?$basic_string@DU?$char_traits@D@std@@V?$allocator@D@2@@std@@V?$shared_ptr@VRawImageData@@@2@@std@@PAX@std@@@std@@@std@@QAE@AAV?$allocator@U?$_Tree_node@U?$pair@$$CBV?$basic_string@DU?$char_traits@D@std@@V?$allocator@D@2@@std@@V?$shared_ptr@VRawImageData@@@2@@std@@PAX@std@@@1@@Z 0040e360 f i CrimsonWasteland2.obj
 0001:0000d3e0       ??0?$_Tree_temp_node_alloc@V?$allocator@U?$_Tree_node@U?$pair@$$CBV?$basic_string@DU?$char_traits@D@std@@V?$allocator@D@2@@std@@V?$weak_ptr@VRawImageData@@@2@@std@@PAX@std@@@std@@@std@@QAE@AAV?$allocator@U?$_Tree_node@U?$pair@$$CBV?$basic_string@DU?$char_traits@D@std@@V?$allocator@D@2@@std@@V?$weak_ptr@VRawImageData@@@2@@std@@PAX@std@@@1@@Z 0040e3e0 f i CrimsonWasteland2.obj
 0001:0000d460       ??0?$_Tree_unchecked_const_iterator@V?$_Tree_val@U?$_Tree_simple_types@U?$pair@$$CBV?$basic_string@DU?$char_traits@D@std@@V?$allocator@D@2@@std@@V?$shared_ptr@VRawImageData@@@2@@std@@@std@@@std@@U_Iterator_base12@2@@std@@QAE@$$QAV01@@Z 0040e460 f i CrimsonWasteland2.obj
 0001:0000d4a0       ??0?$_Tree_unchecked_const_iterator@V?$_Tree_val@U?$_Tree_simple_types@U?$pair@$$CBV?$basic_string@DU?$char_traits@D@std@@V?$allocator@D@2@@std@@V?$shared_ptr@VRawImageData@@@2@@std@@@std@@@std@@U_Iterator_base12@2@@std@@QAE@PAU?$_Tree_node@U?$pair@$$CBV?$basic_string@DU?$char_traits@D@std@@V?$allocator@D@2@@std@@V?$shared_ptr@VRawImageData@@@2@@std@@PAX@1@PBV?$_Tree_val@U?$_Tree_simple_types@U?$pair@$$CBV?$basic_string@DU?$char_traits@D@std@@V?$allocator@D@2@@std@@V?$shared_ptr@VRawImageData@@@2@@std@@@std@@@1@@Z 0040e4a0 f i CrimsonWasteland2.obj
 0001:0000d4e0       ??0?$_Tree_unchecked_const_iterator@V?$_Tree_val@U?$_Tree_simple_types@U?$pair@$$CBV?$basic_string@DU?$char_traits@D@std@@V?$allocator@D@2@@std@@V?$weak_ptr@VRawImageData@@@2@@std@@@std@@@std@@U_Iterator_base0@2@@std@@QAE@PAU?$_Tree_node@U?$pair@$$CBV?$basic_string@DU?$char_traits@D@std@@V?$allocator@D@2@@std@@V?$weak_ptr@VRawImageData@@@2@@std@@PAX@1@PBV?$_Tree_val@U?$_Tree_simple_types@U?$pair@$$CBV?$basic_string@DU?$char_traits@D@std@@V?$allocator@D@2@@std@@V?$weak_ptr@VRawImageData@@@2@@std@@@std@@@1@@Z 0040e4e0 f i CrimsonWasteland2.obj
 0001:0000d510       ??0?$_Tree_unchecked_const_iterator@V?$_Tree_val@U?$_Tree_simple_types@U?$pair@$$CBV?$basic_string@DU?$char_traits@D@std@@V?$allocator@D@2@@std@@V?$weak_ptr@VRawImageData@@@2@@std@@@std@@@std@@U_Iterator_base12@2@@std@@QAE@$$QAV01@@Z 0040e510 f i CrimsonWasteland2.obj
 0001:0000d550       ??0?$_Tree_unchecked_const_iterator@V?$_Tree_val@U?$_Tree_simple_types@U?$pair@$$CBV?$basic_string@DU?$char_traits@D@std@@V?$allocator@D@2@@std@@V?$weak_ptr@VRawImageData@@@2@@std@@@std@@@std@@U_Iterator_base12@2@@std@@QAE@ABV01@@Z 0040e550 f i CrimsonWasteland2.obj
 0001:0000d590       ??0?$_Tree_unchecked_const_iterator@V?$_Tree_val@U?$_Tree_simple_types@U?$pair@$$CBV?$basic_string@DU?$char_traits@D@std@@V?$allocator@D@2@@std@@V?$weak_ptr@VRawImageData@@@2@@std@@@std@@@std@@U_Iterator_base12@2@@std@@QAE@PAU?$_Tree_node@U?$pair@$$CBV?$basic_string@DU?$char_traits@D@std@@V?$allocator@D@2@@std@@V?$weak_ptr@VRawImageData@@@2@@std@@PAX@1@PBV?$_Tree_val@U?$_Tree_simple_types@U?$pair@$$CBV?$basic_string@DU?$char_traits@D@std@@V?$allocator@D@2@@std@@V?$weak_ptr@VRawImageData@@@2@@std@@@std@@@1@@Z 0040e590 f i CrimsonWasteland2.obj
 0001:0000d5d0       ??0?$_Tree_unchecked_iterator@V?$_Tree_val@U?$_Tree_simple_types@U?$pair@$$CBV?$basic_string@DU?$char_traits@D@std@@V?$allocator@D@2@@std@@V?$weak_ptr@VRawImageData@@@2@@std@@@std@@@std@@@std@@QAE@PAU?$_Tree_node@U?$pair@$$CBV?$basic_string@DU?$char_traits@D@std@@V?$allocator@D@2@@std@@V?$weak_ptr@VRawImageData@@@2@@std@@PAX@1@PBV?$_Tree_val@U?$_Tree_simple_types@U?$pair@$$CBV?$basic_string@DU?$char_traits@D@std@@V?$allocator@D@2@@std@@V?$weak_ptr@VRawImageData@@@2@@std@@@std@@@1@@Z 0040e5d0 f i CrimsonWasteland2.obj
 0001:0000d600       ??0?$_Tree_val@U?$_Tree_simple_types@U?$pair@$$CBV?$basic_string@DU?$char_traits@D@std@@V?$allocator@D@2@@std@@V?$shared_ptr@VRawImageData@@@2@@std@@@std@@@std@@QAE@XZ 0040e600 f i CrimsonWasteland2.obj
 0001:0000d640       ??0?$_Tree_val@U?$_Tree_simple_types@U?$pair@$$CBV?$basic_string@DU?$char_traits@D@std@@V?$allocator@D@2@@std@@V?$weak_ptr@VRawImageData@@@2@@std@@@std@@@std@@QAE@XZ 0040e640 f i CrimsonWasteland2.obj
 0001:0000d680       ??0?$_Uninitialized_backout_al@V?$allocator@PAVDisplayableObject@@@std@@@std@@QAE@PAPAVDisplayableObject@@AAV?$allocator@PAVDisplayableObject@@@1@@Z 0040e680 f i CrimsonWasteland2.obj
 0001:0000d6c0       ??0?$_Uninitialized_backout_al@V?$allocator@V?$basic_string@DU?$char_traits@D@std@@V?$allocator@D@2@@std@@@std@@@std@@QAE@PAV?$basic_string@DU?$char_traits@D@std@@V?$allocator@D@2@@1@AAV?$allocator@V?$basic_string@DU?$char_traits@D@std@@V?$allocator@D@2@@std@@@1@@Z 0040e6c0 f i CrimsonWasteland2.obj
 0001:0000d700       ??0?$_Vector_const_iterator@V?$_Vector_val@U?$_Simple_types@PAVDisplayableObject@@@std@@@std@@@std@@QAE@$$QAV01@@Z 0040e700 f i CrimsonWasteland2.obj
 0001:0000d740       ??0?$_Vector_const_iterator@V?$_Vector_val@U?$_Simple_types@PAVDisplayableObject@@@std@@@std@@@std@@QAE@ABV01@@Z 0040e740 f i CrimsonWasteland2.obj
 0001:0000d780       ??0?$_Vector_const_iterator@V?$_Vector_val@U?$_Simple_types@PAVDisplayableObject@@@std@@@std@@@std@@QAE@PAPAVDisplayableObject@@PBU_Container_base12@1@@Z 0040e780 f i CrimsonWasteland2.obj
 0001:0000d7c0       ??0?$_Vector_const_iterator@V?$_Vector_val@U?$_Simple_types@V?$basic_string@DU?$char_traits@D@std@@V?$allocator@D@2@@std@@@std@@@std@@@std@@QAE@$$QAV01@@Z 0040e7c0 f i CrimsonWasteland2.obj
 0001:0000d800       ??0?$_Vector_const_iterator@V?$_Vector_val@U?$_Simple_types@V?$basic_string@DU?$char_traits@D@std@@V?$allocator@D@2@@std@@@std@@@std@@@std@@QAE@PAV?$basic_string@DU?$char_traits@D@std@@V?$allocator@D@2@@1@PBU_Container_base12@1@@Z 0040e800 f i CrimsonWasteland2.obj
 0001:0000d840       ??0?$_Vector_iterator@V?$_Vector_val@U?$_Simple_types@PAVDisplayableObject@@@std@@@std@@@std@@QAE@$$QAV01@@Z 0040e840 f i CrimsonWasteland2.obj
 0001:0000d870       ??0?$_Vector_iterator@V?$_Vector_val@U?$_Simple_types@PAVDisplayableObject@@@std@@@std@@@std@@QAE@PAPAVDisplayableObject@@PBU_Container_base12@1@@Z 0040e870 f i CrimsonWasteland2.obj
 0001:0000d8a0       ??0?$_Vector_iterator@V?$_Vector_val@U?$_Simple_types@V?$basic_string@DU?$char_traits@D@std@@V?$allocator@D@2@@std@@@std@@@std@@@std@@QAE@$$QAV01@@Z 0040e8a0 f i CrimsonWasteland2.obj
 0001:0000d8d0       ??0?$_Vector_iterator@V?$_Vector_val@U?$_Simple_types@V?$basic_string@DU?$char_traits@D@std@@V?$allocator@D@2@@std@@@std@@@std@@@std@@QAE@PAV?$basic_string@DU?$char_traits@D@std@@V?$allocator@D@2@@1@PBU_Container_base12@1@@Z 0040e8d0 f i CrimsonWasteland2.obj
 0001:0000d900       ??0?$_Vector_val@U?$_Simple_types@V?$basic_string@DU?$char_traits@D@std@@V?$allocator@D@2@@std@@@std@@@std@@QAE@XZ 0040e900 f i CrimsonWasteland2.obj
 0001:0000d950       ??0?$allocator@D@std@@QAE@XZ 0040e950 f i CrimsonWasteland2.obj
 0001:0000d970       ??0?$allocator@U?$_Tree_node@U?$pair@$$CBV?$basic_string@DU?$char_traits@D@std@@V?$allocator@D@2@@std@@V?$shared_ptr@VRawImageData@@@2@@std@@PAX@std@@@std@@QAE@XZ 0040e970 f i CrimsonWasteland2.obj
 0001:0000d990       ??0?$allocator@U?$_Tree_node@U?$pair@$$CBV?$basic_string@DU?$char_traits@D@std@@V?$allocator@D@2@@std@@V?$weak_ptr@VRawImageData@@@2@@std@@PAX@std@@@std@@QAE@XZ 0040e990 f i CrimsonWasteland2.obj
 0001:0000d9b0       ??0?$allocator@V?$basic_string@DU?$char_traits@D@std@@V?$allocator@D@2@@std@@@std@@QAE@XZ 0040e9b0 f i CrimsonWasteland2.obj
 0001:0000d9d0       ??0?$basic_string@DU?$char_traits@D@std@@V?$allocator@D@2@@std@@QAE@$$QAV01@@Z 0040e9d0 f i CrimsonWasteland2.obj
 0001:0000da80       ??0?$basic_string@DU?$char_traits@D@std@@V?$allocator@D@2@@std@@QAE@ABV01@@Z 0040ea80 f i CrimsonWasteland2.obj
 0001:0000db30       ??0?$basic_string@DU?$char_traits@D@std@@V?$allocator@D@2@@std@@QAE@QBD@Z 0040eb30 f i CrimsonWasteland2.obj
 0001:0000dbd0       ??0?$basic_string@DU?$char_traits@D@std@@V?$allocator@D@2@@std@@QAE@U_String_constructor_concat_tag@1@ABV01@QBDI2I@Z 0040ebd0 f i CrimsonWasteland2.obj
 0001:0000ddb0       ??0?$initializer_list@V?$basic_string@DU?$char_traits@D@std@@V?$allocator@D@2@@std@@@std@@QAE@PBV?$basic_string@DU?$char_traits@D@std@@V?$allocator@D@2@@1@0@Z 0040edb0 f i CrimsonWasteland2.obj
 0001:0000dde0       ??0?$map@V?$basic_string@DU?$char_traits@D@std@@V?$allocator@D@2@@std@@V?$shared_ptr@VRawImageData@@@2@U?$less@V?$basic_string@DU?$char_traits@D@std@@V?$allocator@D@2@@std@@@2@V?$allocator@U?$pair@$$CBV?$basic_string@DU?$char_traits@D@std@@V?$allocator@D@2@@std@@V?$shared_ptr@VRawImageData@@@2@@std@@@2@@std@@QAE@XZ 0040ede0 f i CrimsonWasteland2.obj
 0001:0000de10       ??0?$map@V?$basic_string@DU?$char_traits@D@std@@V?$allocator@D@2@@std@@V?$weak_ptr@VRawImageData@@@2@U?$less@V?$basic_string@DU?$char_traits@D@std@@V?$allocator@D@2@@std@@@2@V?$allocator@U?$pair@$$CBV?$basic_string@DU?$char_traits@D@std@@V?$allocator@D@2@@std@@V?$weak_ptr@VRawImageData@@@2@@std@@@2@@std@@QAE@XZ 0040ee10 f i CrimsonWasteland2.obj
 0001:0000de40       ??0?$shared_ptr@VRawImageData@@@std@@QAE@$$QAV01@@Z 0040ee40 f i CrimsonWasteland2.obj
 0001:0000de80       ??0?$shared_ptr@VRawImageData@@@std@@QAE@$$T@Z 0040ee80 f i CrimsonWasteland2.obj
 0001:0000dea0       ??0?$shared_ptr@VRawImageData@@@std@@QAE@ABV01@@Z 0040eea0 f i CrimsonWasteland2.obj
 0001:0000ded0       ??0?$shared_ptr@VRawImageData@@@std@@QAE@XZ 0040eed0 f i CrimsonWasteland2.obj
 0001:0000def0       ??0?$vector@V?$basic_string@DU?$char_traits@D@std@@V?$allocator@D@2@@std@@V?$allocator@V?$basic_string@DU?$char_traits@D@std@@V?$allocator@D@2@@std@@@2@@std@@QAE@V?$initializer_list@V?$basic_string@DU?$char_traits@D@std@@V?$allocator@D@2@@std@@@1@ABV?$allocator@V?$basic_string@DU?$char_traits@D@std@@V?$allocator@D@2@@std@@@1@@Z 0040eef0 f i CrimsonWasteland2.obj
 0001:0000df70       ??0?$weak_ptr@VRawImageData@@@std@@QAE@$$QAV01@@Z 0040ef70 f i CrimsonWasteland2.obj
 0001:0000dfb0       ??0?$weak_ptr@VRawImageData@@@std@@QAE@ABV01@@Z 0040efb0 f i CrimsonWasteland2.obj
 0001:0000dfe0       ??0Bullet@@QAE@PAVBaseEngine@@HHV?$basic_string@DU?$char_traits@D@std@@V?$allocator@D@2@@std@@@Z 0040efe0 f i CrimsonWasteland2.obj
 0001:0000e0d0       ??0ClickableImageObject@@QAE@PAVBaseEngine@@V?$basic_string@DU?$char_traits@D@std@@V?$allocator@D@2@@std@@HH_N@Z 0040f0d0 f i CrimsonWasteland2.obj
 0001:0000e260       ??0CrimsonWasteland2TileManager@@QAE@XZ 0040f260 f i CrimsonWasteland2.obj
 0001:0000e5c0       ??0FilterPoints@@QAE@XZ    0040f5c0 f i CrimsonWasteland2.obj
 0001:0000e5e0       ??0FilterPointsScaling@@QAE@HHPAVFilterPoints@@@Z 0040f5e0 f i CrimsonWasteland2.obj
 0001:0000e660       ??0FilterPointsTranslation@@QAE@HHPAVFilterPoints@@@Z 0040f660 f i CrimsonWasteland2.obj
 0001:0000e6b0       ??0ImageManager@@QAE@XZ    0040f6b0 f i CrimsonWasteland2.obj
 0001:0000e720       ??0ImageObject@@QAE@PAVBaseEngine@@V?$basic_string@DU?$char_traits@D@std@@V?$allocator@D@2@@std@@HH_N@Z 0040f720 f i CrimsonWasteland2.obj
 0001:0000e8b0       ??0ImagePixelMapping@@QAE@XZ 0040f8b0 f i CrimsonWasteland2.obj
 0001:0000e8d0       ??0ImagePixelMappingRotate@@QAE@N@Z 0040f8d0 f i CrimsonWasteland2.obj
 0001:0000e910       ??0ImagePixelMappingShiftXY@@QAE@NN@Z 0040f910 f i CrimsonWasteland2.obj
 0001:0000e960       ??0Lives@@QAE@PAVBaseEngine@@PAVCrimsonWasteland2@@H@Z 0040f960 f i CrimsonWasteland2.obj
 0001:0000eb20       ??0MovementPosition@@QAE@XZ 0040fb20 f i CrimsonWasteland2.obj
 0001:0000eba0       ??0Player@@QAE@PAVBaseEngine@@HH_N@Z 0040fba0 f i CrimsonWasteland2.obj
 0001:0000ecf0       ??0RawImageData@@QAE@V?$basic_string@DU?$char_traits@D@std@@V?$allocator@D@2@@std@@@Z 0040fcf0 f i CrimsonWasteland2.obj
 0001:0000eda0       ??0SimpleImage@@QAE@ABV0@@Z 0040fda0 f i CrimsonWasteland2.obj
 0001:0000edf0       ??0TextBoxObject@@QAE@PAVBaseEngine@@HH@Z 0040fdf0 f i CrimsonWasteland2.obj
 0001:0000eed0       ??0TileManager@@QAE@HH@Z   0040fed0 f i CrimsonWasteland2.obj
 0001:0000ef50       ??0Zombie@@QAE@PAVBaseEngine@@PAVPlayer@@HH_N@Z 0040ff50 f i CrimsonWasteland2.obj
 0001:0000f050       ??0_Basic_container_proxy_ptr12@std@@IAE@XZ 00410050 f i CrimsonWasteland2.obj
 0001:0000f070       ??0_Bxty@?$_String_val@U?$_Simple_types@D@std@@@std@@QAE@XZ 00410070 f i CrimsonWasteland2.obj
 0001:0000f0a0       ??0_Container_base12@std@@QAE@XZ 004100a0 f i CrimsonWasteland2.obj
 0001:0000f0c0       ??0_Container_proxy@std@@QAE@PAU_Container_base12@1@@Z 004100c0 f i CrimsonWasteland2.obj
 0001:0000f0f0       ??0_Iterator_base12@std@@QAE@ABU01@@Z 004100f0 f i CrimsonWasteland2.obj
 0001:0000f130       ??0_Iterator_base12@std@@QAE@XZ 00410130 f i CrimsonWasteland2.obj
 0001:0000f160       ??0_Ref_count_base@std@@IAE@XZ 00410160 f i CrimsonWasteland2.obj
 0001:0000f190       ??0_Sentry_base@?$basic_ostream@DU?$char_traits@D@std@@@std@@QAE@AAV12@@Z 00410190 f i CrimsonWasteland2.obj
 0001:0000f1f0       ??0bad_alloc@std@@AAE@QBD@Z 004101f0 f i CrimsonWasteland2.obj
 0001:0000f220       ??0bad_alloc@std@@QAE@ABV01@@Z 00410220 f i CrimsonWasteland2.obj
 0001:0000f250       ??0bad_array_new_length@std@@QAE@ABV01@@Z 00410250 f i CrimsonWasteland2.obj
 0001:0000f280       ??0bad_array_new_length@std@@QAE@XZ 00410280 f i CrimsonWasteland2.obj
 0001:0000f2b0       ??0exception@std@@QAE@ABV01@@Z 004102b0 f i CrimsonWasteland2.obj
 0001:0000f300       ??0exception@std@@QAE@QBDH@Z 00410300 f i CrimsonWasteland2.obj
 0001:0000f340       ??0sentry@?$basic_ostream@DU?$char_traits@D@std@@@std@@QAE@AAV12@@Z 00410340 f i CrimsonWasteland2.obj
 0001:0000f440       ??1?$_Alloc_construct_ptr@V?$allocator@U?$_Tree_node@U?$pair@$$CBV?$basic_string@DU?$char_traits@D@std@@V?$allocator@D@2@@std@@V?$shared_ptr@VRawImageData@@@2@@std@@PAX@std@@@std@@@std@@QAE@XZ 00410440 f i CrimsonWasteland2.obj
 0001:0000f4b0       ??1?$_Alloc_construct_ptr@V?$allocator@U?$_Tree_node@U?$pair@$$CBV?$basic_string@DU?$char_traits@D@std@@V?$allocator@D@2@@std@@V?$weak_ptr@VRawImageData@@@2@@std@@PAX@std@@@std@@@std@@QAE@XZ 004104b0 f i CrimsonWasteland2.obj
 0001:0000f520       ??1?$_Compressed_pair@V?$allocator@D@std@@V?$_String_val@U?$_Simple_types@D@std@@@2@$00@std@@QAE@XZ 00410520 f i CrimsonWasteland2.obj
 0001:0000f540       ??1?$_Container_proxy_ptr12@V?$allocator@U_Container_proxy@std@@@std@@@std@@QAE@XZ 00410540 f i CrimsonWasteland2.obj
 0001:0000f580       ??1?$_Ref_count@VRawImageData@@@std@@UAE@XZ 00410580 f i CrimsonWasteland2.obj
 0001:0000f5a0       ??1?$_String_val@U?$_Simple_types@D@std@@@std@@QAE@XZ 004105a0 f i CrimsonWasteland2.obj
 0001:0000f5c0       ??1?$_Temporary_owner@VRawImageData@@@std@@QAE@XZ 004105c0 f i CrimsonWasteland2.obj
 0001:0000f600       ??1?$_Tidy_guard@V?$vector@V?$basic_string@DU?$char_traits@D@std@@V?$allocator@D@2@@std@@V?$allocator@V?$basic_string@DU?$char_traits@D@std@@V?$allocator@D@2@@std@@@2@@std@@@std@@QAE@XZ 00410600 f i CrimsonWasteland2.obj
 0001:0000f630       ??1?$_Tree@V?$_Tmap_traits@V?$basic_string@DU?$char_traits@D@std@@V?$allocator@D@2@@std@@V?$weak_ptr@VRawImageData@@@2@U?$less@V?$basic_string@DU?$char_traits@D@std@@V?$allocator@D@2@@std@@@2@V?$allocator@U?$pair@$$CBV?$basic_string@DU?$char_traits@D@std@@V?$allocator@D@2@@std@@V?$weak_ptr@VRawImageData@@@2@@std@@@2@$0A@@std@@@std@@QAE@XZ 00410630 f i CrimsonWasteland2.obj
 0001:0000f6a0       ??1?$_Tree_const_iterator@V?$_Tree_val@U?$_Tree_simple_types@U?$pair@$$CBV?$basic_string@DU?$char_traits@D@std@@V?$allocator@D@2@@std@@V?$shared_ptr@VRawImageData@@@2@@std@@@std@@@std@@@std@@QAE@XZ 004106a0 f i CrimsonWasteland2.obj
 0001:0000f6c0       ??1?$_Tree_const_iterator@V?$_Tree_val@U?$_Tree_simple_types@U?$pair@$$CBV?$basic_string@DU?$char_traits@D@std@@V?$allocator@D@2@@std@@V?$weak_ptr@VRawImageData@@@2@@std@@@std@@@std@@@std@@QAE@XZ 004106c0 f i CrimsonWasteland2.obj
 0001:0000f6e0       ??1?$_Tree_iterator@V?$_Tree_val@U?$_Tree_simple_types@U?$pair@$$CBV?$basic_string@DU?$char_traits@D@std@@V?$allocator@D@2@@std@@V?$shared_ptr@VRawImageData@@@2@@std@@@std@@@std@@@std@@QAE@XZ 004106e0 f i CrimsonWasteland2.obj
 0001:0000f700       ??1?$_Tree_iterator@V?$_Tree_val@U?$_Tree_simple_types@U?$pair@$$CBV?$basic_string@DU?$char_traits@D@std@@V?$allocator@D@2@@std@@V?$weak_ptr@VRawImageData@@@2@@std@@@std@@@std@@@std@@QAE@XZ 00410700 f i CrimsonWasteland2.obj
 0001:0000f720       ??1?$_Tree_temp_node@V?$allocator@U?$_Tree_node@U?$pair@$$CBV?$basic_string@DU?$char_traits@D@std@@V?$allocator@D@2@@std@@V?$shared_ptr@VRawImageData@@@2@@std@@PAX@std@@@std@@@std@@QAE@XZ 00410720 f i CrimsonWasteland2.obj
 0001:0000f7f0       ??1?$_Tree_temp_node@V?$allocator@U?$_Tree_node@U?$pair@$$CBV?$basic_string@DU?$char_traits@D@std@@V?$allocator@D@2@@std@@V?$weak_ptr@VRawImageData@@@2@@std@@PAX@std@@@std@@@std@@QAE@XZ 004107f0 f i CrimsonWasteland2.obj
 0001:0000f8c0       ??1?$_Tree_temp_node_alloc@V?$allocator@U?$_Tree_node@U?$pair@$$CBV?$basic_string@DU?$char_traits@D@std@@V?$allocator@D@2@@std@@V?$shared_ptr@VRawImageData@@@2@@std@@PAX@std@@@std@@@std@@QAE@XZ 004108c0 f i CrimsonWasteland2.obj
 0001:0000f8e0       ??1?$_Tree_temp_node_alloc@V?$allocator@U?$_Tree_node@U?$pair@$$CBV?$basic_string@DU?$char_traits@D@std@@V?$allocator@D@2@@std@@V?$weak_ptr@VRawImageData@@@2@@std@@PAX@std@@@std@@@std@@QAE@XZ 004108e0 f i CrimsonWasteland2.obj
 0001:0000f900       ??1?$_Tree_unchecked_const_iterator@V?$_Tree_val@U?$_Tree_simple_types@U?$pair@$$CBV?$basic_string@DU?$char_traits@D@std@@V?$allocator@D@2@@std@@V?$shared_ptr@VRawImageData@@@2@@std@@@std@@@std@@U_Iterator_base12@2@@std@@QAE@XZ 00410900 f i CrimsonWasteland2.obj
 0001:0000f920       ??1?$_Tree_unchecked_const_iterator@V?$_Tree_val@U?$_Tree_simple_types@U?$pair@$$CBV?$basic_string@DU?$char_traits@D@std@@V?$allocator@D@2@@std@@V?$weak_ptr@VRawImageData@@@2@@std@@@std@@@std@@U_Iterator_base12@2@@std@@QAE@XZ 00410920 f i CrimsonWasteland2.obj
 0001:0000f940       ??1?$_Uninitialized_backout_al@V?$allocator@PAVDisplayableObject@@@std@@@std@@QAE@XZ 00410940 f i CrimsonWasteland2.obj
 0001:0000f970       ??1?$_Uninitialized_backout_al@V?$allocator@V?$basic_string@DU?$char_traits@D@std@@V?$allocator@D@2@@std@@@std@@@std@@QAE@XZ 00410970 f i CrimsonWasteland2.obj
 0001:0000f9a0       ??1?$_Vector_const_iterator@V?$_Vector_val@U?$_Simple_types@PAVDisplayableObject@@@std@@@std@@@std@@QAE@XZ 004109a0 f i CrimsonWasteland2.obj
 0001:0000f9c0       ??1?$_Vector_const_iterator@V?$_Vector_val@U?$_Simple_types@V?$basic_string@DU?$char_traits@D@std@@V?$allocator@D@2@@std@@@std@@@std@@@std@@QAE@XZ 004109c0 f i CrimsonWasteland2.obj
 0001:0000f9e0       ??1?$_Vector_iterator@V?$_Vector_val@U?$_Simple_types@PAVDisplayableObject@@@std@@@std@@@std@@QAE@XZ 004109e0 f i CrimsonWasteland2.obj
 0001:0000fa00       ??1?$_Vector_iterator@V?$_Vector_val@U?$_Simple_types@V?$basic_string@DU?$char_traits@D@std@@V?$allocator@D@2@@std@@@std@@@std@@@std@@QAE@XZ 00410a00 f i CrimsonWasteland2.obj
 0001:0000fa20       ??1?$basic_string@DU?$char_traits@D@std@@V?$allocator@D@2@@std@@QAE@XZ 00410a20 f i CrimsonWasteland2.obj
 0001:0000fa90       ??1?$map@V?$basic_string@DU?$char_traits@D@std@@V?$allocator@D@2@@std@@V?$weak_ptr@VRawImageData@@@2@U?$less@V?$basic_string@DU?$char_traits@D@std@@V?$allocator@D@2@@std@@@2@V?$allocator@U?$pair@$$CBV?$basic_string@DU?$char_traits@D@std@@V?$allocator@D@2@@std@@V?$weak_ptr@VRawImageData@@@2@@std@@@2@@std@@QAE@XZ 00410a90 f i CrimsonWasteland2.obj
 0001:0000fab0       ??1?$pair@$$CBV?$basic_string@DU?$char_traits@D@std@@V?$allocator@D@2@@std@@V?$shared_ptr@VRawImageData@@@2@@std@@QAE@XZ 00410ab0 f i CrimsonWasteland2.obj
 0001:0000fae0       ??1?$pair@$$CBV?$basic_string@DU?$char_traits@D@std@@V?$allocator@D@2@@std@@V?$weak_ptr@VRawImageData@@@2@@std@@QAE@XZ 00410ae0 f i CrimsonWasteland2.obj
 0001:0000fb10       ??1?$pair@V?$_Tree_iterator@V?$_Tree_val@U?$_Tree_simple_types@U?$pair@$$CBV?$basic_string@DU?$char_traits@D@std@@V?$allocator@D@2@@std@@V?$shared_ptr@VRawImageData@@@2@@std@@@std@@@std@@@std@@_N@std@@QAE@XZ 00410b10 f i CrimsonWasteland2.obj
 0001:0000fb30       ??1?$pair@V?$_Tree_iterator@V?$_Tree_val@U?$_Tree_simple_types@U?$pair@$$CBV?$basic_string@DU?$char_traits@D@std@@V?$allocator@D@2@@std@@V?$weak_ptr@VRawImageData@@@2@@std@@@std@@@std@@@std@@_N@std@@QAE@XZ 00410b30 f i CrimsonWasteland2.obj
 0001:0000fb50       ??1?$pair@V?$basic_string@DU?$char_traits@D@std@@V?$allocator@D@2@@std@@V?$shared_ptr@VRawImageData@@@2@@std@@QAE@XZ 00410b50 f i CrimsonWasteland2.obj
 0001:0000fb80       ??1?$pair@V?$basic_string@DU?$char_traits@D@std@@V?$allocator@D@2@@std@@V?$weak_ptr@VRawImageData@@@2@@std@@QAE@XZ 00410b80 f i CrimsonWasteland2.obj
 0001:0000fbb0       ??1?$shared_ptr@VRawImageData@@@std@@QAE@XZ 00410bb0 f i CrimsonWasteland2.obj
 0001:0000fbd0       ??1?$vector@V?$basic_string@DU?$char_traits@D@std@@V?$allocator@D@2@@std@@V?$allocator@V?$basic_string@DU?$char_traits@D@std@@V?$allocator@D@2@@std@@@2@@std@@QAE@XZ 00410bd0 f i CrimsonWasteland2.obj
 0001:0000fc40       ??1?$weak_ptr@VRawImageData@@@std@@QAE@XZ 00410c40 f i CrimsonWasteland2.obj
 0001:0000fc60       ??1Bullet@@UAE@XZ          00410c60 f i CrimsonWasteland2.obj
 0001:0000fc90       ??1ClickableImageObject@@UAE@XZ 00410c90 f i CrimsonWasteland2.obj
 0001:0000fcc0       ??1CrimsonWasteland2TileManager@@UAE@XZ 00410cc0 f i CrimsonWasteland2.obj
 0001:0000fd50       ??1ImageObject@@UAE@XZ     00410d50 f i CrimsonWasteland2.obj
 0001:0000fd80       ??1Lives@@UAE@XZ           00410d80 f i CrimsonWasteland2.obj
 0001:0000fdc0       ??1Player@@UAE@XZ          00410dc0 f i CrimsonWasteland2.obj
 0001:0000fdf0       ??1RawImageData@@QAE@XZ    00410df0 f i CrimsonWasteland2.obj
 0001:0000fe50       ??1SimpleImage@@QAE@XZ     00410e50 f i CrimsonWasteland2.obj
 0001:0000fea0       ??1TextBoxObject@@UAE@XZ   00410ea0 f i CrimsonWasteland2.obj
 0001:0000fed0       ??1TileManager@@UAE@XZ     00410ed0 f i CrimsonWasteland2.obj
 0001:0000ff20       ??1Zombie@@UAE@XZ          00410f20 f i CrimsonWasteland2.obj
 0001:0000ff40       ??1_Bxty@?$_String_val@U?$_Simple_types@D@std@@@std@@QAE@XZ 00410f40 f i CrimsonWasteland2.obj
 0001:0000ff50       ??1_Iterator_base12@std@@QAE@XZ 00410f50 f i CrimsonWasteland2.obj
 0001:0000ff70       ??1_Ref_count_base@std@@UAE@XZ 00410f70 f i CrimsonWasteland2.obj
 0001:0000ff80       ??1_Sentry_base@?$basic_ostream@DU?$char_traits@D@std@@@std@@QAE@XZ 00410f80 f i CrimsonWasteland2.obj
 0001:00010010       ??1bad_alloc@std@@UAE@XZ   00411010 f i CrimsonWasteland2.obj
 0001:00010030       ??1bad_array_new_length@std@@UAE@XZ 00411030 f i CrimsonWasteland2.obj
 0001:00010050       ??1exception@std@@UAE@XZ   00411050 f i CrimsonWasteland2.obj
 0001:00010080       ??1sentry@?$basic_ostream@DU?$char_traits@D@std@@@std@@QAE@XZ 00411080 f i CrimsonWasteland2.obj
 0001:000100e0       ??2@YAPAXIPAX@Z            004110e0 f i CrimsonWasteland2.obj
 0001:000100f0       ??4?$basic_string@DU?$char_traits@D@std@@V?$allocator@D@2@@std@@QAEAAV01@ABV01@@Z 004110f0 f i CrimsonWasteland2.obj
 0001:00010170       ??4?$basic_string@DU?$char_traits@D@std@@V?$allocator@D@2@@std@@QAEAAV01@QBD@Z 00411170 f i CrimsonWasteland2.obj
 0001:00010190       ??4?$shared_ptr@VRawImageData@@@std@@QAEAAV01@ABV01@@Z 00411190 f i CrimsonWasteland2.obj
 0001:000101d0       ??4SimpleImage@@QAEAAV0@ABV0@@Z 004111d0 f i CrimsonWasteland2.obj
 0001:00010220       ??4_Iterator_base12@std@@QAEAAU01@ABU01@@Z 00411220 f i CrimsonWasteland2.obj
 0001:00010250       ??8?$_Tree_const_iterator@V?$_Tree_val@U?$_Tree_simple_types@U?$pair@$$CBV?$basic_string@DU?$char_traits@D@std@@V?$allocator@D@2@@std@@V?$weak_ptr@VRawImageData@@@2@@std@@@std@@@std@@@std@@QBE_NABV01@@Z 00411250 f i CrimsonWasteland2.obj
 0001:00010310       ??8?$_Vector_const_iterator@V?$_Vector_val@U?$_Simple_types@PAVDisplayableObject@@@std@@@std@@@std@@QBE_NABV01@@Z 00411310 f i CrimsonWasteland2.obj
 0001:00010360       ??8?$_Vector_const_iterator@V?$_Vector_val@U?$_Simple_types@V?$basic_string@DU?$char_traits@D@std@@V?$allocator@D@2@@std@@@std@@@std@@@std@@QBE_NABV01@@Z 00411360 f i CrimsonWasteland2.obj
 0001:000103b0       ??9?$_Tree_const_iterator@V?$_Tree_val@U?$_Tree_simple_types@U?$pair@$$CBV?$basic_string@DU?$char_traits@D@std@@V?$allocator@D@2@@std@@V?$weak_ptr@VRawImageData@@@2@@std@@@std@@@std@@@std@@QBE_NABV01@@Z 004113b0 f i CrimsonWasteland2.obj
 0001:00010400       ??9?$_Vector_const_iterator@V?$_Vector_val@U?$_Simple_types@PAVDisplayableObject@@@std@@@std@@@std@@QBE_NABV01@@Z 00411400 f i CrimsonWasteland2.obj
 0001:00010450       ??9?$_Vector_const_iterator@V?$_Vector_val@U?$_Simple_types@V?$basic_string@DU?$char_traits@D@std@@V?$allocator@D@2@@std@@@std@@@std@@@std@@QBE_NABV01@@Z 00411450 f i CrimsonWasteland2.obj
 0001:000104a0       ??A?$vector@PAVDisplayableObject@@V?$allocator@PAVDisplayableObject@@@std@@@std@@QAEAAPAVDisplayableObject@@I@Z 004114a0 f i CrimsonWasteland2.obj
 0001:00010550       ??Bsentry@?$basic_ostream@DU?$char_traits@D@std@@@std@@QBE_NXZ 00411550 f i CrimsonWasteland2.obj
 0001:00010570       ??C?$_Tree_iterator@V?$_Tree_val@U?$_Tree_simple_types@U?$pair@$$CBV?$basic_string@DU?$char_traits@D@std@@V?$allocator@D@2@@std@@V?$weak_ptr@VRawImageData@@@2@@std@@@std@@@std@@@std@@QBEPAU?$pair@$$CBV?$basic_string@DU?$char_traits@D@std@@V?$allocator@D@2@@std@@V?$weak_ptr@VRawImageData@@@2@@1@XZ 00411570 f i CrimsonWasteland2.obj
 0001:000105a0       ??D?$_Tree_const_iterator@V?$_Tree_val@U?$_Tree_simple_types@U?$pair@$$CBV?$basic_string@DU?$char_traits@D@std@@V?$allocator@D@2@@std@@V?$weak_ptr@VRawImageData@@@2@@std@@@std@@@std@@@std@@QBEABU?$pair@$$CBV?$basic_string@DU?$char_traits@D@std@@V?$allocator@D@2@@std@@V?$weak_ptr@VRawImageData@@@2@@1@XZ 004115a0 f i CrimsonWasteland2.obj
 0001:000106b0       ??D?$_Tree_iterator@V?$_Tree_val@U?$_Tree_simple_types@U?$pair@$$CBV?$basic_string@DU?$char_traits@D@std@@V?$allocator@D@2@@std@@V?$weak_ptr@VRawImageData@@@2@@std@@@std@@@std@@@std@@QBEAAU?$pair@$$CBV?$basic_string@DU?$char_traits@D@std@@V?$allocator@D@2@@std@@V?$weak_ptr@VRawImageData@@@2@@1@XZ 004116b0 f i CrimsonWasteland2.obj
 0001:000106d0       ??D?$_Vector_const_iterator@V?$_Vector_val@U?$_Simple_types@PAVDisplayableObject@@@std@@@std@@@std@@QBEABQAVDisplayableObject@@XZ 004116d0 f i CrimsonWasteland2.obj
 0001:00010840       ??D?$_Vector_const_iterator@V?$_Vector_val@U?$_Simple_types@V?$basic_string@DU?$char_traits@D@std@@V?$allocator@D@2@@std@@@std@@@std@@@std@@QBEABV?$basic_string@DU?$char_traits@D@std@@V?$allocator@D@2@@1@XZ 00411840 f i CrimsonWasteland2.obj
 0001:000109b0       ??D?$_Vector_iterator@V?$_Vector_val@U?$_Simple_types@V?$basic_string@DU?$char_traits@D@std@@V?$allocator@D@2@@std@@@std@@@std@@@std@@QBEAAV?$basic_string@DU?$char_traits@D@std@@V?$allocator@D@2@@1@XZ 004119b0 f i CrimsonWasteland2.obj
 0001:000109d0       ??E?$_Tree_unchecked_const_iterator@V?$_Tree_val@U?$_Tree_simple_types@U?$pair@$$CBV?$basic_string@DU?$char_traits@D@std@@V?$allocator@D@2@@std@@V?$weak_ptr@VRawImageData@@@2@@std@@@std@@@std@@U_Iterator_base0@2@@std@@QAEAAV01@XZ 004119d0 f i CrimsonWasteland2.obj
 0001:00010a60       ??E?$_Vector_const_iterator@V?$_Vector_val@U?$_Simple_types@PAVDisplayableObject@@@std@@@std@@@std@@QAE?AV01@H@Z 00411a60 f i CrimsonWasteland2.obj
 0001:00010ab0       ??E?$_Vector_const_iterator@V?$_Vector_val@U?$_Simple_types@PAVDisplayableObject@@@std@@@std@@@std@@QAEAAV01@XZ 00411ab0 f i CrimsonWasteland2.obj
 0001:00010c20       ??E?$_Vector_const_iterator@V?$_Vector_val@U?$_Simple_types@V?$basic_string@DU?$char_traits@D@std@@V?$allocator@D@2@@std@@@std@@@std@@@std@@QAEAAV01@XZ 00411c20 f i CrimsonWasteland2.obj
 0001:00010d90       ??E?$_Vector_iterator@V?$_Vector_val@U?$_Simple_types@V?$basic_string@DU?$char_traits@D@std@@V?$allocator@D@2@@std@@@std@@@std@@@std@@QAEAAV01@XZ 00411d90 f i CrimsonWasteland2.obj
 0001:00010db0       ??R<lambda_9366063389c5f42a00a5088cf24e69de>@@QBE@QADIQBD@Z 00411db0 f i CrimsonWasteland2.obj
 0001:00010e00       ??R<lambda_ab246b20b9526e2ef7792587e4298a77>@@QBE@QADQBDI1I@Z 00411e00 f i CrimsonWasteland2.obj
 0001:00010e70       ??R?$less@V?$basic_string@DU?$char_traits@D@std@@V?$allocator@D@2@@std@@@std@@QBE_NABV?$basic_string@DU?$char_traits@D@std@@V?$allocator@D@2@@1@0@Z 00411e70 f i CrimsonWasteland2.obj
 0001:00010ea0       ??_E?$_Ref_count@VRawImageData@@@std@@UAEPAXI@Z 00411ea0 f i CrimsonWasteland2.obj
 0001:00010ea0       ??_G?$_Ref_count@VRawImageData@@@std@@UAEPAXI@Z 00411ea0 f i CrimsonWasteland2.obj
 0001:00010ee0       ??_G?$basic_string@DU?$char_traits@D@std@@V?$allocator@D@2@@std@@QAEPAXI@Z 00411ee0 f i CrimsonWasteland2.obj
 0001:00010f20       ??_G?$pair@$$CBV?$basic_string@DU?$char_traits@D@std@@V?$allocator@D@2@@std@@V?$shared_ptr@VRawImageData@@@2@@std@@QAEPAXI@Z 00411f20 f i CrimsonWasteland2.obj
 0001:00010f60       ??_G?$pair@$$CBV?$basic_string@DU?$char_traits@D@std@@V?$allocator@D@2@@std@@V?$weak_ptr@VRawImageData@@@2@@std@@QAEPAXI@Z 00411f60 f i CrimsonWasteland2.obj
 0001:00010fa0       ??_EBullet@@UAEPAXI@Z      00411fa0 f i CrimsonWasteland2.obj
 0001:00010fa0       ??_GBullet@@UAEPAXI@Z      00411fa0 f i CrimsonWasteland2.obj
 0001:00010fe0       ??_EClickableImageObject@@UAEPAXI@Z 00411fe0 f i CrimsonWasteland2.obj
 0001:00010fe0       ??_GClickableImageObject@@UAEPAXI@Z 00411fe0 f i CrimsonWasteland2.obj
 0001:00011020       ??_ECrimsonWasteland2@@UAEPAXI@Z 00412020 f i CrimsonWasteland2.obj
 0001:00011020       ??_GCrimsonWasteland2@@UAEPAXI@Z 00412020 f i CrimsonWasteland2.obj
 0001:00011060       ??_ECrimsonWasteland2TileManager@@UAEPAXI@Z 00412060 f i CrimsonWasteland2.obj
 0001:00011060       ??_GCrimsonWasteland2TileManager@@UAEPAXI@Z 00412060 f i CrimsonWasteland2.obj
 0001:000110a0       ??_EImageObject@@UAEPAXI@Z 004120a0 f i CrimsonWasteland2.obj
 0001:000110a0       ??_GImageObject@@UAEPAXI@Z 004120a0 f i CrimsonWasteland2.obj
 0001:000110e0       ??_ELives@@UAEPAXI@Z       004120e0 f i CrimsonWasteland2.obj
 0001:000110e0       ??_GLives@@UAEPAXI@Z       004120e0 f i CrimsonWasteland2.obj
 0001:00011120       ??_EPlayer@@UAEPAXI@Z      00412120 f i CrimsonWasteland2.obj
 0001:00011120       ??_GPlayer@@UAEPAXI@Z      00412120 f i CrimsonWasteland2.obj
 0001:00011160       ??_GRawImageData@@QAEPAXI@Z 00412160 f i CrimsonWasteland2.obj
 0001:000111a0       ??_ETextBoxObject@@UAEPAXI@Z 004121a0 f i CrimsonWasteland2.obj
 0001:000111a0       ??_GTextBoxObject@@UAEPAXI@Z 004121a0 f i CrimsonWasteland2.obj
 0001:000111e0       ??_ETileManager@@UAEPAXI@Z 004121e0 f i CrimsonWasteland2.obj
 0001:000111e0       ??_GTileManager@@UAEPAXI@Z 004121e0 f i CrimsonWasteland2.obj
 0001:00011220       ??_EZombie@@UAEPAXI@Z      00412220 f i CrimsonWasteland2.obj
 0001:00011220       ??_GZombie@@UAEPAXI@Z      00412220 f i CrimsonWasteland2.obj
 0001:00011260       ??_Ebad_alloc@std@@UAEPAXI@Z 00412260 f i CrimsonWasteland2.obj
 0001:00011260       ??_Gbad_alloc@std@@UAEPAXI@Z 00412260 f i CrimsonWasteland2.obj
 0001:000112a0       ??_Ebad_array_new_length@std@@UAEPAXI@Z 004122a0 f i CrimsonWasteland2.obj
 0001:000112a0       ??_Gbad_array_new_length@std@@UAEPAXI@Z 004122a0 f i CrimsonWasteland2.obj
 0001:000112e0       ??_Eexception@std@@UAEPAXI@Z 004122e0 f i CrimsonWasteland2.obj
 0001:000112e0       ??_Gexception@std@@UAEPAXI@Z 004122e0 f i CrimsonWasteland2.obj
 0001:00011320       ?GetTileManager@CrimsonWasteland2@@QAEAAVCrimsonWasteland2TileManager@@XZ 00412320 f i CrimsonWasteland2.obj
 0001:00011340       ?_Activate_SSO_buffer@?$_String_val@U?$_Simple_types@D@std@@@std@@QAEXXZ 00412340 f i CrimsonWasteland2.obj
 0001:00011350       ?_Adjust_manually_vector_aligned@std@@YAXAAPAXAAI@Z 00412350 f i CrimsonWasteland2.obj
 0001:000114a0       ?_Adopt@_Iterator_base0@std@@QAEXPBX@Z 004124a0 f i CrimsonWasteland2.obj
 0001:000114b0       ?_Adopt@_Iterator_base12@std@@QAEXPBU_Container_base12@2@@Z 004124b0 f i CrimsonWasteland2.obj
 0001:000114d0       ?_Adopt_locked@_Iterator_base12@std@@AAEXPBU_Container_base12@2@@Z 004124d0 f i CrimsonWasteland2.obj
 0001:00011510       ?_Adopt_unlocked@_Iterator_base12@std@@AAEXPBU_Container_base12@2@@Z 00412510 f i CrimsonWasteland2.obj
 0001:00011590       ?_Alloc_sentinel_and_proxy@?$_Tree@V?$_Tmap_traits@V?$basic_string@DU?$char_traits@D@std@@V?$allocator@D@2@@std@@V?$shared_ptr@VRawImageData@@@2@U?$less@V?$basic_string@DU?$char_traits@D@std@@V?$allocator@D@2@@std@@@2@V?$allocator@U?$pair@$$CBV?$basic_string@DU?$char_traits@D@std@@V?$allocator@D@2@@std@@V?$shared_ptr@VRawImageData@@@2@@std@@@2@$0A@@std@@@std@@IAEXXZ 00412590 f i CrimsonWasteland2.obj
 0001:00011660       ?_Alloc_sentinel_and_proxy@?$_Tree@V?$_Tmap_traits@V?$basic_string@DU?$char_traits@D@std@@V?$allocator@D@2@@std@@V?$weak_ptr@VRawImageData@@@2@U?$less@V?$basic_string@DU?$char_traits@D@std@@V?$allocator@D@2@@std@@@2@V?$allocator@U?$pair@$$CBV?$basic_string@DU?$char_traits@D@std@@V?$allocator@D@2@@std@@V?$weak_ptr@VRawImageData@@@2@@std@@@2@$0A@@std@@@std@@IAEXXZ 00412660 f i CrimsonWasteland2.obj
 0001:00011730       ?_Allocate@?$_Alloc_construct_ptr@V?$allocator@U?$_Tree_node@U?$pair@$$CBV?$basic_string@DU?$char_traits@D@std@@V?$allocator@D@2@@std@@V?$shared_ptr@VRawImageData@@@2@@std@@PAX@std@@@std@@@std@@QAEXXZ 00412730 f i CrimsonWasteland2.obj
 0001:00011760       ?_Allocate@?$_Alloc_construct_ptr@V?$allocator@U?$_Tree_node@U?$pair@$$CBV?$basic_string@DU?$char_traits@D@std@@V?$allocator@D@2@@std@@V?$weak_ptr@VRawImageData@@@2@@std@@PAX@std@@@std@@@std@@QAEXXZ 00412760 f i CrimsonWasteland2.obj
 0001:00011790       ?_Allocate@_Default_allocate_traits@std@@SAPAXI@Z 00412790 f i CrimsonWasteland2.obj
 0001:000117b0       ?_Assign_locked@_Iterator_base12@std@@AAEXABU12@@Z 004127b0 f i CrimsonWasteland2.obj
 0001:000117f0       ?_Assign_unlocked@_Iterator_base12@std@@AAEXABU12@@Z 004127f0 f i CrimsonWasteland2.obj
 0001:00011840       ?_Buy_nonzero@?$vector@V?$basic_string@DU?$char_traits@D@std@@V?$allocator@D@2@@std@@V?$allocator@V?$basic_string@DU?$char_traits@D@std@@V?$allocator@D@2@@std@@@2@@std@@AAEXI@Z 00412840 f i CrimsonWasteland2.obj
 0001:00011880       ?_Buy_raw@?$vector@V?$basic_string@DU?$char_traits@D@std@@V?$allocator@D@2@@std@@V?$allocator@V?$basic_string@DU?$char_traits@D@std@@V?$allocator@D@2@@std@@@2@@std@@AAEXI@Z 00412880 f i CrimsonWasteland2.obj
 0001:00011900       ?_Calculate_growth@?$basic_string@DU?$char_traits@D@std@@V?$allocator@D@2@@std@@ABEII@Z 00412900 f i CrimsonWasteland2.obj
 0001:00011940       ?_Calculate_growth@?$basic_string@DU?$char_traits@D@std@@V?$allocator@D@2@@std@@CAIIII@Z 00412940 f i CrimsonWasteland2.obj
 0001:000119b0       ?_Calculate_growth@?$vector@PAVDisplayableObject@@V?$allocator@PAVDisplayableObject@@@std@@@std@@ABEII@Z 004129b0 f i CrimsonWasteland2.obj
 0001:00011a20       ?_Change_array@?$vector@PAVDisplayableObject@@V?$allocator@PAVDisplayableObject@@@std@@@std@@AAEXQAPAVDisplayableObject@@II@Z 00412a20 f i CrimsonWasteland2.obj
 0001:00011af0       ?_Check_grow_by_1@?$_Tree@V?$_Tmap_traits@V?$basic_string@DU?$char_traits@D@std@@V?$allocator@D@2@@std@@V?$shared_ptr@VRawImageData@@@2@U?$less@V?$basic_string@DU?$char_traits@D@std@@V?$allocator@D@2@@std@@@2@V?$allocator@U?$pair@$$CBV?$basic_string@DU?$char_traits@D@std@@V?$allocator@D@2@@std@@V?$shared_ptr@VRawImageData@@@2@@std@@@2@$0A@@std@@@std@@IAEXXZ 00412af0 f i CrimsonWasteland2.obj
 0001:00011b30       ?_Check_grow_by_1@?$_Tree@V?$_Tmap_traits@V?$basic_string@DU?$char_traits@D@std@@V?$allocator@D@2@@std@@V?$weak_ptr@VRawImageData@@@2@U?$less@V?$basic_string@DU?$char_traits@D@std@@V?$allocator@D@2@@std@@@2@V?$allocator@U?$pair@$$CBV?$basic_string@DU?$char_traits@D@std@@V?$allocator@D@2@@std@@V?$weak_ptr@VRawImageData@@@2@@std@@@2@$0A@@std@@@std@@IAEXXZ 00412b30 f i CrimsonWasteland2.obj
 0001:00011b70       ?_Compat@?$_Vector_const_iterator@V?$_Vector_val@U?$_Simple_types@PAVDisplayableObject@@@std@@@std@@@std@@QBEXABV12@@Z 00412b70 f i CrimsonWasteland2.obj
 0001:00011c10       ?_Compat@?$_Vector_const_iterator@V?$_Vector_val@U?$_Simple_types@V?$basic_string@DU?$char_traits@D@std@@V?$allocator@D@2@@std@@@std@@@std@@@std@@QBEXABV12@@Z 00412c10 f i CrimsonWasteland2.obj
 0001:00011cb0       ?_Deallocate_for_capacity@?$basic_string@DU?$char_traits@D@std@@V?$allocator@D@2@@std@@CAXAAV?$allocator@D@2@QADI@Z 00412cb0 f i CrimsonWasteland2.obj
 0001:00011d10       ?_Decref@?$_Ptr_base@VRawImageData@@@std@@IAEXXZ 00412d10 f i CrimsonWasteland2.obj
 0001:00011d40       ?_Decref@_Ref_count_base@std@@QAEXXZ 00412d40 f i CrimsonWasteland2.obj
 0001:00011d80       ?_Decwref@?$_Ptr_base@VRawImageData@@@std@@IAEXXZ 00412d80 f i CrimsonWasteland2.obj
 0001:00011db0       ?_Decwref@_Ref_count_base@std@@QAEXXZ 00412db0 f i CrimsonWasteland2.obj
 0001:00011df0       ?_Delete_this@?$_Ref_count@VRawImageData@@@std@@EAEXXZ 00412df0 f i CrimsonWasteland2.obj
 0001:00011e40       ?_Destroy@?$_Ref_count@VRawImageData@@@std@@EAEXXZ 00412e40 f i CrimsonWasteland2.obj
 0001:00011e80       ?_Equal@?$basic_string@DU?$char_traits@D@std@@V?$allocator@D@2@@std@@QBE_NABV12@@Z 00412e80 f i CrimsonWasteland2.obj
 0001:00011ed0       ?_Equal@?$basic_string@DU?$char_traits@D@std@@V?$allocator@D@2@@std@@QBE_NQBD@Z 00412ed0 f i CrimsonWasteland2.obj
 0001:00011f20       ?_Erase_unchecked@?$_Tree@V?$_Tmap_traits@V?$basic_string@DU?$char_traits@D@std@@V?$allocator@D@2@@std@@V?$weak_ptr@VRawImageData@@@2@U?$less@V?$basic_string@DU?$char_traits@D@std@@V?$allocator@D@2@@std@@@2@V?$allocator@U?$pair@$$CBV?$basic_string@DU?$char_traits@D@std@@V?$allocator@D@2@@std@@V?$weak_ptr@VRawImageData@@@2@@std@@@2@$0A@@std@@@std@@AAEPAU?$_Tree_node@U?$pair@$$CBV?$basic_string@DU?$char_traits@D@std@@V?$allocator@D@2@@std@@V?$weak_ptr@VRawImageData@@@2@@std@@PAX@2@V?$_Tree_unchecked_const_iterator@V?$_Tree_val@U?$_Tree_simple_types@U?$pair@$$CBV?$basic_string@DU?$char_traits@D@std@@V?$allocator@D@2@@std@@V?$weak_ptr@VRawImageData@@@2@@std@@@std@@@std@@U_Iterator_base0@2@@2@@Z 00412f20 f i CrimsonWasteland2.obj
 0001:00011fa0       ?_Extract@?$_In_place_key_extract_map@V?$basic_string@DU?$char_traits@D@std@@V?$allocator@D@2@@std@@U?$pair@V?$basic_string@DU?$char_traits@D@std@@V?$allocator@D@2@@std@@V?$shared_ptr@VRawImageData@@@2@@2@@std@@SAABV?$basic_string@DU?$char_traits@D@std@@V?$allocator@D@2@@2@ABU?$pair@V?$basic_string@DU?$char_traits@D@std@@V?$allocator@D@2@@std@@V?$shared_ptr@VRawImageData@@@2@@2@@Z 00412fa0 f i CrimsonWasteland2.obj
 0001:00011fb0       ?_Extract@?$_In_place_key_extract_map@V?$basic_string@DU?$char_traits@D@std@@V?$allocator@D@2@@std@@U?$pair@V?$basic_string@DU?$char_traits@D@std@@V?$allocator@D@2@@std@@V?$weak_ptr@VRawImageData@@@2@@2@@std@@SAABV?$basic_string@DU?$char_traits@D@std@@V?$allocator@D@2@@2@ABU?$pair@V?$basic_string@DU?$char_traits@D@std@@V?$allocator@D@2@@std@@V?$weak_ptr@VRawImageData@@@2@@2@@Z 00412fb0 f i CrimsonWasteland2.obj
 0001:00011fc0       ?_Extract@?$_Tree_val@U?$_Tree_simple_types@U?$pair@$$CBV?$basic_string@DU?$char_traits@D@std@@V?$allocator@D@2@@std@@V?$weak_ptr@VRawImageData@@@2@@std@@@std@@@std@@QAEPAU?$_Tree_node@U?$pair@$$CBV?$basic_string@DU?$char_traits@D@std@@V?$allocator@D@2@@std@@V?$weak_ptr@VRawImageData@@@2@@std@@PAX@2@V?$_Tree_unchecked_const_iterator@V?$_Tree_val@U?$_Tree_simple_types@U?$pair@$$CBV?$basic_string@DU?$char_traits@D@std@@V?$allocator@D@2@@std@@V?$weak_ptr@VRawImageData@@@2@@std@@@std@@@std@@U_Iterator_base0@2@@2@@Z 00412fc0 f i CrimsonWasteland2.obj
 0001:00012500       ?_Get_deleter@_Ref_count_base@std@@UBEPAXABVtype_info@@@Z 00413500 f i CrimsonWasteland2.obj
 0001:00012520       ?_Get_first@?$_Compressed_pair@U?$less@V?$basic_string@DU?$char_traits@D@std@@V?$allocator@D@2@@std@@@std@@V?$_Compressed_pair@V?$allocator@U?$_Tree_node@U?$pair@$$CBV?$basic_string@DU?$char_traits@D@std@@V?$allocator@D@2@@std@@V?$shared_ptr@VRawImageData@@@2@@std@@PAX@std@@@std@@V?$_Tree_val@U?$_Tree_simple_types@U?$pair@$$CBV?$basic_string@DU?$char_traits@D@std@@V?$allocator@D@2@@std@@V?$shared_ptr@VRawImageData@@@2@@std@@@std@@@2@$00@2@$00@std@@QBEABU?$less@V?$basic_string@DU?$char_traits@D@std@@V?$allocator@D@2@@std@@@2@XZ 00413520 f i CrimsonWasteland2.obj
 0001:00012540       ?_Get_first@?$_Compressed_pair@U?$less@V?$basic_string@DU?$char_traits@D@std@@V?$allocator@D@2@@std@@@std@@V?$_Compressed_pair@V?$allocator@U?$_Tree_node@U?$pair@$$CBV?$basic_string@DU?$char_traits@D@std@@V?$allocator@D@2@@std@@V?$weak_ptr@VRawImageData@@@2@@std@@PAX@std@@@std@@V?$_Tree_val@U?$_Tree_simple_types@U?$pair@$$CBV?$basic_string@DU?$char_traits@D@std@@V?$allocator@D@2@@std@@V?$weak_ptr@VRawImageData@@@2@@std@@@std@@@2@$00@2@$00@std@@QBEABU?$less@V?$basic_string@DU?$char_traits@D@std@@V?$allocator@D@2@@std@@@2@XZ 00413540 f i CrimsonWasteland2.obj
 0001:00012560       ?_Get_first@?$_Compressed_pair@V?$allocator@D@std@@V?$_String_val@U?$_Simple_types@D@std@@@2@$00@std@@QAEAAV?$allocator@D@2@XZ 00413560 f i CrimsonWasteland2.obj
 0001:00012580       ?_Get_first@?$_Compressed_pair@V?$allocator@D@std@@V?$_String_val@U?$_Simple_types@D@std@@@2@$00@std@@QBEABV?$allocator@D@2@XZ 00413580 f i CrimsonWasteland2.obj
 0001:000125a0       ?_Get_first@?$_Compressed_pair@V?$allocator@PAVDisplayableObject@@@std@@V?$_Vector_val@U?$_Simple_types@PAVDisplayableObject@@@std@@@2@$00@std@@QAEAAV?$allocator@PAVDisplayableObject@@@2@XZ 004135a0 f i CrimsonWasteland2.obj
 0001:000125c0       ?_Get_first@?$_Compressed_pair@V?$allocator@PAVDisplayableObject@@@std@@V?$_Vector_val@U?$_Simple_types@PAVDisplayableObject@@@std@@@2@$00@std@@QBEABV?$allocator@PAVDisplayableObject@@@2@XZ 004135c0 f i CrimsonWasteland2.obj
 0001:000125e0       ?_Get_first@?$_Compressed_pair@V?$allocator@U?$_Tree_node@U?$pair@$$CBV?$basic_string@DU?$char_traits@D@std@@V?$allocator@D@2@@std@@V?$shared_ptr@VRawImageData@@@2@@std@@PAX@std@@@std@@V?$_Tree_val@U?$_Tree_simple_types@U?$pair@$$CBV?$basic_string@DU?$char_traits@D@std@@V?$allocator@D@2@@std@@V?$shared_ptr@VRawImageData@@@2@@std@@@std@@@2@$00@std@@QAEAAV?$allocator@U?$_Tree_node@U?$pair@$$CBV?$basic_string@DU?$char_traits@D@std@@V?$allocator@D@2@@std@@V?$shared_ptr@VRawImageData@@@2@@std@@PAX@std@@@2@XZ 004135e0 f i CrimsonWasteland2.obj
 0001:00012600       ?_Get_first@?$_Compressed_pair@V?$allocator@U?$_Tree_node@U?$pair@$$CBV?$basic_string@DU?$char_traits@D@std@@V?$allocator@D@2@@std@@V?$shared_ptr@VRawImageData@@@2@@std@@PAX@std@@@std@@V?$_Tree_val@U?$_Tree_simple_types@U?$pair@$$CBV?$basic_string@DU?$char_traits@D@std@@V?$allocator@D@2@@std@@V?$shared_ptr@VRawImageData@@@2@@std@@@std@@@2@$00@std@@QBEABV?$allocator@U?$_Tree_node@U?$pair@$$CBV?$basic_string@DU?$char_traits@D@std@@V?$allocator@D@2@@std@@V?$shared_ptr@VRawImageData@@@2@@std@@PAX@std@@@2@XZ 00413600 f i CrimsonWasteland2.obj
 0001:00012620       ?_Get_first@?$_Compressed_pair@V?$allocator@U?$_Tree_node@U?$pair@$$CBV?$basic_string@DU?$char_traits@D@std@@V?$allocator@D@2@@std@@V?$weak_ptr@VRawImageData@@@2@@std@@PAX@std@@@std@@V?$_Tree_val@U?$_Tree_simple_types@U?$pair@$$CBV?$basic_string@DU?$char_traits@D@std@@V?$allocator@D@2@@std@@V?$weak_ptr@VRawImageData@@@2@@std@@@std@@@2@$00@std@@QAEAAV?$allocator@U?$_Tree_node@U?$pair@$$CBV?$basic_string@DU?$char_traits@D@std@@V?$allocator@D@2@@std@@V?$weak_ptr@VRawImageData@@@2@@std@@PAX@std@@@2@XZ 00413620 f i CrimsonWasteland2.obj
 0001:00012640       ?_Get_first@?$_Compressed_pair@V?$allocator@U?$_Tree_node@U?$pair@$$CBV?$basic_string@DU?$char_traits@D@std@@V?$allocator@D@2@@std@@V?$weak_ptr@VRawImageData@@@2@@std@@PAX@std@@@std@@V?$_Tree_val@U?$_Tree_simple_types@U?$pair@$$CBV?$basic_string@DU?$char_traits@D@std@@V?$allocator@D@2@@std@@V?$weak_ptr@VRawImageData@@@2@@std@@@std@@@2@$00@std@@QBEABV?$allocator@U?$_Tree_node@U?$pair@$$CBV?$basic_string@DU?$char_traits@D@std@@V?$allocator@D@2@@std@@V?$weak_ptr@VRawImageData@@@2@@std@@PAX@std@@@2@XZ 00413640 f i CrimsonWasteland2.obj
 0001:00012660       ?_Get_first@?$_Compressed_pair@V?$allocator@V?$basic_string@DU?$char_traits@D@std@@V?$allocator@D@2@@std@@@std@@V?$_Vector_val@U?$_Simple_types@V?$basic_string@DU?$char_traits@D@std@@V?$allocator@D@2@@std@@@std@@@2@$00@std@@QAEAAV?$allocator@V?$basic_string@DU?$char_traits@D@std@@V?$allocator@D@2@@std@@@2@XZ 00413660 f i CrimsonWasteland2.obj
 0001:00012680       ?_Get_first@?$_Compressed_pair@V?$allocator@V?$basic_string@DU?$char_traits@D@std@@V?$allocator@D@2@@std@@@std@@V?$_Vector_val@U?$_Simple_types@V?$basic_string@DU?$char_traits@D@std@@V?$allocator@D@2@@std@@@std@@@2@$00@std@@QBEABV?$allocator@V?$basic_string@DU?$char_traits@D@std@@V?$allocator@D@2@@std@@@2@XZ 00413680 f i CrimsonWasteland2.obj
 0001:000126a0       ?_Get_scary@?$_Tree@V?$_Tmap_traits@V?$basic_string@DU?$char_traits@D@std@@V?$allocator@D@2@@std@@V?$shared_ptr@VRawImageData@@@2@U?$less@V?$basic_string@DU?$char_traits@D@std@@V?$allocator@D@2@@std@@@2@V?$allocator@U?$pair@$$CBV?$basic_string@DU?$char_traits@D@std@@V?$allocator@D@2@@std@@V?$shared_ptr@VRawImageData@@@2@@std@@@2@$0A@@std@@@std@@IAEPAV?$_Tree_val@U?$_Tree_simple_types@U?$pair@$$CBV?$basic_string@DU?$char_traits@D@std@@V?$allocator@D@2@@std@@V?$shared_ptr@VRawImageData@@@2@@std@@@std@@@2@XZ 004136a0 f i CrimsonWasteland2.obj
 0001:000126c0       ?_Get_scary@?$_Tree@V?$_Tmap_traits@V?$basic_string@DU?$char_traits@D@std@@V?$allocator@D@2@@std@@V?$shared_ptr@VRawImageData@@@2@U?$less@V?$basic_string@DU?$char_traits@D@std@@V?$allocator@D@2@@std@@@2@V?$allocator@U?$pair@$$CBV?$basic_string@DU?$char_traits@D@std@@V?$allocator@D@2@@std@@V?$shared_ptr@VRawImageData@@@2@@std@@@2@$0A@@std@@@std@@IBEPBV?$_Tree_val@U?$_Tree_simple_types@U?$pair@$$CBV?$basic_string@DU?$char_traits@D@std@@V?$allocator@D@2@@std@@V?$shared_ptr@VRawImageData@@@2@@std@@@std@@@2@XZ 004136c0 f i CrimsonWasteland2.obj
 0001:000126e0       ?_Get_scary@?$_Tree@V?$_Tmap_traits@V?$basic_string@DU?$char_traits@D@std@@V?$allocator@D@2@@std@@V?$weak_ptr@VRawImageData@@@2@U?$less@V?$basic_string@DU?$char_traits@D@std@@V?$allocator@D@2@@std@@@2@V?$allocator@U?$pair@$$CBV?$basic_string@DU?$char_traits@D@std@@V?$allocator@D@2@@std@@V?$weak_ptr@VRawImageData@@@2@@std@@@2@$0A@@std@@@std@@IAEPAV?$_Tree_val@U?$_Tree_simple_types@U?$pair@$$CBV?$basic_string@DU?$char_traits@D@std@@V?$allocator@D@2@@std@@V?$weak_ptr@VRawImageData@@@2@@std@@@std@@@2@XZ 004136e0 f i CrimsonWasteland2.obj
 0001:00012700       ?_Get_scary@?$_Tree@V?$_Tmap_traits@V?$basic_string@DU?$char_traits@D@std@@V?$allocator@D@2@@std@@V?$weak_ptr@VRawImageData@@@2@U?$less@V?$basic_string@DU?$char_traits@D@std@@V?$allocator@D@2@@std@@@2@V?$allocator@U?$pair@$$CBV?$basic_string@DU?$char_traits@D@std@@V?$allocator@D@2@@std@@V?$weak_ptr@VRawImageData@@@2@@std@@@2@$0A@@std@@@std@@IBEPBV?$_Tree_val@U?$_Tree_simple_types@U?$pair@$$CBV?$basic_string@DU?$char_traits@D@std@@V?$allocator@D@2@@std@@V?$weak_ptr@VRawImageData@@@2@@std@@@std@@@2@XZ 00413700 f i CrimsonWasteland2.obj
 0001:00012720       ?_Getal@?$_Tree@V?$_Tmap_traits@V?$basic_string@DU?$char_traits@D@std@@V?$allocator@D@2@@std@@V?$shared_ptr@VRawImageData@@@2@U?$less@V?$basic_string@DU?$char_traits@D@std@@V?$allocator@D@2@@std@@@2@V?$allocator@U?$pair@$$CBV?$basic_string@DU?$char_traits@D@std@@V?$allocator@D@2@@std@@V?$shared_ptr@VRawImageData@@@2@@std@@@2@$0A@@std@@@std@@IAEAAV?$allocator@U?$_Tree_node@U?$pair@$$CBV?$basic_string@DU?$char_traits@D@std@@V?$allocator@D@2@@std@@V?$shared_ptr@VRawImageData@@@2@@std@@PAX@std@@@2@XZ 00413720 f i CrimsonWasteland2.obj
 0001:00012740       ?_Getal@?$_Tree@V?$_Tmap_traits@V?$basic_string@DU?$char_traits@D@std@@V?$allocator@D@2@@std@@V?$shared_ptr@VRawImageData@@@2@U?$less@V?$basic_string@DU?$char_traits@D@std@@V?$allocator@D@2@@std@@@2@V?$allocator@U?$pair@$$CBV?$basic_string@DU?$char_traits@D@std@@V?$allocator@D@2@@std@@V?$shared_ptr@VRawImageData@@@2@@std@@@2@$0A@@std@@@std@@IBEABV?$allocator@U?$_Tree_node@U?$pair@$$CBV?$basic_string@DU?$char_traits@D@std@@V?$allocator@D@2@@std@@V?$shared_ptr@VRawImageData@@@2@@std@@PAX@std@@@2@XZ 00413740 f i CrimsonWasteland2.obj
 0001:00012760       ?_Getal@?$_Tree@V?$_Tmap_traits@V?$basic_string@DU?$char_traits@D@std@@V?$allocator@D@2@@std@@V?$weak_ptr@VRawImageData@@@2@U?$less@V?$basic_string@DU?$char_traits@D@std@@V?$allocator@D@2@@std@@@2@V?$allocator@U?$pair@$$CBV?$basic_string@DU?$char_traits@D@std@@V?$allocator@D@2@@std@@V?$weak_ptr@VRawImageData@@@2@@std@@@2@$0A@@std@@@std@@IAEAAV?$allocator@U?$_Tree_node@U?$pair@$$CBV?$basic_string@DU?$char_traits@D@std@@V?$allocator@D@2@@std@@V?$weak_ptr@VRawImageData@@@2@@std@@PAX@std@@@2@XZ 00413760 f i CrimsonWasteland2.obj
 0001:00012780       ?_Getal@?$_Tree@V?$_Tmap_traits@V?$basic_string@DU?$char_traits@D@std@@V?$allocator@D@2@@std@@V?$weak_ptr@VRawImageData@@@2@U?$less@V?$basic_string@DU?$char_traits@D@std@@V?$allocator@D@2@@std@@@2@V?$allocator@U?$pair@$$CBV?$basic_string@DU?$char_traits@D@std@@V?$allocator@D@2@@std@@V?$weak_ptr@VRawImageData@@@2@@std@@@2@$0A@@std@@@std@@IBEABV?$allocator@U?$_Tree_node@U?$pair@$$CBV?$basic_string@DU?$char_traits@D@std@@V?$allocator@D@2@@std@@V?$weak_ptr@VRawImageData@@@2@@std@@PAX@std@@@2@XZ 00413780 f i CrimsonWasteland2.obj
 0001:000127a0       ?_Getal@?$basic_string@DU?$char_traits@D@std@@V?$allocator@D@2@@std@@AAEAAV?$allocator@D@2@XZ 004137a0 f i CrimsonWasteland2.obj
 0001:000127c0       ?_Getal@?$basic_string@DU?$char_traits@D@std@@V?$allocator@D@2@@std@@ABEABV?$allocator@D@2@XZ 004137c0 f i CrimsonWasteland2.obj
 0001:000127e0       ?_Getal@?$vector@PAVDisplayableObject@@V?$allocator@PAVDisplayableObject@@@std@@@std@@AAEAAV?$allocator@PAVDisplayableObject@@@2@XZ 004137e0 f i CrimsonWasteland2.obj
 0001:00012800       ?_Getal@?$vector@PAVDisplayableObject@@V?$allocator@PAVDisplayableObject@@@std@@@std@@ABEABV?$allocator@PAVDisplayableObject@@@2@XZ 00413800 f i CrimsonWasteland2.obj
 0001:00012820       ?_Getal@?$vector@V?$basic_string@DU?$char_traits@D@std@@V?$allocator@D@2@@std@@V?$allocator@V?$basic_string@DU?$char_traits@D@std@@V?$allocator@D@2@@std@@@2@@std@@AAEAAV?$allocator@V?$basic_string@DU?$char_traits@D@std@@V?$allocator@D@2@@std@@@2@XZ 00413820 f i CrimsonWasteland2.obj
 0001:00012840       ?_Getal@?$vector@V?$basic_string@DU?$char_traits@D@std@@V?$allocator@D@2@@std@@V?$allocator@V?$basic_string@DU?$char_traits@D@std@@V?$allocator@D@2@@std@@@2@@std@@ABEABV?$allocator@V?$basic_string@DU?$char_traits@D@std@@V?$allocator@D@2@@std@@@2@XZ 00413840 f i CrimsonWasteland2.obj
 0001:00012860       ?_Getcomp@?$_Tree@V?$_Tmap_traits@V?$basic_string@DU?$char_traits@D@std@@V?$allocator@D@2@@std@@V?$shared_ptr@VRawImageData@@@2@U?$less@V?$basic_string@DU?$char_traits@D@std@@V?$allocator@D@2@@std@@@2@V?$allocator@U?$pair@$$CBV?$basic_string@DU?$char_traits@D@std@@V?$allocator@D@2@@std@@V?$shared_ptr@VRawImageData@@@2@@std@@@2@$0A@@std@@@std@@IBEABU?$less@V?$basic_string@DU?$char_traits@D@std@@V?$allocator@D@2@@std@@@2@XZ 00413860 f i CrimsonWasteland2.obj
 0001:00012880       ?_Getcomp@?$_Tree@V?$_Tmap_traits@V?$basic_string@DU?$char_traits@D@std@@V?$allocator@D@2@@std@@V?$weak_ptr@VRawImageData@@@2@U?$less@V?$basic_string@DU?$char_traits@D@std@@V?$allocator@D@2@@std@@@2@V?$allocator@U?$pair@$$CBV?$basic_string@DU?$char_traits@D@std@@V?$allocator@D@2@@std@@V?$weak_ptr@VRawImageData@@@2@@std@@@2@$0A@@std@@@std@@IBEABU?$less@V?$basic_string@DU?$char_traits@D@std@@V?$allocator@D@2@@std@@@2@XZ 00413880 f i CrimsonWasteland2.obj
 0001:000128a0       ?_Getcont@_Iterator_base12@std@@QBEPBU_Container_base12@2@XZ 004138a0 f i CrimsonWasteland2.obj
 0001:000128e0       ?_Incref@?$_Ptr_base@VRawImageData@@@std@@IBEXXZ 004138e0 f i CrimsonWasteland2.obj
 0001:00012910       ?_Incref@_Ref_count_base@std@@QAEXXZ 00413910 f i CrimsonWasteland2.obj
 0001:00012930       ?_Incref_nz@_Ref_count_base@std@@QAE_NXZ 00413930 f i CrimsonWasteland2.obj
 0001:000129a0       ?_Incwref@_Ref_count_base@std@@QAEXXZ 004139a0 f i CrimsonWasteland2.obj
 0001:000129c0       ?_Insert_node@?$_Tree_val@U?$_Tree_simple_types@U?$pair@$$CBV?$basic_string@DU?$char_traits@D@std@@V?$allocator@D@2@@std@@V?$shared_ptr@VRawImageData@@@2@@std@@@std@@@std@@QAEPAU?$_Tree_node@U?$pair@$$CBV?$basic_string@DU?$char_traits@D@std@@V?$allocator@D@2@@std@@V?$shared_ptr@VRawImageData@@@2@@std@@PAX@2@U?$_Tree_id@PAU?$_Tree_node@U?$pair@$$CBV?$basic_string@DU?$char_traits@D@std@@V?$allocator@D@2@@std@@V?$shared_ptr@VRawImageData@@@2@@std@@PAX@std@@@2@QAU32@@Z 004139c0 f i CrimsonWasteland2.obj
 0001:00012c50       ?_Insert_node@?$_Tree_val@U?$_Tree_simple_types@U?$pair@$$CBV?$basic_string@DU?$char_traits@D@std@@V?$allocator@D@2@@std@@V?$weak_ptr@VRawImageData@@@2@@std@@@std@@@std@@QAEPAU?$_Tree_node@U?$pair@$$CBV?$basic_string@DU?$char_traits@D@std@@V?$allocator@D@2@@std@@V?$weak_ptr@VRawImageData@@@2@@std@@PAX@2@U?$_Tree_id@PAU?$_Tree_node@U?$pair@$$CBV?$basic_string@DU?$char_traits@D@std@@V?$allocator@D@2@@std@@V?$weak_ptr@VRawImageData@@@2@@std@@PAX@std@@@2@QAU32@@Z 00413c50 f i CrimsonWasteland2.obj
 0001:00012ee0       ?_Large_mode_engaged@?$_String_val@U?$_Simple_types@D@std@@@std@@QBE_NXZ 00413ee0 f i CrimsonWasteland2.obj
 0001:00012f20       ?_Lrotate@?$_Tree_val@U?$_Tree_simple_types@U?$pair@$$CBV?$basic_string@DU?$char_traits@D@std@@V?$allocator@D@2@@std@@V?$shared_ptr@VRawImageData@@@2@@std@@@std@@@std@@QAEXPAU?$_Tree_node@U?$pair@$$CBV?$basic_string@DU?$char_traits@D@std@@V?$allocator@D@2@@std@@V?$shared_ptr@VRawImageData@@@2@@std@@PAX@2@@Z 00413f20 f i CrimsonWasteland2.obj
 0001:00012fe0       ?_Lrotate@?$_Tree_val@U?$_Tree_simple_types@U?$pair@$$CBV?$basic_string@DU?$char_traits@D@std@@V?$allocator@D@2@@std@@V?$weak_ptr@VRawImageData@@@2@@std@@@std@@@std@@QAEXPAU?$_Tree_node@U?$pair@$$CBV?$basic_string@DU?$char_traits@D@std@@V?$allocator@D@2@@std@@V?$weak_ptr@VRawImageData@@@2@@std@@PAX@2@@Z 00413fe0 f i CrimsonWasteland2.obj
 0001:000130a0       ?_Max@?$_Tree_val@U?$_Tree_simple_types@U?$pair@$$CBV?$basic_string@DU?$char_traits@D@std@@V?$allocator@D@2@@std@@V?$weak_ptr@VRawImageData@@@2@@std@@@std@@@std@@SAPAU?$_Tree_node@U?$pair@$$CBV?$basic_string@DU?$char_traits@D@std@@V?$allocator@D@2@@std@@V?$weak_ptr@VRawImageData@@@2@@std@@PAX@2@PAU32@@Z 004140a0 f i CrimsonWasteland2.obj
 0001:000130d0       ?_Min@?$_Tree_val@U?$_Tree_simple_types@U?$pair@$$CBV?$basic_string@DU?$char_traits@D@std@@V?$allocator@D@2@@std@@V?$weak_ptr@VRawImageData@@@2@@std@@@std@@@std@@SAPAU?$_Tree_node@U?$pair@$$CBV?$basic_string@DU?$char_traits@D@std@@V?$allocator@D@2@@std@@V?$weak_ptr@VRawImageData@@@2@@std@@PAX@2@PAU32@@Z 004140d0 f i CrimsonWasteland2.obj
 0001:00013100       ?_Myptr@?$_String_val@U?$_Simple_types@D@std@@@std@@QAEPADXZ 00414100 f i CrimsonWasteland2.obj
 0001:00013150       ?_Myptr@?$_String_val@U?$_Simple_types@D@std@@@std@@QBEPBDXZ 00414150 f i CrimsonWasteland2.obj
 0001:000131a0       ?_Orphan_all@_Container_base12@std@@QAEXXZ 004141a0 f i CrimsonWasteland2.obj
 0001:000131c0       ?_Orphan_all_locked_v3@_Container_base12@std@@AAEXXZ 004141c0 f i CrimsonWasteland2.obj
 0001:00013200       ?_Orphan_all_unlocked_v3@_Container_base12@std@@AAEXXZ 00414200 f i CrimsonWasteland2.obj
 0001:00013270       ?_Orphan_me_locked_v3@_Iterator_base12@std@@AAEXXZ 00414270 f i CrimsonWasteland2.obj
 0001:000132b0       ?_Orphan_me_unlocked_v3@_Iterator_base12@std@@AAEXXZ 004142b0 f i CrimsonWasteland2.obj
 0001:00013390       ?_Orphan_ptr@?$_Tree_val@U?$_Tree_simple_types@U?$pair@$$CBV?$basic_string@DU?$char_traits@D@std@@V?$allocator@D@2@@std@@V?$weak_ptr@VRawImageData@@@2@@std@@@std@@@std@@QAEXQAU?$_Tree_node@U?$pair@$$CBV?$basic_string@DU?$char_traits@D@std@@V?$allocator@D@2@@std@@V?$weak_ptr@VRawImageData@@@2@@std@@PAX@2@@Z 00414390 f i CrimsonWasteland2.obj
 0001:00013440       ?_Orphan_range@?$vector@PAVDisplayableObject@@V?$allocator@PAVDisplayableObject@@@std@@@std@@ABEXPAPAVDisplayableObject@@0@Z 00414440 f i CrimsonWasteland2.obj
 0001:00013470       ?_Orphan_range_locked@?$vector@PAVDisplayableObject@@V?$allocator@PAVDisplayableObject@@@std@@@std@@ABEXPAPAVDisplayableObject@@0@Z 00414470 f i CrimsonWasteland2.obj
 0001:00013500       ?_Orphan_range_unlocked@?$vector@PAVDisplayableObject@@V?$allocator@PAVDisplayableObject@@@std@@@std@@ABEXPAPAVDisplayableObject@@0@Z 00414500 f i CrimsonWasteland2.obj
 0001:00013580       ?_Release@?$_Alloc_construct_ptr@V?$allocator@U?$_Tree_node@U?$pair@$$CBV?$basic_string@DU?$char_traits@D@std@@V?$allocator@D@2@@std@@V?$shared_ptr@VRawImageData@@@2@@std@@PAX@std@@@std@@@std@@QAEPAU?$_Tree_node@U?$pair@$$CBV?$basic_string@DU?$char_traits@D@std@@V?$allocator@D@2@@std@@V?$shared_ptr@VRawImageData@@@2@@std@@PAX@2@XZ 00414580 f i CrimsonWasteland2.obj
 0001:000135b0       ?_Release@?$_Alloc_construct_ptr@V?$allocator@U?$_Tree_node@U?$pair@$$CBV?$basic_string@DU?$char_traits@D@std@@V?$allocator@D@2@@std@@V?$weak_ptr@VRawImageData@@@2@@std@@PAX@std@@@std@@@std@@QAEPAU?$_Tree_node@U?$pair@$$CBV?$basic_string@DU?$char_traits@D@std@@V?$allocator@D@2@@std@@V?$weak_ptr@VRawImageData@@@2@@std@@PAX@2@XZ 004145b0 f i CrimsonWasteland2.obj
 0001:000135e0       ?_Release@?$_Uninitialized_backout_al@V?$allocator@PAVDisplayableObject@@@std@@@std@@QAEPAPAVDisplayableObject@@XZ 004145e0 f i CrimsonWasteland2.obj
 0001:00013610       ?_Release@?$_Uninitialized_backout_al@V?$allocator@V?$basic_string@DU?$char_traits@D@std@@V?$allocator@D@2@@std@@@std@@@std@@QAEPAV?$basic_string@DU?$char_traits@D@std@@V?$allocator@D@2@@2@XZ 00414610 f i CrimsonWasteland2.obj
 0001:00013640       ?_Release@_Basic_container_proxy_ptr12@std@@QAEXXZ 00414640 f i CrimsonWasteland2.obj
 0001:00013660       ?_Rrotate@?$_Tree_val@U?$_Tree_simple_types@U?$pair@$$CBV?$basic_string@DU?$char_traits@D@std@@V?$allocator@D@2@@std@@V?$shared_ptr@VRawImageData@@@2@@std@@@std@@@std@@QAEXPAU?$_Tree_node@U?$pair@$$CBV?$basic_string@DU?$char_traits@D@std@@V?$allocator@D@2@@std@@V?$shared_ptr@VRawImageData@@@2@@std@@PAX@2@@Z 00414660 f i CrimsonWasteland2.obj
 0001:00013730       ?_Rrotate@?$_Tree_val@U?$_Tree_simple_types@U?$pair@$$CBV?$basic_string@DU?$char_traits@D@std@@V?$allocator@D@2@@std@@V?$weak_ptr@VRawImageData@@@2@@std@@@std@@@std@@QAEXPAU?$_Tree_node@U?$pair@$$CBV?$basic_string@DU?$char_traits@D@std@@V?$allocator@D@2@@std@@V?$weak_ptr@VRawImageData@@@2@@std@@PAX@2@@Z 00414730 f i CrimsonWasteland2.obj
 0001:00013800       ?_Seek_to@?$_Vector_const_iterator@V?$_Vector_val@U?$_Simple_types@PAVDisplayableObject@@@std@@@std@@@std@@QAEXPBQAVDisplayableObject@@@Z 00414800 f i CrimsonWasteland2.obj
 0001:00013830       ?_Seek_to@?$_Vector_const_iterator@V?$_Vector_val@U?$_Simple_types@V?$basic_string@DU?$char_traits@D@std@@V?$allocator@D@2@@std@@@std@@@std@@@std@@QAEXPBV?$basic_string@DU?$char_traits@D@std@@V?$allocator@D@2@@2@@Z 00414830 f i CrimsonWasteland2.obj
 0001:00013860       ?_Swap@?$_Ptr_base@VRawImageData@@@std@@IAEXAAV12@@Z 00414860 f i CrimsonWasteland2.obj
 0001:000138a0       ?_Swap_proxy_and_iterators@?$basic_string@DU?$char_traits@D@std@@V?$allocator@D@2@@std@@AAEXAAV12@@Z 004148a0 f i CrimsonWasteland2.obj
 0001:000138c0       ?_Swap_proxy_and_iterators@_Container_base12@std@@QAEXAAU12@@Z 004148c0 f i CrimsonWasteland2.obj
 0001:000138e0       ?_Swap_proxy_and_iterators_locked@_Container_base12@std@@AAEXAAU12@@Z 004148e0 f i CrimsonWasteland2.obj
 0001:00013920       ?_Swap_proxy_and_iterators_unlocked@_Container_base12@std@@AAEXAAU12@@Z 00414920 f i CrimsonWasteland2.obj
 0001:00013980       ?_Switch_to_buf@_Bxty@?$_String_val@U?$_Simple_types@D@std@@@std@@QAEXXZ 00414980 f i CrimsonWasteland2.obj
 0001:000139a0       ?_Take_contents@?$basic_string@DU?$char_traits@D@std@@V?$allocator@D@2@@std@@AAEXAAV12@@Z 004149a0 f i CrimsonWasteland2.obj
 0001:00013b70       ?_Throw_bad_array_new_length@std@@YAXXZ 00414b70 f i CrimsonWasteland2.obj
 0001:00013ba0       ?_Throw_tree_length_error@std@@YAXXZ 00414ba0 f i CrimsonWasteland2.obj
 0001:00013bc0       ?_Tidy@?$vector@V?$basic_string@DU?$char_traits@D@std@@V?$allocator@D@2@@std@@V?$allocator@V?$basic_string@DU?$char_traits@D@std@@V?$allocator@D@2@@std@@@2@@std@@AAEXXZ 00414bc0 f i CrimsonWasteland2.obj
 0001:00013cc0       ?_Tidy_deallocate@?$basic_string@DU?$char_traits@D@std@@V?$allocator@D@2@@std@@AAEXXZ 00414cc0 f i CrimsonWasteland2.obj
 0001:00013d80       ?_Unwrapped@?$_Tree_iterator@V?$_Tree_val@U?$_Tree_simple_types@U?$pair@$$CBV?$basic_string@DU?$char_traits@D@std@@V?$allocator@D@2@@std@@V?$weak_ptr@VRawImageData@@@2@@std@@@std@@@std@@@std@@QBE?AV?$_Tree_unchecked_iterator@V?$_Tree_val@U?$_Tree_simple_types@U?$pair@$$CBV?$basic_string@DU?$char_traits@D@std@@V?$allocator@D@2@@std@@V?$weak_ptr@VRawImageData@@@2@@std@@@std@@@std@@@2@XZ 00414d80 f i CrimsonWasteland2.obj
 0001:00013dc0       ?_Unwrapped@?$_Vector_iterator@V?$_Vector_val@U?$_Simple_types@PAVDisplayableObject@@@std@@@std@@@std@@QBEPAPAVDisplayableObject@@XZ 00414dc0 f i CrimsonWasteland2.obj
 0001:00013de0       ?_Unwrapped@?$_Vector_iterator@V?$_Vector_val@U?$_Simple_types@V?$basic_string@DU?$char_traits@D@std@@V?$allocator@D@2@@std@@@std@@@std@@@std@@QBEPAV?$basic_string@DU?$char_traits@D@std@@V?$allocator@D@2@@2@XZ 00414de0 f i CrimsonWasteland2.obj
 0001:00013e00       ?_Use_count@_Ref_count_base@std@@QBEJXZ 00414e00 f i CrimsonWasteland2.obj
 0001:00013e20       ?_Verify_range@std@@YAXABV?$_Vector_const_iterator@V?$_Vector_val@U?$_Simple_types@PAVDisplayableObject@@@std@@@std@@@1@0@Z 00414e20 f i CrimsonWasteland2.obj
 0001:00013f20       ?_Verify_range@std@@YAXABV?$_Vector_const_iterator@V?$_Vector_val@U?$_Simple_types@V?$basic_string@DU?$char_traits@D@std@@V?$allocator@D@2@@std@@@std@@@std@@@1@0@Z 00414f20 f i CrimsonWasteland2.obj
 0001:00014020       ?_Xlen_string@std@@YAXXZ   00415020 f i CrimsonWasteland2.obj
 0001:00014040       ?_Xlength@?$vector@PAVDisplayableObject@@V?$allocator@PAVDisplayableObject@@@std@@@std@@CAXXZ 00415040 f i CrimsonWasteland2.obj
 0001:00014060       ?_Xlength@?$vector@V?$basic_string@DU?$char_traits@D@std@@V?$allocator@D@2@@std@@V?$allocator@V?$basic_string@DU?$char_traits@D@std@@V?$allocator@D@2@@std@@@2@@std@@CAXXZ 00415060 f i CrimsonWasteland2.obj
 0001:00014080       ?__empty_global_delete@@YAXPAX@Z 00415080 f i CrimsonWasteland2.obj
 0001:00014090       ?__empty_global_delete@@YAXPAXI@Z 00415090 f i CrimsonWasteland2.obj
 0001:000140a0       ?allocate@?$allocator@D@std@@QAEPADI@Z 004150a0 f i CrimsonWasteland2.obj
 0001:000140d0       ?allocate@?$allocator@PAVDisplayableObject@@@std@@QAEPAPAVDisplayableObject@@I@Z 004150d0 f i CrimsonWasteland2.obj
 0001:00014100       ?allocate@?$allocator@U?$_Tree_node@U?$pair@$$CBV?$basic_string@DU?$char_traits@D@std@@V?$allocator@D@2@@std@@V?$shared_ptr@VRawImageData@@@2@@std@@PAX@std@@@std@@QAEPAU?$_Tree_node@U?$pair@$$CBV?$basic_string@DU?$char_traits@D@std@@V?$allocator@D@2@@std@@V?$shared_ptr@VRawImageData@@@2@@std@@PAX@2@I@Z 00415100 f i CrimsonWasteland2.obj
 0001:00014130       ?allocate@?$allocator@U?$_Tree_node@U?$pair@$$CBV?$basic_string@DU?$char_traits@D@std@@V?$allocator@D@2@@std@@V?$weak_ptr@VRawImageData@@@2@@std@@PAX@std@@@std@@QAEPAU?$_Tree_node@U?$pair@$$CBV?$basic_string@DU?$char_traits@D@std@@V?$allocator@D@2@@std@@V?$weak_ptr@VRawImageData@@@2@@std@@PAX@2@I@Z 00415130 f i CrimsonWasteland2.obj
 0001:00014160       ?allocate@?$allocator@U_Container_proxy@std@@@std@@QAEPAU_Container_proxy@2@I@Z 00415160 f i CrimsonWasteland2.obj
 0001:00014190       ?allocate@?$allocator@V?$basic_string@DU?$char_traits@D@std@@V?$allocator@D@2@@std@@@std@@QAEPAV?$basic_string@DU?$char_traits@D@std@@V?$allocator@D@2@@2@I@Z 00415190 f i CrimsonWasteland2.obj
 0001:000141c0       ?append@?$basic_string@DU?$char_traits@D@std@@V?$allocator@D@2@@std@@QAEAAV12@QBD@Z 004151c0 f i CrimsonWasteland2.obj
 0001:00014200       ?append@?$basic_string@DU?$char_traits@D@std@@V?$allocator@D@2@@std@@QAEAAV12@QBDI@Z 00415200 f i CrimsonWasteland2.obj
 0001:000142c0       ?assign@?$_Narrow_char_traits@DH@std@@SAXAADABD@Z 004152c0 f i CrimsonWasteland2.obj
 0001:000142e0       ?assign@?$basic_string@DU?$char_traits@D@std@@V?$allocator@D@2@@std@@QAEAAV12@QBD@Z 004152e0 f i CrimsonWasteland2.obj
 0001:00014320       ?assign@?$basic_string@DU?$char_traits@D@std@@V?$allocator@D@2@@std@@QAEAAV12@QBDI@Z 00415320 f i CrimsonWasteland2.obj
 0001:000143c0       ?begin@?$initializer_list@V?$basic_string@DU?$char_traits@D@std@@V?$allocator@D@2@@std@@@std@@QBEPBV?$basic_string@DU?$char_traits@D@std@@V?$allocator@D@2@@2@XZ 004153c0 f i CrimsonWasteland2.obj
 0001:000143e0       ?begin@?$vector@PAVDisplayableObject@@V?$allocator@PAVDisplayableObject@@@std@@@std@@QAE?AV?$_Vector_iterator@V?$_Vector_val@U?$_Simple_types@PAVDisplayableObject@@@std@@@std@@@2@XZ 004153e0 f i CrimsonWasteland2.obj
 0001:00014430       ?begin@?$vector@PAVDisplayableObject@@V?$allocator@PAVDisplayableObject@@@std@@@std@@QBE?AV?$_Vector_const_iterator@V?$_Vector_val@U?$_Simple_types@PAVDisplayableObject@@@std@@@std@@@2@XZ 00415430 f i CrimsonWasteland2.obj
 0001:00014480       ?begin@?$vector@V?$basic_string@DU?$char_traits@D@std@@V?$allocator@D@2@@std@@V?$allocator@V?$basic_string@DU?$char_traits@D@std@@V?$allocator@D@2@@std@@@2@@std@@QAE?AV?$_Vector_iterator@V?$_Vector_val@U?$_Simple_types@V?$basic_string@DU?$char_traits@D@std@@V?$allocator@D@2@@std@@@std@@@std@@@2@XZ 00415480 f i CrimsonWasteland2.obj
 0001:000144d0       ?c_str@?$basic_string@DU?$char_traits@D@std@@V?$allocator@D@2@@std@@QBEPBDXZ 004154d0 f i CrimsonWasteland2.obj
 0001:000144f0       ?calculate@MovementPosition@@QAEXH@Z 004154f0 f i CrimsonWasteland2.obj
 0001:000145e0       ?canMoveTo@Bullet@@AAE_NHH@Z 004155e0 f i CrimsonWasteland2.obj
 0001:00014640       ?canMoveTo@Player@@QAE_NHH@Z 00415640 f i CrimsonWasteland2.obj
 0001:00014830       ?canMoveTo@Zombie@@QAE_NHH@Z 00415830 f i CrimsonWasteland2.obj
 0001:00014970       ?capacity@?$vector@PAVDisplayableObject@@V?$allocator@PAVDisplayableObject@@@std@@@std@@QBEIXZ 00415970 f i CrimsonWasteland2.obj
 0001:000149a0       ?changeOffset@FilterPointsTranslation@@QAEXHH@Z 004159a0 f i CrimsonWasteland2.obj
 0001:000149e0       ?changePixelColour@ImagePixelMapping@@UAE_NHHAAHPAVDrawingSurface@@@Z 004159e0 f i CrimsonWasteland2.obj
 0001:00014a00       ?checkWritable@DrawingSurface@@QAEXXZ 00415a00 f i CrimsonWasteland2.obj
 0001:00014a50       ?collidePlayer@Zombie@@QAE_NHHHH@Z 00415a50 f i CrimsonWasteland2.obj
 0001:00014ad0       ?compare@?$_Narrow_char_traits@DH@std@@SAHQBD0I@Z 00415ad0 f i CrimsonWasteland2.obj
 0001:00014af0       ?compare@?$basic_string@DU?$char_traits@D@std@@V?$allocator@D@2@@std@@QBEHABV12@@Z 00415af0 f i CrimsonWasteland2.obj
 0001:00014b40       ?compress@FilterPointsScaling@@QAEXXZ 00415b40 f i CrimsonWasteland2.obj
 0001:00014b70       ?compressX@FilterPointsScaling@@QAEXXZ 00415b70 f i CrimsonWasteland2.obj
 0001:00014bc0       ?compressY@FilterPointsScaling@@QAEXXZ 00415bc0 f i CrimsonWasteland2.obj
 0001:00014c10       ?convertClickedToVirtualPixelXPosition@BaseEngine@@QAEHH@Z 00415c10 f i CrimsonWasteland2.obj
 0001:00014c40       ?convertClickedToVirtualPixelYPosition@BaseEngine@@QAEHH@Z 00415c40 f i CrimsonWasteland2.obj
 0001:00014c70       ?convertRealToVirtualXPosition@DrawingSurface@@QAEHH@Z 00415c70 f i CrimsonWasteland2.obj
 0001:00014cb0       ?convertRealToVirtualYPosition@DrawingSurface@@QAEHH@Z 00415cb0 f i CrimsonWasteland2.obj
 0001:00014cf0       ?copy@?$_Char_traits@DH@std@@SAPADQADQBDI@Z 00415cf0 f i CrimsonWasteland2.obj
 0001:00014d20       ?copyBackgroundPixels@BaseEngine@@UAEXHHHH@Z 00415d20 f i CrimsonWasteland2.obj
 0001:00014d70       ?createObjectArray@DisplayableObjectContainer@@QAEXH@Z 00415d70 f i CrimsonWasteland2.obj
 0001:00014dc0       ?data@?$basic_string@DU?$char_traits@D@std@@V?$allocator@D@2@@std@@QBEPBDXZ 00415dc0 f i CrimsonWasteland2.obj
 0001:00014de0       ?deallocate@?$_Default_allocator_traits@V?$allocator@U?$_Tree_node@U?$pair@$$CBV?$basic_string@DU?$char_traits@D@std@@V?$allocator@D@2@@std@@V?$weak_ptr@VRawImageData@@@2@@std@@PAX@std@@@std@@@std@@SAXAAV?$allocator@U?$_Tree_node@U?$pair@$$CBV?$basic_string@DU?$char_traits@D@std@@V?$allocator@D@2@@std@@V?$weak_ptr@VRawImageData@@@2@@std@@PAX@std@@@2@QAU?$_Tree_node@U?$pair@$$CBV?$basic_string@DU?$char_traits@D@std@@V?$allocator@D@2@@std@@V?$weak_ptr@VRawImageData@@@2@@std@@PAX@2@I@Z 00415de0 f i CrimsonWasteland2.obj
 0001:00014e00       ?deallocate@?$_Default_allocator_traits@V?$allocator@U_Container_proxy@std@@@std@@@std@@SAXAAV?$allocator@U_Container_proxy@std@@@2@QAU_Container_proxy@2@I@Z 00415e00 f i CrimsonWasteland2.obj
 0001:00014e20       ?deallocate@?$allocator@D@std@@QAEXQADI@Z 00415e20 f i CrimsonWasteland2.obj
 0001:00014ec0       ?deallocate@?$allocator@PAVDisplayableObject@@@std@@QAEXQAPAVDisplayableObject@@I@Z 00415ec0 f i CrimsonWasteland2.obj
 0001:00014f60       ?deallocate@?$allocator@U?$_Tree_node@U?$pair@$$CBV?$basic_string@DU?$char_traits@D@std@@V?$allocator@D@2@@std@@V?$shared_ptr@VRawImageData@@@2@@std@@PAX@std@@@std@@QAEXQAU?$_Tree_node@U?$pair@$$CBV?$basic_string@DU?$char_traits@D@std@@V?$allocator@D@2@@std@@V?$shared_ptr@VRawImageData@@@2@@std@@PAX@2@I@Z 00415f60 f i CrimsonWasteland2.obj
 0001:00015000       ?deallocate@?$allocator@U?$_Tree_node@U?$pair@$$CBV?$basic_string@DU?$char_traits@D@std@@V?$allocator@D@2@@std@@V?$weak_ptr@VRawImageData@@@2@@std@@PAX@std@@@std@@QAEXQAU?$_Tree_node@U?$pair@$$CBV?$basic_string@DU?$char_traits@D@std@@V?$allocator@D@2@@std@@V?$weak_ptr@VRawImageData@@@2@@std@@PAX@2@I@Z 00416000 f i CrimsonWasteland2.obj
 0001:000150a0       ?deallocate@?$allocator@V?$basic_string@DU?$char_traits@D@std@@V?$allocator@D@2@@std@@@std@@QAEXQAV?$basic_string@DU?$char_traits@D@std@@V?$allocator@D@2@@2@I@Z 004160a0 f i CrimsonWasteland2.obj
 0001:00015140       ?deleteOnRemoval@DisplayableObject@@UBE_NXZ 00416140 f i CrimsonWasteland2.obj
 0001:00015160       ?destroyOldObjects@DisplayableObjectContainer@@UAEX_N@Z 00416160 f i CrimsonWasteland2.obj
 0001:00015250       ?drawForegroundOval@BaseEngine@@QAEXHHHHI@Z 00416250 f i CrimsonWasteland2.obj
 0001:00015290       ?drawForegroundRectangle@BaseEngine@@QAEXHHHHI@Z 00416290 f i CrimsonWasteland2.obj
 0001:000152d0       ?drawForegroundString@BaseEngine@@QAEXHHPBDIPAVFont@@@Z 004162d0 f i CrimsonWasteland2.obj
 0001:00015310       ?drawableObjectsChanged@DisplayableObjectContainer@@QAEXXZ 00416310 f i CrimsonWasteland2.obj
 0001:00015330       ?end@?$_Tree@V?$_Tmap_traits@V?$basic_string@DU?$char_traits@D@std@@V?$allocator@D@2@@std@@V?$weak_ptr@VRawImageData@@@2@U?$less@V?$basic_string@DU?$char_traits@D@std@@V?$allocator@D@2@@std@@@2@V?$allocator@U?$pair@$$CBV?$basic_string@DU?$char_traits@D@std@@V?$allocator@D@2@@std@@V?$weak_ptr@VRawImageData@@@2@@std@@@2@$0A@@std@@@std@@QAE?AV?$_Tree_iterator@V?$_Tree_val@U?$_Tree_simple_types@U?$pair@$$CBV?$basic_string@DU?$char_traits@D@std@@V?$allocator@D@2@@std@@V?$weak_ptr@VRawImageData@@@2@@std@@@std@@@std@@@2@XZ 00416330 f i CrimsonWasteland2.obj
 0001:00015370       ?end@?$initializer_list@V?$basic_string@DU?$char_traits@D@std@@V?$allocator@D@2@@std@@@std@@QBEPBV?$basic_string@DU?$char_traits@D@std@@V?$allocator@D@2@@2@XZ 00416370 f i CrimsonWasteland2.obj
 0001:00015390       ?end@?$vector@PAVDisplayableObject@@V?$allocator@PAVDisplayableObject@@@std@@@std@@QAE?AV?$_Vector_iterator@V?$_Vector_val@U?$_Simple_types@PAVDisplayableObject@@@std@@@std@@@2@XZ 00416390 f i CrimsonWasteland2.obj
 0001:000153e0       ?end@?$vector@PAVDisplayableObject@@V?$allocator@PAVDisplayableObject@@@std@@@std@@QBE?AV?$_Vector_const_iterator@V?$_Vector_val@U?$_Simple_types@PAVDisplayableObject@@@std@@@std@@@2@XZ 004163e0 f i CrimsonWasteland2.obj
 0001:00015430       ?end@?$vector@V?$basic_string@DU?$char_traits@D@std@@V?$allocator@D@2@@std@@V?$allocator@V?$basic_string@DU?$char_traits@D@std@@V?$allocator@D@2@@std@@@2@@std@@QAE?AV?$_Vector_iterator@V?$_Vector_val@U?$_Simple_types@V?$basic_string@DU?$char_traits@D@std@@V?$allocator@D@2@@std@@@std@@@std@@@2@XZ 00416430 f i CrimsonWasteland2.obj
 0001:00015480       ?eof@?$_Narrow_char_traits@DH@std@@SAHXZ 00416480 f i CrimsonWasteland2.obj
 0001:00015490       ?eq_int_type@?$_Narrow_char_traits@DH@std@@SA_NHH@Z 00416490 f i CrimsonWasteland2.obj
 0001:000154c0       ?erase@?$vector@PAVDisplayableObject@@V?$allocator@PAVDisplayableObject@@@std@@@std@@QAE?AV?$_Vector_iterator@V?$_Vector_val@U?$_Simple_types@PAVDisplayableObject@@@std@@@std@@@2@V?$_Vector_const_iterator@V?$_Vector_val@U?$_Simple_types@PAVDisplayableObject@@@std@@@std@@@2@@Z 004164c0 f i CrimsonWasteland2.obj
 0001:00015670       ?expired@?$weak_ptr@VRawImageData@@@std@@QBE_NXZ 00416670 f i CrimsonWasteland2.obj
 0001:000156b0       ?fillBackground@BaseEngine@@UAEXI@Z 004166b0 f i CrimsonWasteland2.obj
 0001:000156e0       ?fillSurface@DrawingSurface@@QAEXI@Z 004166e0 f i CrimsonWasteland2.obj
 0001:00015770       ?filter@BaseEngine@@UAE_NPAVDrawingSurface@@AAH1AAI_N@Z 00416770 f i CrimsonWasteland2.obj
 0001:00015830       ?filter@FilterPointsScaling@@UAE_NPAVDrawingSurface@@AAH1AAI_N@Z 00416830 f i CrimsonWasteland2.obj
 0001:00015870       ?filter@FilterPointsTranslation@@UAE_NPAVDrawingSurface@@AAH1AAI_N@Z 00416870 f i CrimsonWasteland2.obj
 0001:00015910       ?filterConvertRealToVirtualXPosition@FilterPoints@@UAEHH@Z 00416910 f i CrimsonWasteland2.obj
 0001:00015930       ?filterConvertRealToVirtualXPosition@FilterPointsScaling@@UAEHH@Z 00416930 f i CrimsonWasteland2.obj
 0001:000159a0       ?filterConvertRealToVirtualXPosition@FilterPointsTranslation@@UAEHH@Z 004169a0 f i CrimsonWasteland2.obj
 0001:000159f0       ?filterConvertRealToVirtualYPosition@FilterPoints@@UAEHH@Z 004169f0 f i CrimsonWasteland2.obj
 0001:00015a10       ?filterConvertRealToVirtualYPosition@FilterPointsScaling@@UAEHH@Z 00416a10 f i CrimsonWasteland2.obj
 0001:00015a80       ?filterConvertRealToVirtualYPosition@FilterPointsTranslation@@UAEHH@Z 00416a80 f i CrimsonWasteland2.obj
 0001:00015ad0       ?filterConvertVirtualToRealXPosition@FilterPoints@@UAEHH@Z 00416ad0 f i CrimsonWasteland2.obj
 0001:00015af0       ?filterConvertVirtualToRealXPosition@FilterPointsScaling@@UAEHH@Z 00416af0 f i CrimsonWasteland2.obj
 0001:00015ba0       ?filterConvertVirtualToRealXPosition@FilterPointsTranslation@@UAEHH@Z 00416ba0 f i CrimsonWasteland2.obj
 0001:00015bf0       ?filterConvertVirtualToRealYPosition@FilterPoints@@UAEHH@Z 00416bf0 f i CrimsonWasteland2.obj
 0001:00015c10       ?filterConvertVirtualToRealYPosition@FilterPointsScaling@@UAEHH@Z 00416c10 f i CrimsonWasteland2.obj
 0001:00015cc0       ?filterConvertVirtualToRealYPosition@FilterPointsTranslation@@UAEHH@Z 00416cc0 f i CrimsonWasteland2.obj
 0001:00015d10       ?find@?$_Tree@V?$_Tmap_traits@V?$basic_string@DU?$char_traits@D@std@@V?$allocator@D@2@@std@@V?$weak_ptr@VRawImageData@@@2@U?$less@V?$basic_string@DU?$char_traits@D@std@@V?$allocator@D@2@@std@@@2@V?$allocator@U?$pair@$$CBV?$basic_string@DU?$char_traits@D@std@@V?$allocator@D@2@@std@@V?$weak_ptr@VRawImageData@@@2@@std@@@2@$0A@@std@@@std@@QAE?AV?$_Tree_iterator@V?$_Tree_val@U?$_Tree_simple_types@U?$pair@$$CBV?$basic_string@DU?$char_traits@D@std@@V?$allocator@D@2@@std@@V?$weak_ptr@VRawImageData@@@2@@std@@@std@@@std@@@2@ABV?$basic_string@DU?$char_traits@D@std@@V?$allocator@D@2@@2@@Z 00416d10 f i CrimsonWasteland2.obj
 0001:00015d60       ?freeSurface@RawImageData@@QAEXXZ 00416d60 f i CrimsonWasteland2.obj
 0001:00015de0       ?front@?$vector@V?$basic_string@DU?$char_traits@D@std@@V?$allocator@D@2@@std@@V?$allocator@V?$basic_string@DU?$char_traits@D@std@@V?$allocator@D@2@@std@@@2@@std@@QAEAAV?$basic_string@DU?$char_traits@D@std@@V?$allocator@D@2@@2@XZ 00416de0 f i CrimsonWasteland2.obj
 0001:00015e80       ?get@?$_Ptr_base@VRawImageData@@@std@@IBEPAVRawImageData@@XZ 00416e80 f i CrimsonWasteland2.obj
 0001:00015ea0       ?get@ImageManager@@SAPAV1@XZ 00416ea0 f i CrimsonWasteland2.obj
 0001:00015f50       ?getBackgroundSurface@BaseEngine@@QAEPAVDrawingSurface@@XZ 00416f50 f i CrimsonWasteland2.obj
 0001:00015f70       ?getCurrentScreenX@Player@@QBEHXZ 00416f70 f i CrimsonWasteland2.obj
 0001:00015f90       ?getCurrentScreenY@Player@@QBEHXZ 00416f90 f i CrimsonWasteland2.obj
 0001:00015fb0       ?getEngine@DisplayableObject@@QBEPAVBaseEngine@@XZ 00416fb0 f i CrimsonWasteland2.obj
 0001:00015fd0       ?getForegroundSurface@BaseEngine@@QAEPAVDrawingSurface@@XZ 00416fd0 f i CrimsonWasteland2.obj
 0001:00015ff0       ?getHeight@RawImageData@@QBEHXZ 00416ff0 f i CrimsonWasteland2.obj
 0001:00016010       ?getHeight@SimpleImage@@QBEHXZ 00417010 f i CrimsonWasteland2.obj
 0001:00016040       ?getImagePtrbyURL@ImageManager@@QAE?AV?$shared_ptr@VRawImageData@@@std@@V?$basic_string@DU?$char_traits@D@std@@V?$allocator@D@2@@3@_N1@Z 00417040 f i CrimsonWasteland2.obj
 0001:00016480       ?getImagebyURL@ImageManager@@QAE?AVSimpleImage@@V?$basic_string@DU?$char_traits@D@std@@V?$allocator@D@2@@std@@_N1@Z 00417480 f i CrimsonWasteland2.obj
 0001:00016550       ?getIntsPerWindowRow@DrawingSurface@@QBEIXZ 00417550 f i CrimsonWasteland2.obj
 0001:00016570       ?getMapValue@TileManager@@QBEHHH@Z 00417570 f i CrimsonWasteland2.obj
 0001:000165a0       ?getModifiedTime@BaseEngine@@UBEHXZ 004175a0 f i CrimsonWasteland2.obj
 0001:000165e0       ?getPlayerLives@CrimsonWasteland2@@QBEHXZ 004175e0 f i CrimsonWasteland2.obj
 0001:00016600       ?getRawTime@BaseEngine@@QBEHXZ 00417600 f i CrimsonWasteland2.obj
 0001:00016620       ?getSurfaceHeight@DrawingSurface@@QBEHXZ 00417620 f i CrimsonWasteland2.obj
 0001:00016640       ?getSurfaceWidth@DrawingSurface@@QBEHXZ 00417640 f i CrimsonWasteland2.obj
 0001:00016660       ?getTileManager@Player@@QAEAAVCrimsonWasteland2TileManager@@XZ 00417660 f i CrimsonWasteland2.obj
 0001:00016680       ?getWidth@RawImageData@@QBEHXZ 00417680 f i CrimsonWasteland2.obj
 0001:000166a0       ?getWidth@SimpleImage@@QBEHXZ 004176a0 f i CrimsonWasteland2.obj
 0001:000166d0       ?getWindowHeight@BaseEngine@@QBEHXZ 004176d0 f i CrimsonWasteland2.obj
 0001:000166f0       ?getWindowWidth@BaseEngine@@QBEHXZ 004176f0 f i CrimsonWasteland2.obj
 0001:00016710       ?getXForRotationAndCrop@RawImageData@@SAHHHHHHH@Z 00417710 f i CrimsonWasteland2.obj
 0001:00016780       ?getYForRotationAndCrop@RawImageData@@SAHHHHHHH@Z 00417780 f i CrimsonWasteland2.obj
 0001:000167f0       ?handleShooting@Player@@QAEXH@Z 004177f0 f i CrimsonWasteland2.obj
 0001:000169d0       ?handleXthenY@FilterPointsScaling@@AAEXPAVDrawingSurface@@HHAAI@Z 004179d0 f i CrimsonWasteland2.obj
 0001:00016a80       ?handleY@FilterPointsScaling@@AAEXPAVDrawingSurface@@HHAAI@Z 00417a80 f i CrimsonWasteland2.obj
 0001:00016bc0       ?isExitTile@CrimsonWasteland2TileManager@@QBE_NHH@Z 00417bc0 f i CrimsonWasteland2.obj
 0001:00016c10       ?isPaused@BaseEngine@@QAE_NXZ 00417c10 f i CrimsonWasteland2.obj
 0001:00016c50       ?isShotFired@Player@@QBE_NXZ 00417c50 f i CrimsonWasteland2.obj
 0001:00016c70       ?isVisible@DisplayableObject@@QBE_NXZ 00417c70 f i CrimsonWasteland2.obj
 0001:00016c90       ?isWalkable@CrimsonWasteland2TileManager@@QBE_NHH@Z 00417c90 f i CrimsonWasteland2.obj
 0001:00016d10       ?length@?$_Narrow_char_traits@DH@std@@SAIQBD@Z 00417d10 f i CrimsonWasteland2.obj
 0001:00016d30       ?length@?$basic_string@DU?$char_traits@D@std@@V?$allocator@D@2@@std@@QBEIXZ 00417d30 f i CrimsonWasteland2.obj
 0001:00016d50       ?loadAsNew@ImageManager@@QAE?AV?$shared_ptr@VRawImageData@@@std@@V?$basic_string@DU?$char_traits@D@std@@V?$allocator@D@2@@3@@Z 00417d50 f i CrimsonWasteland2.obj
 0001:00016f20       ?loadImage@ImageManager@@SA?AVSimpleImage@@V?$basic_string@DU?$char_traits@D@std@@V?$allocator@D@2@@std@@_N@Z 00417f20 f i CrimsonWasteland2.obj
 0001:00016fe0       ?loadImage@RawImageData@@QAE_NV?$basic_string@DU?$char_traits@D@std@@V?$allocator@D@2@@std@@HHHHH_N@Z 00417fe0 f i CrimsonWasteland2.obj
 0001:000172f0       ?lock@?$weak_ptr@VRawImageData@@@std@@QBE?AV?$shared_ptr@VRawImageData@@@2@XZ 004182f0 f i CrimsonWasteland2.obj
 0001:00017340       ?lockAndSetupBackground@BaseEngine@@QAEXXZ 00418340 f i CrimsonWasteland2.obj
 0001:00017380       ?lockBackgroundForDrawing@BaseEngine@@QAEXXZ 00418380 f i CrimsonWasteland2.obj
 0001:000173a0       ?mapCoordinates@ImagePixelMappingRotate@@UAE_NAAN0ABVSimpleImage@@@Z 004183a0 f i CrimsonWasteland2.obj
 0001:00017690       ?mapCoordinates@ImagePixelMappingShiftXY@@UAE_NAAN0ABVSimpleImage@@@Z 00418690 f i CrimsonWasteland2.obj
 0001:00017860       ?max@?$numeric_limits@H@std@@SAHXZ 00418860 f i CrimsonWasteland2.obj
 0001:00017870       ?max_size@?$_Default_allocator_traits@V?$allocator@D@std@@@std@@SAIABV?$allocator@D@2@@Z 00418870 f i CrimsonWasteland2.obj
 0001:00017880       ?max_size@?$_Default_allocator_traits@V?$allocator@PAVDisplayableObject@@@std@@@std@@SAIABV?$allocator@PAVDisplayableObject@@@2@@Z 00418880 f i CrimsonWasteland2.obj
 0001:00017890       ?max_size@?$_Default_allocator_traits@V?$allocator@U?$_Tree_node@U?$pair@$$CBV?$basic_string@DU?$char_traits@D@std@@V?$allocator@D@2@@std@@V?$shared_ptr@VRawImageData@@@2@@std@@PAX@std@@@std@@@std@@SAIABV?$allocator@U?$_Tree_node@U?$pair@$$CBV?$basic_string@DU?$char_traits@D@std@@V?$allocator@D@2@@std@@V?$shared_ptr@VRawImageData@@@2@@std@@PAX@std@@@2@@Z 00418890 f i CrimsonWasteland2.obj
 0001:000178a0       ?max_size@?$_Default_allocator_traits@V?$allocator@U?$_Tree_node@U?$pair@$$CBV?$basic_string@DU?$char_traits@D@std@@V?$allocator@D@2@@std@@V?$weak_ptr@VRawImageData@@@2@@std@@PAX@std@@@std@@@std@@SAIABV?$allocator@U?$_Tree_node@U?$pair@$$CBV?$basic_string@DU?$char_traits@D@std@@V?$allocator@D@2@@std@@V?$weak_ptr@VRawImageData@@@2@@std@@PAX@std@@@2@@Z 004188a0 f i CrimsonWasteland2.obj
 0001:000178b0       ?max_size@?$_Default_allocator_traits@V?$allocator@V?$basic_string@DU?$char_traits@D@std@@V?$allocator@D@2@@std@@@std@@@std@@SAIABV?$allocator@V?$basic_string@DU?$char_traits@D@std@@V?$allocator@D@2@@std@@@2@@Z 004188b0 f i CrimsonWasteland2.obj
 0001:000178c0       ?max_size@?$_Tree@V?$_Tmap_traits@V?$basic_string@DU?$char_traits@D@std@@V?$allocator@D@2@@std@@V?$shared_ptr@VRawImageData@@@2@U?$less@V?$basic_string@DU?$char_traits@D@std@@V?$allocator@D@2@@std@@@2@V?$allocator@U?$pair@$$CBV?$basic_string@DU?$char_traits@D@std@@V?$allocator@D@2@@std@@V?$shared_ptr@VRawImageData@@@2@@std@@@2@$0A@@std@@@std@@QBEIXZ 004188c0 f i CrimsonWasteland2.obj
 0001:00017910       ?max_size@?$_Tree@V?$_Tmap_traits@V?$basic_string@DU?$char_traits@D@std@@V?$allocator@D@2@@std@@V?$weak_ptr@VRawImageData@@@2@U?$less@V?$basic_string@DU?$char_traits@D@std@@V?$allocator@D@2@@std@@@2@V?$allocator@U?$pair@$$CBV?$basic_string@DU?$char_traits@D@std@@V?$allocator@D@2@@std@@V?$weak_ptr@VRawImageData@@@2@@std@@@2@$0A@@std@@@std@@QBEIXZ 00418910 f i CrimsonWasteland2.obj
 0001:00017960       ?max_size@?$basic_string@DU?$char_traits@D@std@@V?$allocator@D@2@@std@@QBEIXZ 00418960 f i CrimsonWasteland2.obj
 0001:000179e0       ?max_size@?$vector@PAVDisplayableObject@@V?$allocator@PAVDisplayableObject@@@std@@@std@@QBEIXZ 004189e0 f i CrimsonWasteland2.obj
 0001:00017a30       ?max_size@?$vector@V?$basic_string@DU?$char_traits@D@std@@V?$allocator@D@2@@std@@V?$allocator@V?$basic_string@DU?$char_traits@D@std@@V?$allocator@D@2@@std@@@2@@std@@QBEIXZ 00418a30 f i CrimsonWasteland2.obj
 0001:00017a80       ?move@?$_Char_traits@DH@std@@SAPADQADQBDI@Z 00418a80 f i CrimsonWasteland2.obj
 0001:00017ab0       ?mySDLLockSurface@DrawingSurface@@QAEXXZ 00418ab0 f i CrimsonWasteland2.obj
 0001:00017b00       ?mySDLTempRelockSurface@DrawingSurface@@QAEXXZ 00418b00 f i CrimsonWasteland2.obj
 0001:00017b50       ?mySDLTempUnlockSurface@DrawingSurface@@QAEXXZ 00418b50 f i CrimsonWasteland2.obj
 0001:00017ba0       ?mySDLUnlockSurface@DrawingSurface@@QAEXXZ 00418ba0 f i CrimsonWasteland2.obj
 0001:00017bf0       ?pause@BaseEngine@@QAEXXZ  00418bf0 f i CrimsonWasteland2.obj
 0001:00017c20       ?pointer_to@?$pointer_traits@PAU?$pair@$$CBV?$basic_string@DU?$char_traits@D@std@@V?$allocator@D@2@@std@@V?$weak_ptr@VRawImageData@@@2@@std@@@std@@SAPAU?$pair@$$CBV?$basic_string@DU?$char_traits@D@std@@V?$allocator@D@2@@std@@V?$weak_ptr@VRawImageData@@@2@@2@AAU32@@Z 00418c20 f i CrimsonWasteland2.obj
 0001:00017c40       ?rawSetPixel@DrawingSurface@@QAEXHHI@Z 00418c40 f i CrimsonWasteland2.obj
 0001:00017cf0       ?reachedExit@CrimsonWasteland2@@QAEX_N@Z 00418cf0 f i CrimsonWasteland2.obj
 0001:00017d60       ?redrawDisplay@BaseEngine@@QAEXXZ 00418d60 f i CrimsonWasteland2.obj
 0001:00017d80       ?removeDisplayableObject@DisplayableObjectContainer@@QAE_NPAVDisplayableObject@@@Z 00418d80 f i CrimsonWasteland2.obj
 0001:00017e90       ?resetLocation@Player@@QAEXXZ 00418e90 f i CrimsonWasteland2.obj
 0001:00017ec0       ?resize@?$vector@PAVDisplayableObject@@V?$allocator@PAVDisplayableObject@@@std@@@std@@QAEXI@Z 00418ec0 f i CrimsonWasteland2.obj
 0001:00017ef0       ?select_on_container_copy_construction@?$_Default_allocator_traits@V?$allocator@D@std@@@std@@SA?AV?$allocator@D@2@ABV32@@Z 00418ef0 f i CrimsonWasteland2.obj
 0001:00017f00       ?setAllObjectsVisible@DisplayableObjectContainer@@QBEX_N@Z 00418f00 f i CrimsonWasteland2.obj
 0001:00018000       ?setDrawPointsFilter@DrawingSurface@@QAEXPAVFilterPoints@@@Z 00419000 f i CrimsonWasteland2.obj
 0001:00018020       ?setExitWithCode@BaseEngine@@QAEXH@Z 00419020 f i CrimsonWasteland2.obj
 0001:00018040       ?setMapSize@TileManager@@QAEXHH@Z 00419040 f i CrimsonWasteland2.obj
 0001:000180f0       ?setMapValue@TileManager@@QAEHHHH@Z 004190f0 f i CrimsonWasteland2.obj
 0001:00018130       ?setOffset@FilterPointsTranslation@@QAEXHH@Z 00419130 f i CrimsonWasteland2.obj
 0001:00018160       ?setPosition@DisplayableObject@@UAEXHH@Z 00419160 f i CrimsonWasteland2.obj
 0001:000181a0       ?setStretch@FilterPointsScaling@@QAEXHH@Z 004191a0 f i CrimsonWasteland2.obj
 0001:00018290       ?setTopLeftPositionOnScreen@TileManager@@QAEXHH@Z 00419290 f i CrimsonWasteland2.obj
 0001:000182c0       ?setVisible@DisplayableObject@@QAEX_N@Z 004192c0 f i CrimsonWasteland2.obj
 0001:000182e0       ?setYShift@ImagePixelMappingShiftXY@@QAEXN@Z 004192e0 f i CrimsonWasteland2.obj
 0001:00018300       ?setup@MovementPosition@@QAEXHHHHHH@Z 00419300 f i CrimsonWasteland2.obj
 0001:00018370       ?size@?$basic_string@DU?$char_traits@D@std@@V?$allocator@D@2@@std@@QBEIXZ 00419370 f i CrimsonWasteland2.obj
 0001:00018390       ?size@?$initializer_list@V?$basic_string@DU?$char_traits@D@std@@V?$allocator@D@2@@std@@@std@@QBEIXZ 00419390 f i CrimsonWasteland2.obj
 0001:000183c0       ?size@?$vector@PAVDisplayableObject@@V?$allocator@PAVDisplayableObject@@@std@@@std@@QBEIXZ 004193c0 f i CrimsonWasteland2.obj
 0001:000183f0       ?storeObjectInArray@DisplayableObjectContainer@@QAEXHPAVDisplayableObject@@@Z 004193f0 f i CrimsonWasteland2.obj
 0001:00018430       ?stretch@FilterPointsScaling@@QAEXXZ 00419430 f i CrimsonWasteland2.obj
 0001:00018460       ?stretchX@FilterPointsScaling@@QAEXXZ 00419460 f i CrimsonWasteland2.obj
 0001:000184b0       ?stretchY@FilterPointsScaling@@QAEXXZ 004194b0 f i CrimsonWasteland2.obj
 0001:00018500       ?swap@?$shared_ptr@VRawImageData@@@std@@QAEXAAV12@@Z 00419500 f i CrimsonWasteland2.obj
 0001:00018520       ?unlockBackgroundForDrawing@BaseEngine@@QAEXXZ 00419520 f i CrimsonWasteland2.obj
 0001:00018540       ?unpause@BaseEngine@@QAEXXZ 00419540 f i CrimsonWasteland2.obj
 0001:00018590       ?use_count@?$_Ptr_base@VRawImageData@@@std@@QBEJXZ 00419590 f i CrimsonWasteland2.obj
 0001:000185d0       ?virtBackgroundMouseDown@BaseEngine@@UAEXHHHHH@Z 004195d0 f i CrimsonWasteland2.obj
 0001:000185e0       ?virtDoUpdate@Bullet@@UAEXH@Z 004195e0 f i CrimsonWasteland2.obj
 0001:00018760       ?virtDoUpdate@Lives@@UAEXH@Z 00419760 f i CrimsonWasteland2.obj
 0001:00018770       ?virtDoUpdate@Player@@UAEXH@Z 00419770 f i CrimsonWasteland2.obj
 0001:00018b50       ?virtDoUpdate@Zombie@@UAEXH@Z 00419b50 f i CrimsonWasteland2.obj
 0001:00018f90       ?virtDraw@Bullet@@UAEXXZ   00419f90 f i CrimsonWasteland2.obj
 0001:00019040       ?virtDraw@ClickableImageObject@@UAEXXZ 0041a040 f i CrimsonWasteland2.obj
 0001:000190c0       ?virtDraw@ImageObject@@UAEXXZ 0041a0c0 f i CrimsonWasteland2.obj
 0001:00019140       ?virtDraw@Lives@@UAEXXZ    0041a140 f i CrimsonWasteland2.obj
 0001:000192b0       ?virtDraw@Player@@UAEXXZ   0041a2b0 f i CrimsonWasteland2.obj
 0001:000197f0       ?virtDraw@TextBoxObject@@UAEXXZ 0041a7f0 f i CrimsonWasteland2.obj
 0001:00019940       ?virtDraw@Zombie@@UAEXXZ   0041a940 f i CrimsonWasteland2.obj
 0001:00019b20       ?virtIsPositionWithinObject@DisplayableObject@@UAE_NHH@Z 0041ab20 f i CrimsonWasteland2.obj
 0001:00019bb0       ?virtKeyDown@DisplayableObject@@UAEXH@Z 0041abb0 f i CrimsonWasteland2.obj
 0001:00019bc0       ?virtKeyUp@DisplayableObject@@UAEXH@Z 0041abc0 f i CrimsonWasteland2.obj
 0001:00019bd0       ?virtMainLoopDoAfterUpdate@BaseEngine@@UAEXXZ 0041abd0 f i CrimsonWasteland2.obj
 0001:00019be0       ?virtMainLoopPostUpdate@BaseEngine@@UAEXXZ 0041abe0 f i CrimsonWasteland2.obj
 0001:00019bf0       ?virtMainLoopPreUpdate@BaseEngine@@UAEXXZ 0041abf0 f i CrimsonWasteland2.obj
 0001:00019c00       ?virtMainLoopStartIteration@BaseEngine@@UAEXXZ 0041ac00 f i CrimsonWasteland2.obj
 0001:00019c10       ?virtMouseDown@ClickableImageObject@@UAEXHHH@Z 0041ac10 f i CrimsonWasteland2.obj
 0001:00019ce0       ?virtMouseDown@DisplayableObject@@UAEXHHH@Z 0041ace0 f i CrimsonWasteland2.obj
 0001:00019cf0       ?virtMouseMoved@DisplayableObject@@UAEXHH@Z 0041acf0 f i CrimsonWasteland2.obj
 0001:00019d00       ?virtMouseUp@DisplayableObject@@UAEXHHH@Z 0041ad00 f i CrimsonWasteland2.obj
 0001:00019d10       ?virtNotify@DisplayableObject@@UAEJHHH@Z 0041ad10 f i CrimsonWasteland2.obj
 0001:00019d30       ?virtPostDraw@BaseEngine@@UAEXXZ 0041ad30 f i CrimsonWasteland2.obj
 0001:00019d40       ?virtPreDraw@BaseEngine@@UAEXXZ 0041ad40 f i CrimsonWasteland2.obj
 0001:00019d50       ?virtRealMouseDown@BaseEngine@@UAEXHHH@Z 0041ad50 f i CrimsonWasteland2.obj
 0001:00019d60       ?virtRealMouseUp@BaseEngine@@UAEXHHH@Z 0041ad60 f i CrimsonWasteland2.obj
 0001:00019d70       ?virtSingleItemMouseDown@DisplayableObject@@UAE_NHHH@Z 0041ad70 f i CrimsonWasteland2.obj
 0001:00019d90       ?virtTouchEvent@BaseEngine@@UAEXHH_J0MMMMM@Z 0041ad90 f i CrimsonWasteland2.obj
 0001:00019da0       ?what@exception@std@@UBEPBDXZ 0041ada0 f i CrimsonWasteland2.obj
 0001:00019de0       ?zombieCollide@CrimsonWasteland2@@QAEX_N@Z 0041ade0 f i CrimsonWasteland2.obj
 0001:00019e40       ___local_stdio_printf_options 0041ae40 f i CrimsonWasteland2.obj
 0001:00019e50       __vfprintf_l               0041ae50 f i CrimsonWasteland2.obj
 0001:00019e90       __vsnprintf_l              0041ae90 f i CrimsonWasteland2.obj
 0001:00019f00       __vsprintf_l               0041af00 f i CrimsonWasteland2.obj
 0001:00019f30       _printf                    0041af30 f i CrimsonWasteland2.obj
 0001:00019f80       _sprintf                   0041af80 f i CrimsonWasteland2.obj
 0001:00019fc0       ?virtDrawTileAt@CrimsonWasteland2TileManager@@UBEXPAVBaseEngine@@PAVDrawingSurface@@HHHH@Z 0041afc0 f   CrimsonWasteland2TileManager.obj
 0001:0001a200       ?getTileHeight@TileManager@@QBEHXZ 0041b200 f i CrimsonWasteland2TileManager.obj
 0001:0001a220       ?getTileWidth@TileManager@@QBEHXZ 0041b220 f i CrimsonWasteland2TileManager.obj
 0001:0001a240       ?virtSetupBackgroundBuffer@DraggingDemo@@UAEXXZ 0041b240 f   DraggingDemo.obj
 0001:0001a380       ?virtInitialiseObjects@DraggingDemo@@UAEHXZ 0041b380 f   DraggingDemo.obj
 0001:0001a5d0       ?virtKeyDown@DraggingDemo@@UAEXH@Z 0041b5d0 f   DraggingDemo.obj
 0001:0001a6f0       ??0DragableBaseClassObject@@QAE@HHPAVBaseEngine@@HH_N@Z 0041b6f0 f i DraggingDemo.obj
 0001:0001a780       ??0DragableBaseClassObject@@QAE@PAVBaseEngine@@HH_N@Z 0041b780 f i DraggingDemo.obj
 0001:0001a800       ??0DragableImageObject@@QAE@HHPAVBaseEngine@@V?$basic_string@DU?$char_traits@D@std@@V?$allocator@D@2@@std@@_N2@Z 0041b800 f i DraggingDemo.obj
 0001:0001a9a0       ??0DragableObject@@QAE@HHPAVBaseEngine@@HH_N1@Z 0041b9a0 f i DraggingDemo.obj
 0001:0001aa50       ??0DragableObject@@QAE@PAVBaseEngine@@HH_N1@Z 0041ba50 f i DraggingDemo.obj
 0001:0001ab00       ??0ImageObject@@QAE@HHPAVBaseEngine@@V?$basic_string@DU?$char_traits@D@std@@V?$allocator@D@2@@std@@_N2@Z 0041bb00 f i DraggingDemo.obj
 0001:0001ac90       ??1DragableBaseClassObject@@UAE@XZ 0041bc90 f i DraggingDemo.obj
 0001:0001acb0       ??1DragableImageObject@@UAE@XZ 0041bcb0 f i DraggingDemo.obj
 0001:0001ace0       ??1DragableObject@@UAE@XZ  0041bce0 f i DraggingDemo.obj
 0001:0001ad00       ??_EDragableBaseClassObject@@UAEPAXI@Z 0041bd00 f i DraggingDemo.obj
 0001:0001ad00       ??_GDragableBaseClassObject@@UAEPAXI@Z 0041bd00 f i DraggingDemo.obj
 0001:0001ad40       ??_EDragableImageObject@@UAEPAXI@Z 0041bd40 f i DraggingDemo.obj
 0001:0001ad40       ??_GDragableImageObject@@UAEPAXI@Z 0041bd40 f i DraggingDemo.obj
 0001:0001ad80       ??_EDragableObject@@UAEPAXI@Z 0041bd80 f i DraggingDemo.obj
 0001:0001ad80       ??_GDragableObject@@UAEPAXI@Z 0041bd80 f i DraggingDemo.obj
 0001:0001adc0       ?checkDoDrag@DragableBaseClassObject@@UAEXHH@Z 0041bdc0 f i DraggingDemo.obj
 0001:0001ae40       ?checkFinishDrag@DragableBaseClassObject@@UAEXHH@Z 0041be40 f i DraggingDemo.obj
 0001:0001ae80       ?checkStartDrag@DragableBaseClassObject@@UAEXHH@Z 0041be80 f i DraggingDemo.obj
 0001:0001af00       ?doDragRedraw@DragableBaseClassObject@@UAEXXZ 0041bf00 f i DraggingDemo.obj
 0001:0001af20       ?notifyObjectsAboutMouse@BaseEngine@@QAEX_N@Z 0041bf20 f i DraggingDemo.obj
 0001:0001af40       ?setBackgroundPixel@BaseEngine@@QAEXHHI@Z 0041bf40 f i DraggingDemo.obj
 0001:0001af70       ?setPixel@DrawingSurface@@QAEXHHI@Z 0041bf70 f i DraggingDemo.obj
 0001:0001afe0       ?virtDraw@DragableImageObject@@UAEXXZ 0041bfe0 f i DraggingDemo.obj
 0001:0001b060       ?virtMouseDown@DragableImageObject@@UAEXHHH@Z 0041c060 f i DraggingDemo.obj
 0001:0001b090       ?virtMouseDown@DragableObject@@UAEXHHH@Z 0041c090 f i DraggingDemo.obj
 0001:0001b0c0       ?virtMouseMoved@DragableImageObject@@UAEXHH@Z 0041c0c0 f i DraggingDemo.obj
 0001:0001b0f0       ?virtMouseMoved@DragableObject@@UAEXHH@Z 0041c0f0 f i DraggingDemo.obj
 0001:0001b120       ?virtMouseUp@DragableImageObject@@UAEXHHH@Z 0041c120 f i DraggingDemo.obj
 0001:0001b150       ?virtMouseUp@DragableObject@@UAEXHHH@Z 0041c150 f i DraggingDemo.obj
 0001:0001b190       ??0DrawingSurface@@QAE@PAVBaseEngine@@@Z 0041c190 f   DrawingSurface.obj
 0001:0001b230       ?drawLine@DrawingSurface@@QAEXNNNNI@Z 0041c230 f   DrawingSurface.obj
 0001:0001b410       ?drawThickLine@DrawingSurface@@QAEXNNNNIH@Z 0041c410 f   DrawingSurface.obj
 0001:0001b8b0       ?drawVerticalSidedRegion@DrawingSurface@@QAEXNNNNNNI@Z 0041c8b0 f   DrawingSurface.obj
 0001:0001bc50       ?drawRectangle@DrawingSurface@@QAEXHHHHI@Z 0041cc50 f   DrawingSurface.obj
 0001:0001bd60       ?drawOval@DrawingSurface@@QAEXHHHHI@Z 0041cd60 f   DrawingSurface.obj
 0001:0001bf30       ?rawDrawOval@DrawingSurface@@QAEXHHHHI@Z 0041cf30 f   DrawingSurface.obj
 0001:0001c090       ?drawHollowOval@DrawingSurface@@QAEXHHHHHHHHI@Z 0041d090 f   DrawingSurface.obj
 0001:0001c3b0       ?drawPolygon@DrawingSurface@@QAEXHPAN0I@Z 0041d3b0 f   DrawingSurface.obj
 0001:0001cb30       ?drawFastString@DrawingSurface@@QAEXHHPBDIPAVFont@@@Z 0041db30 f   DrawingSurface.obj
 0001:0001cc20       ?drawScalableString@DrawingSurface@@QAEXHHPBDIPAVFont@@@Z 0041dc20 f   DrawingSurface.obj
 0001:0001cdf0       ?drawShortenedArrow@DrawingSurface@@QAEXHHHHHHIHH@Z 0041ddf0 f   DrawingSurface.obj
 0001:0001d370       ?drawShortenedLine@DrawingSurface@@QAEXHHHHHHIH@Z 0041e370 f   DrawingSurface.obj
 0001:0001d770       ?drawTriangle@DrawingSurface@@QAEXNNNNNNI@Z 0041e770 f   DrawingSurface.obj
 0001:0001dac0       ?copyEntireSurface@DrawingSurface@@QAEXPAV1@@Z 0041eac0 f   DrawingSurface.obj
 0001:0001db10       ?copyRectangleFrom@DrawingSurface@@QAEXPAV1@HHHHHH@Z 0041eb10 f   DrawingSurface.obj
 0001:0001dd10       ?getAngle@DrawingSurface@@SANNNNN@Z 0041ed10 f   DrawingSurface.obj
 0001:0001ddb0       ?getVirtualRedrawMinX@DrawingSurface@@QAEHXZ 0041edb0 f   DrawingSurface.obj
 0001:0001de00       ?getVirtualRedrawMinY@DrawingSurface@@QAEHXZ 0041ee00 f   DrawingSurface.obj
 0001:0001de50       ?getVirtualRedrawMaxX@DrawingSurface@@QAEHXZ 0041ee50 f   DrawingSurface.obj
 0001:0001deb0       ?getVirtualRedrawMaxY@DrawingSurface@@QAEHXZ 0041eeb0 f   DrawingSurface.obj
 0001:0001df10       ?getRealRedrawMinX@DrawingSurface@@QAEHXZ 0041ef10 f   DrawingSurface.obj
 0001:0001df60       ?getRealRedrawMinY@DrawingSurface@@QAEHXZ 0041ef60 f   DrawingSurface.obj
 0001:0001dfb0       ?getRealRedrawMaxX@DrawingSurface@@QAEHXZ 0041efb0 f   DrawingSurface.obj
 0001:0001e000       ?getRealRedrawMaxY@DrawingSurface@@QAEHXZ 0041f000 f   DrawingSurface.obj
 0001:0001ec00       ??$move@AAH@std@@YA$$QAHAAH@Z 0041fc00 f i DrawingSurface.obj
 0001:0001ec10       ??$move@AAN@std@@YA$$QANAAN@Z 0041fc10 f i DrawingSurface.obj
 0001:0001ec20       ??$swap@H$0A@@std@@YAXAAH0@Z 0041fc20 f i DrawingSurface.obj
 0001:0001ec70       ??$swap@N$0A@@std@@YAXAAN0@Z 0041fc70 f i DrawingSurface.obj
 0001:0001ecd0       ?checkBlitable@DrawingSurface@@QAEXXZ 0041fcd0 f i DrawingSurface.obj
 0001:0001ed20       ?getDefaultFont@BaseEngine@@QBEPAVFont@@XZ 0041fd20 f i DrawingSurface.obj
 0001:0001ed40       ?getRedrawAllScreen@BaseEngine@@QAEHXZ 0041fd40 f i DrawingSurface.obj
 0001:0001ed60       ?getRedrawRectRealBottom@BaseEngine@@QAEHXZ 0041fd60 f i DrawingSurface.obj
 0001:0001ed80       ?getRedrawRectRealLeft@BaseEngine@@QAEHXZ 0041fd80 f i DrawingSurface.obj
 0001:0001eda0       ?getRedrawRectRealRight@BaseEngine@@QAEHXZ 0041fda0 f i DrawingSurface.obj
 0001:0001edc0       ?getRedrawRectRealTop@BaseEngine@@QAEHXZ 0041fdc0 f i DrawingSurface.obj
 0001:0001ede0       ?getRedrawRectVirtualBottom@BaseEngine@@QAEHXZ 0041fde0 f i DrawingSurface.obj
 0001:0001ee00       ?getRedrawRectVirtualLeft@BaseEngine@@QAEHXZ 0041fe00 f i DrawingSurface.obj
 0001:0001ee20       ?getRedrawRectVirtualRight@BaseEngine@@QAEHXZ 0041fe20 f i DrawingSurface.obj
 0001:0001ee40       ?getRedrawRectVirtualTop@BaseEngine@@QAEHXZ 0041fe40 f i DrawingSurface.obj
 0001:0001ee60       ?getTTFFont@Font@@QAEPAU_TTF_Font@@XZ 0041fe60 f i DrawingSurface.obj
 0001:0001ee80       ??0FlashingDemo@@QAE@XZ    0041fe80 f   FlashingDemo.obj
 0001:0001ef40       ??1FlashingDemo@@UAE@XZ    0041ff40 f   FlashingDemo.obj
 0001:0001ef90       ?virtSetupBackgroundBuffer@FlashingDemo@@UAEXXZ 0041ff90 f   FlashingDemo.obj
 0001:0001f410       ?virtMainLoopDoBeforeUpdate@FlashingDemo@@UAEXXZ 00420410 f   FlashingDemo.obj
 0001:0001f4d0       ?virtCreateSurfaces@FlashingDemo@@UAEXXZ 004204d0 f   FlashingDemo.obj
 0001:0001f6f0       ??1DrawingSurface@@QAE@XZ  004206f0 f i FlashingDemo.obj
 0001:0001f700       ??_EFlashingDemo@@UAEPAXI@Z 00420700 f i FlashingDemo.obj
 0001:0001f700       ??_GFlashingDemo@@UAEPAXI@Z 00420700 f i FlashingDemo.obj
 0001:0001f740       ?copyAllBackgroundBuffer@BaseEngine@@UAEXXZ 00420740 f i FlashingDemo.obj
 0001:0001f770       ?createSurface@DrawingSurface@@QAEXHH@Z 00420770 f i FlashingDemo.obj
 0001:0001f7c0       ?virtMouseWheel@BaseEngine@@UAEXHHHH@Z 004207c0 f i FlashingDemo.obj
 0001:0001f7d0       ?virtSetupBackgroundBuffer@ImageMappingDemo@@UAEXXZ 004207d0 f   ImageMappingDemo.obj
 0001:0001f8d0       ?virtInitialiseObjects@ImageMappingDemo@@UAEHXZ 004208d0 f   ImageMappingDemo.obj
 0001:0001fc40       ?virtKeyDown@ImageMappingDemo@@UAEXH@Z 00420c40 f   ImageMappingDemo.obj
 0001:0001fc70       ?virtMainLoopDoBeforeUpdate@ImageMappingDemo@@UAEXXZ 00420c70 f   ImageMappingDemo.obj
 0001:0001fd00       ?mapCoordinates@ImageMappingDemo@@UAE_NAAN0ABVSimpleImage@@@Z 00420d00 f   ImageMappingDemo.obj
 0001:00020170       ??0MappableImageObject@@QAE@PAVImagePixelMapping@@HHPAVBaseEngine@@V?$basic_string@DU?$char_traits@D@std@@V?$allocator@D@2@@std@@_N3@Z 00421170 f i ImageMappingDemo.obj
 0001:00020230       ??1MappableImageObject@@UAE@XZ 00421230 f i ImageMappingDemo.obj
 0001:00020250       ??_EMappableImageObject@@UAEPAXI@Z 00421250 f i ImageMappingDemo.obj
 0001:00020250       ??_GMappableImageObject@@UAEPAXI@Z 00421250 f i ImageMappingDemo.obj
 0001:00020290       ?getPixelColour@MappableImageObject@@QAEHHH@Z 00421290 f i ImageMappingDemo.obj
 0001:000202c0       ?getPixelColour@SimpleImage@@QBEHHH@Z 004212c0 f i ImageMappingDemo.obj
 0001:000202f0       ?getRawPixelColour@RawImageData@@QBEHHH@Z 004212f0 f i ImageMappingDemo.obj
 0001:00020340       ?getTheData@SimpleImage@@QBEABV?$shared_ptr@VRawImageData@@@std@@XZ 00421340 f i ImageMappingDemo.obj
 0001:00020360       ?setOpaque@RawImageData@@QAEXXZ 00421360 f i ImageMappingDemo.obj
 0001:000203d0       ?setRotation@ImagePixelMappingRotate@@QAEXN@Z 004213d0 f i ImageMappingDemo.obj
 0001:000203f0       ?setTransparencyColour@MappableImageObject@@QAEXH@Z 004213f0 f i ImageMappingDemo.obj
 0001:00020420       ?setTransparencyColour@SimpleImage@@QAEXH@Z 00421420 f i ImageMappingDemo.obj
 0001:00020490       ?setTransparentColour@RawImageData@@QAEXI@Z 00421490 f i ImageMappingDemo.obj
 0001:000205b0       ?setXShift@ImagePixelMappingShiftXY@@QAEXN@Z 004215b0 f i ImageMappingDemo.obj
 0001:000205d0       ?virtDraw@MappableImageObject@@UAEXXZ 004215d0 f i ImageMappingDemo.obj
 0001:00020660       _SDL_main                  00421660 f   mainfunction.obj
 0001:000206c0       ?doProgram@@YAHHQAPAD@Z    004216c0 f   mainfunction.obj
 0001:00020800       ??$_Erase_head@V?$allocator@U?$_Tree_node@U?$pair@$$CBV?$basic_string@DU?$char_traits@D@std@@V?$allocator@D@2@@std@@V?$shared_ptr@VRawImageData@@@2@@std@@PAX@std@@@std@@@?$_Tree_val@U?$_Tree_simple_types@U?$pair@$$CBV?$basic_string@DU?$char_traits@D@std@@V?$allocator@D@2@@std@@V?$shared_ptr@VRawImageData@@@2@@std@@@std@@@std@@QAEXAAV?$allocator@U?$_Tree_node@U?$pair@$$CBV?$basic_string@DU?$char_traits@D@std@@V?$allocator@D@2@@std@@V?$shared_ptr@VRawImageData@@@2@@std@@PAX@std@@@1@@Z 00421800 f i mainfunction.obj
 0001:00020850       ??$_Erase_tree@V?$allocator@U?$_Tree_node@U?$pair@$$CBV?$basic_string@DU?$char_traits@D@std@@V?$allocator@D@2@@std@@V?$shared_ptr@VRawImageData@@@2@@std@@PAX@std@@@std@@@?$_Tree_val@U?$_Tree_simple_types@U?$pair@$$CBV?$basic_string@DU?$char_traits@D@std@@V?$allocator@D@2@@std@@V?$shared_ptr@VRawImageData@@@2@@std@@@std@@@std@@QAEXAAV?$allocator@U?$_Tree_node@U?$pair@$$CBV?$basic_string@DU?$char_traits@D@std@@V?$allocator@D@2@@std@@V?$shared_ptr@VRawImageData@@@2@@std@@PAX@std@@@1@PAU?$_Tree_node@U?$pair@$$CBV?$basic_string@DU?$char_traits@D@std@@V?$allocator@D@2@@std@@V?$shared_ptr@VRawImageData@@@2@@std@@PAX@1@@Z 00421850 f i mainfunction.obj
 0001:000208b0       ??$_Freenode0@V?$allocator@U?$_Tree_node@U?$pair@$$CBV?$basic_string@DU?$char_traits@D@std@@V?$allocator@D@2@@std@@V?$shared_ptr@VRawImageData@@@2@@std@@PAX@std@@@std@@@?$_Tree_node@U?$pair@$$CBV?$basic_string@DU?$char_traits@D@std@@V?$allocator@D@2@@std@@V?$shared_ptr@VRawImageData@@@2@@std@@PAX@std@@SAXAAV?$allocator@U?$_Tree_node@U?$pair@$$CBV?$basic_string@DU?$char_traits@D@std@@V?$allocator@D@2@@std@@V?$shared_ptr@VRawImageData@@@2@@std@@PAX@std@@@1@PAU01@@Z 004218b0 f i mainfunction.obj
 0001:00020940       ??$_Freenode@V?$allocator@U?$_Tree_node@U?$pair@$$CBV?$basic_string@DU?$char_traits@D@std@@V?$allocator@D@2@@std@@V?$shared_ptr@VRawImageData@@@2@@std@@PAX@std@@@std@@@?$_Tree_node@U?$pair@$$CBV?$basic_string@DU?$char_traits@D@std@@V?$allocator@D@2@@std@@V?$shared_ptr@VRawImageData@@@2@@std@@PAX@std@@SAXAAV?$allocator@U?$_Tree_node@U?$pair@$$CBV?$basic_string@DU?$char_traits@D@std@@V?$allocator@D@2@@std@@V?$shared_ptr@VRawImageData@@@2@@std@@PAX@std@@@1@PAU01@@Z 00421940 f i mainfunction.obj
 0001:000209c0       ??$exchange@PAU?$_Tree_node@U?$pair@$$CBV?$basic_string@DU?$char_traits@D@std@@V?$allocator@D@2@@std@@V?$shared_ptr@VRawImageData@@@2@@std@@PAX@std@@AAPAU12@@std@@YAPAU?$_Tree_node@U?$pair@$$CBV?$basic_string@DU?$char_traits@D@std@@V?$allocator@D@2@@std@@V?$shared_ptr@VRawImageData@@@2@@std@@PAX@0@AAPAU10@0@Z 004219c0 f i mainfunction.obj
 0001:000209f0       ??1?$_Tree@V?$_Tmap_traits@V?$basic_string@DU?$char_traits@D@std@@V?$allocator@D@2@@std@@V?$shared_ptr@VRawImageData@@@2@U?$less@V?$basic_string@DU?$char_traits@D@std@@V?$allocator@D@2@@std@@@2@V?$allocator@U?$pair@$$CBV?$basic_string@DU?$char_traits@D@std@@V?$allocator@D@2@@std@@V?$shared_ptr@VRawImageData@@@2@@std@@@2@$0A@@std@@@std@@QAE@XZ 004219f0 f i mainfunction.obj
 0001:00020a60       ??1?$map@V?$basic_string@DU?$char_traits@D@std@@V?$allocator@D@2@@std@@V?$shared_ptr@VRawImageData@@@2@U?$less@V?$basic_string@DU?$char_traits@D@std@@V?$allocator@D@2@@std@@@2@V?$allocator@U?$pair@$$CBV?$basic_string@DU?$char_traits@D@std@@V?$allocator@D@2@@std@@V?$shared_ptr@VRawImageData@@@2@@std@@@2@@std@@QAE@XZ 00421a60 f i mainfunction.obj
 0001:00020a80       ??1ImageManager@@QAE@XZ    00421a80 f i mainfunction.obj
 0001:00020ab0       ??_GImageManager@@QAEPAXI@Z 00421ab0 f i mainfunction.obj
 0001:00020af0       ?deallocate@?$_Default_allocator_traits@V?$allocator@U?$_Tree_node@U?$pair@$$CBV?$basic_string@DU?$char_traits@D@std@@V?$allocator@D@2@@std@@V?$shared_ptr@VRawImageData@@@2@@std@@PAX@std@@@std@@@std@@SAXAAV?$allocator@U?$_Tree_node@U?$pair@$$CBV?$basic_string@DU?$char_traits@D@std@@V?$allocator@D@2@@std@@V?$shared_ptr@VRawImageData@@@2@@std@@PAX@std@@@2@QAU?$_Tree_node@U?$pair@$$CBV?$basic_string@DU?$char_traits@D@std@@V?$allocator@D@2@@std@@V?$shared_ptr@VRawImageData@@@2@@std@@PAX@2@I@Z 00421af0 f i mainfunction.obj
 0001:00020b10       ?destroyImageManager@ImageManager@@SAXXZ 00421b10 f i mainfunction.obj
 0001:00020b70       ??0BaseEngine@@QAE@XZ      00421b70 f   BaseEngine.obj
 0001:00020db0       ??1BaseEngine@@UAE@XZ      00421db0 f   BaseEngine.obj
 0001:00020e00       ?initialise@BaseEngine@@QAEHPBDHH0H@Z 00421e00 f   BaseEngine.obj
 0001:00020f30       ?deinitialise@BaseEngine@@QAEXXZ 00421f30 f   BaseEngine.obj
 0001:00020f60       ?mainLoop@BaseEngine@@QAEHXZ 00421f60 f   BaseEngine.obj
 0001:00021090       ?handleEvent@BaseEngine@@QAE_NPATSDL_Event@@@Z 00422090 f   BaseEngine.obj
 0001:000216d0       ?isKeyPressed@BaseEngine@@QBE_NH@Z 004226d0 f   BaseEngine.obj
 0001:00021700       ?virtKeyUp@BaseEngine@@UAEXH@Z 00422700 f   BaseEngine.obj
 0001:00021710       ?virtKeyDown@BaseEngine@@UAEXH@Z 00422710 f   BaseEngine.obj
 0001:00021720       ?virtMouseMoved@BaseEngine@@UAEXHH@Z 00422720 f   BaseEngine.obj
 0001:00021730       ?virtMouseDown@BaseEngine@@UAEXHHH@Z 00422730 f   BaseEngine.obj
 0001:00021740       ?virtMouseUp@BaseEngine@@UAEXHHH@Z 00422740 f   BaseEngine.obj
 0001:00021750       ?virtInitialise@BaseEngine@@UAEHXZ 00422750 f   BaseEngine.obj
 0001:000217a0       ?virtCreateWindows@BaseEngine@@UAEXPBD@Z 004227a0 f   BaseEngine.obj
 0001:00021830       ?virtCreateSurfaces@BaseEngine@@UAEXXZ 00422830 f   BaseEngine.obj
 0001:00021880       ?virtCleanUp@BaseEngine@@UAEXXZ 00422880 f   BaseEngine.obj
 0001:00021890       ?virtSetupBackgroundBuffer@BaseEngine@@UAEXXZ 00422890 f   BaseEngine.obj
 0001:000218b0       ?virtDrawStringsUnderneath@BaseEngine@@UAEXXZ 004228b0 f   BaseEngine.obj
 0001:000218c0       ?virtDrawStringsOnTop@BaseEngine@@UAEXXZ 004228c0 f   BaseEngine.obj
 0001:000218d0       ?virtCheckForUpdateTime@BaseEngine@@UAE_NXZ 004228d0 f   BaseEngine.obj
 0001:00021920       ?virtRenderScreen@BaseEngine@@UAEXXZ 00422920 f   BaseEngine.obj
 0001:00021ab0       ?getColour@BaseEngine@@QBEIH@Z 00422ab0 f   BaseEngine.obj
 0001:00021cf0       ?virtInitialiseObjects@BaseEngine@@UAEHXZ 00422cf0 f   BaseEngine.obj
 0001:00021d20       ?drawAllObjects@BaseEngine@@UAEXXZ 00422d20 f   BaseEngine.obj
 0001:00021ee0       ?updateAllObjects@BaseEngine@@UAEXH@Z 00422ee0 f   BaseEngine.obj
 0001:000220a0       _mydebug                   004230a0 f   BaseEngine.obj
 0001:00022860       ??$?0ABV?$allocator@PAVDisplayableObject@@@std@@$$V@?$_Compressed_pair@V?$allocator@PAVDisplayableObject@@@std@@V?$_Vector_val@U?$_Simple_types@PAVDisplayableObject@@@std@@@2@$00@std@@QAE@U_One_then_variadic_args_t@1@ABV?$allocator@PAVDisplayableObject@@@1@@Z 00423860 f i BaseEngine.obj
 0001:00022890       ??$?0PAVDisplayableObject@@@?$allocator@U_Container_proxy@std@@@std@@QAE@ABV?$allocator@PAVDisplayableObject@@@1@@Z 00423890 f i BaseEngine.obj
 0001:000228b0       ??$_Construct_n@$$V@?$vector@PAVDisplayableObject@@V?$allocator@PAVDisplayableObject@@@std@@@std@@AAEXI@Z 004238b0 f i BaseEngine.obj
 0001:00022e40       ??$forward@ABV?$allocator@PAVDisplayableObject@@@std@@@std@@YAABV?$allocator@PAVDisplayableObject@@@0@ABV10@@Z 00423e40 f i BaseEngine.obj
 0001:00022e50       ??0?$_Vector_iterator@V?$_Vector_val@U?$_Simple_types@PAVDisplayableObject@@@std@@@std@@@std@@QAE@ABV01@@Z 00423e50 f i BaseEngine.obj
 0001:00022e80       ??0?$_Vector_val@U?$_Simple_types@PAVDisplayableObject@@@std@@@std@@QAE@XZ 00423e80 f i BaseEngine.obj
 0001:00022ed0       ??0?$allocator@PAVDisplayableObject@@@std@@QAE@XZ 00423ed0 f i BaseEngine.obj
 0001:00022ef0       ??0?$vector@PAVDisplayableObject@@V?$allocator@PAVDisplayableObject@@@std@@@std@@QAE@IABV?$allocator@PAVDisplayableObject@@@1@@Z 00423ef0 f i BaseEngine.obj
 0001:00022f30       ??0DisplayableObjectContainer@@QAE@H@Z 00423f30 f i BaseEngine.obj
 0001:00022f90       ??1?$_Tidy_guard@V?$vector@PAVDisplayableObject@@V?$allocator@PAVDisplayableObject@@@std@@@std@@@std@@QAE@XZ 00423f90 f i BaseEngine.obj
 0001:00022fc0       ??1?$vector@PAVDisplayableObject@@V?$allocator@PAVDisplayableObject@@@std@@@std@@QAE@XZ 00423fc0 f i BaseEngine.obj
 0001:00023030       ??1DisplayableObjectContainer@@UAE@XZ 00424030 f i BaseEngine.obj
 0001:000230a0       ??D?$_Vector_iterator@V?$_Vector_val@U?$_Simple_types@PAVDisplayableObject@@@std@@@std@@@std@@QBEAAPAVDisplayableObject@@XZ 004240a0 f i BaseEngine.obj
 0001:000230c0       ??E?$_Vector_iterator@V?$_Vector_val@U?$_Simple_types@PAVDisplayableObject@@@std@@@std@@@std@@QAE?AV01@H@Z 004240c0 f i BaseEngine.obj
 0001:00023110       ??_EBaseEngine@@UAEPAXI@Z  00424110 f i BaseEngine.obj
 0001:00023110       ??_GBaseEngine@@UAEPAXI@Z  00424110 f i BaseEngine.obj
 0001:00023150       ??_EDisplayableObjectContainer@@UAEPAXI@Z 00424150 f i BaseEngine.obj
 0001:00023150       ??_GDisplayableObjectContainer@@UAEPAXI@Z 00424150 f i BaseEngine.obj
 0001:00023190       ?_Buy_nonzero@?$vector@PAVDisplayableObject@@V?$allocator@PAVDisplayableObject@@@std@@@std@@AAEXI@Z 00424190 f i BaseEngine.obj
 0001:000231d0       ?_Buy_raw@?$vector@PAVDisplayableObject@@V?$allocator@PAVDisplayableObject@@@std@@@std@@AAEXI@Z 004241d0 f i BaseEngine.obj
 0001:00023250       ?_Tidy@?$vector@PAVDisplayableObject@@V?$allocator@PAVDisplayableObject@@@std@@@std@@AAEXXZ 00424250 f i BaseEngine.obj
 0001:00023350       ?getHasActed@DisplayableObject@@QBE_NXZ 00424350 f i BaseEngine.obj
 0001:00023370       ?isTimeToAct@BaseEngine@@QBE_NXZ 00424370 f i BaseEngine.obj
 0001:000233b0       ?mySDLUpdateTexture@DrawingSurface@@QAEXPAUSDL_Texture@@@Z 004243b0 f i BaseEngine.obj
 0001:000233f0       ?setHasActed@DisplayableObject@@QAEX_N@Z 004243f0 f i BaseEngine.obj
 0001:00023410       ?setTimeToAct@BaseEngine@@QAEXH@Z 00424410 f i BaseEngine.obj
 0001:00023440       ?symbolToKeycode@BaseEngine@@SAHH@Z 00424440 f i BaseEngine.obj
 0001:00023930       ?virtMainLoopDoBeforeUpdate@BaseEngine@@UAEXXZ 00424930 f i BaseEngine.obj
 0001:00023940       _fprintf                   00424940 f i BaseEngine.obj
 0001:00023980       ??0DisplayableObject@@QAE@PAVBaseEngine@@HH_N@Z 00424980 f   DisplayableObject.obj
 0001:00023a40       ??0DisplayableObject@@QAE@HHPAVBaseEngine@@HH_N@Z 00424a40 f   DisplayableObject.obj
 0001:00023b00       ??1DisplayableObject@@UAE@XZ 00424b00 f   DisplayableObject.obj
 0001:00023b20       ?virtDraw@DisplayableObject@@UAEXXZ 00424b20 f   DisplayableObject.obj
 0001:00023bc0       ?virtDoUpdate@DisplayableObject@@UAEXH@Z 00424bc0 f   DisplayableObject.obj
 0001:00023bd0       ?redrawDisplay@DisplayableObject@@QAEXXZ 00424bd0 f   DisplayableObject.obj
 0001:00023bf0       ?redrawRectangle@DisplayableObject@@QAEXXZ 00424bf0 f   DisplayableObject.obj
 0001:00023c30       ?virtIsObjectInRedrawArea@DisplayableObject@@QAE_NXZ 00424c30 f   DisplayableObject.obj
 0001:00023cd0       ?fixPosition@DisplayableObject@@QAEXXZ 00424cd0 f   DisplayableObject.obj
 0001:00023ea0       ??_EDisplayableObject@@UAEPAXI@Z 00424ea0 f i DisplayableObject.obj
 0001:00023ea0       ??_GDisplayableObject@@UAEPAXI@Z 00424ea0 f i DisplayableObject.obj
 0001:00023ee0       ?convertVirtualPixelToClickedXPosition@BaseEngine@@QAEHH@Z 00424ee0 f i DisplayableObject.obj
 0001:00023f10       ?convertVirtualPixelToClickedYPosition@BaseEngine@@QAEHH@Z 00424f10 f i DisplayableObject.obj
 0001:00023f40       ?convertVirtualToRealXPosition@DrawingSurface@@QAEHH@Z 00424f40 f i DisplayableObject.obj
 0001:00023f80       ?convertVirtualToRealYPosition@DrawingSurface@@QAEHH@Z 00424f80 f i DisplayableObject.obj
 0001:00023fc0       ?redrawRectangle@BaseEngine@@QAEXHHHH@Z 00424fc0 f i DisplayableObject.obj
 0001:00024130       ?setForegroundPixel@BaseEngine@@QAEXHHI@Z 00425130 f i DisplayableObject.obj
 0001:00024160       ??0FontManager@@QAE@XZ     00425160 f   FontManager.obj
 0001:000241d0       ??1FontManager@@QAE@XZ     004251d0 f   FontManager.obj
 0001:00024240       ?getFont@FontManager@@QAEPAVFont@@PBDH@Z 00425240 f   FontManager.obj
 0001:000243e0       ?loadFonts@FontManager@@QAEXXZ 004253e0 f   FontManager.obj
 0001:00024510       ??$growArrayOfObjects@PAVFont@@@@YAPAPAVFont@@PAPAV0@AAHH@Z 00425510 f i FontManager.obj
 0001:000245d0       ??0Font@@QAE@PBDH@Z        004255d0 f i FontManager.obj
 0001:00024650       ??1Font@@QAE@XZ            00425650 f i FontManager.obj
 0001:000246d0       ??_GFont@@QAEPAXI@Z        004256d0 f i FontManager.obj
 0001:00024710       ?getName@Font@@QAEPBDXZ    00425710 f i FontManager.obj
 0001:00024730       ?getSize@Font@@QAEHXZ      00425730 f i FontManager.obj
 0001:00024750       ??0MyDemoA@@QAE@XZ         00425750 f   MyDemoA.obj
 0001:000247c0       ?virtSetupBackgroundBuffer@MyDemoA@@UAEXXZ 004257c0 f   MyDemoA.obj
 0001:00024a10       ?virtMouseDown@MyDemoA@@UAEXHHH@Z 00425a10 f   MyDemoA.obj
 0001:00024b80       ?virtKeyDown@MyDemoA@@UAEXH@Z 00425b80 f   MyDemoA.obj
 0001:00024bd0       ?virtInitialiseObjects@MyDemoA@@UAEHXZ 00425bd0 f   MyDemoA.obj
 0001:00024dd0       ??0MyObjectB@@QAE@PAVBaseEngine@@@Z 00425dd0 f i MyDemoA.obj
 0001:00024e40       ??0MyTileManager@@QAE@XZ   00425e40 f i MyDemoA.obj
 0001:00024e70       ??0TileManager@@QAE@HHHH@Z 00425e70 f i MyDemoA.obj
 0001:00024f00       ??1MyDemoA@@UAE@XZ         00425f00 f i MyDemoA.obj
 0001:00024f30       ??1MyObjectB@@UAE@XZ       00425f30 f i MyDemoA.obj
 0001:00024f50       ??1MyTileManager@@UAE@XZ   00425f50 f i MyDemoA.obj
 0001:00024f70       ??_EMyDemoA@@UAEPAXI@Z     00425f70 f i MyDemoA.obj
 0001:00024f70       ??_GMyDemoA@@UAEPAXI@Z     00425f70 f i MyDemoA.obj
 0001:00024fb0       ??_EMyObjectB@@UAEPAXI@Z   00425fb0 f i MyDemoA.obj
 0001:00024fb0       ??_GMyObjectB@@UAEPAXI@Z   00425fb0 f i MyDemoA.obj
 0001:00024ff0       ??_EMyTileManager@@UAEPAXI@Z 00425ff0 f i MyDemoA.obj
 0001:00024ff0       ??_GMyTileManager@@UAEPAXI@Z 00425ff0 f i MyDemoA.obj
 0001:00025030       ?drawBackgroundOval@BaseEngine@@QAEXHHHHI@Z 00426030 f i MyDemoA.obj
 0001:00025070       ?drawBackgroundRectangle@BaseEngine@@QAEXHHHHI@Z 00426070 f i MyDemoA.obj
 0001:000250b0       ?getMapXForScreenX@TileManager@@QBEHH@Z 004260b0 f i MyDemoA.obj
 0001:000250e0       ?getMapYForScreenY@TileManager@@QBEHH@Z 004260e0 f i MyDemoA.obj
 0001:00025110       ?isValidTilePosition@TileManager@@QBE_NHH@Z 00426110 f i MyDemoA.obj
 0001:000251a0       ?virtDraw@MyObjectB@@UAEXXZ 004261a0 f   MyObjectB.obj
 0001:000251f0       ?virtDoUpdate@MyObjectB@@UAEXH@Z 004261f0 f   MyObjectB.obj
 0001:000253b0       ?virtDrawTileAt@MyTileManager@@UBEXPAVBaseEngine@@PAVDrawingSurface@@HHHH@Z 004263b0 f   MyTileManager.obj
 0001:00025450       ?virtInitialise@Psyes9Engine@@UAEHXZ 00426450 f   Psyes9Engine.obj
 0001:000254a0       ?virtSetupBackgroundBuffer@Psyes9Engine@@UAEXXZ 004264a0 f   Psyes9Engine.obj
 0001:000258e0       ?virtInitialiseObjects@Psyes9Engine@@UAEHXZ 004268e0 f   Psyes9Engine.obj
 0001:000259e0       ?virtDrawStringsOnTop@Psyes9Engine@@UAEXXZ 004269e0 f   Psyes9Engine.obj
 0001:00025a80       ?virtDrawStringsUnderneath@Psyes9Engine@@UAEXXZ 00426a80 f   Psyes9Engine.obj
 0001:00025ac0       ?virtMouseDown@Psyes9Engine@@UAEXHHH@Z 00426ac0 f   Psyes9Engine.obj
 0001:00025af0       ?virtKeyDown@Psyes9Engine@@UAEXH@Z 00426af0 f   Psyes9Engine.obj
 0001:00025dd0       ??$sqrt@H$0A@@@YANH@Z      00426dd0 f i Psyes9Engine.obj
 0001:00025df0       ??0BouncingFish@@QAE@PAVBaseEngine@@HHNNNN@Z 00426df0 f i Psyes9Engine.obj
 0001:00025ec0       ??0BouncingFishObject@@QAE@PAVBaseEngine@@@Z 00426ec0 f i Psyes9Engine.obj
 0001:00025fc0       ??0SwimmingFishObject@@QAE@PAVBaseEngine@@@Z 00426fc0 f i Psyes9Engine.obj
 0001:00026030       ??1BouncingFish@@UAE@XZ    00427030 f i Psyes9Engine.obj
 0001:00026050       ??1BouncingFishObject@@UAE@XZ 00427050 f i Psyes9Engine.obj
 0001:00026080       ??1SwimmingFishObject@@UAE@XZ 00427080 f i Psyes9Engine.obj
 0001:000260a0       ??A?$vector@PAVDisplayableObject@@V?$allocator@PAVDisplayableObject@@@std@@@std@@QBEABQAVDisplayableObject@@I@Z 004270a0 f i Psyes9Engine.obj
 0001:00026150       ??_EBouncingFish@@UAEPAXI@Z 00427150 f i Psyes9Engine.obj
 0001:00026150       ??_GBouncingFish@@UAEPAXI@Z 00427150 f i Psyes9Engine.obj
 0001:00026190       ??_EBouncingFishObject@@UAEPAXI@Z 00427190 f i Psyes9Engine.obj
 0001:00026190       ??_GBouncingFishObject@@UAEPAXI@Z 00427190 f i Psyes9Engine.obj
 0001:000261d0       ??_ESwimmingFishObject@@UAEPAXI@Z 004271d0 f i Psyes9Engine.obj
 0001:000261d0       ??_GSwimmingFishObject@@UAEPAXI@Z 004271d0 f i Psyes9Engine.obj
 0001:00026210       ?drawBackgroundString@BaseEngine@@QAEXHHPBDIPAVFont@@@Z 00427210 f i Psyes9Engine.obj
 0001:00026250       ?drawBackgroundTriangle@BaseEngine@@QAEXHHHHHHI@Z 00427250 f i Psyes9Engine.obj
 0001:000262e0       ?getDisplayableObject@DisplayableObjectContainer@@QBEPAVDisplayableObject@@H@Z 004272e0 f i Psyes9Engine.obj
 0001:00026320       ?hasCollisionOccurred@Psyes9Engine@@QBE_NXZ 00427320 f i Psyes9Engine.obj
 0001:00026340       ?loadImage@BaseEngine@@QAE?AVSimpleImage@@V?$basic_string@DU?$char_traits@D@std@@V?$allocator@D@2@@std@@_N@Z 00427340 f i Psyes9Engine.obj
 0001:00026400       ?setCollisionOccurred@Psyes9Engine@@QAEX_N@Z 00427400 f i Psyes9Engine.obj
 0001:00026420       ?virtDoUpdate@BouncingFish@@UAEXH@Z 00427420 f i Psyes9Engine.obj
 0001:000269f0       ?virtDraw@BouncingFish@@UAEXXZ 004279f0 f i Psyes9Engine.obj
 0001:00026a90       ?virtDraw@BouncingFishObject@@UAEXXZ 00427a90 f i Psyes9Engine.obj
 0001:00026b10       ?mapCoordinates@CroppedImagePixelMapping@@UAE_NAAN0ABVSimpleImage@@@Z 00427b10 f i SimpleImage.obj
 0001:00026bb0       ??0SimpleImage@@QAE@XZ     00427bb0 f   SimpleImage.obj
 0001:00026be0       ??0SimpleImage@@QAE@V?$shared_ptr@VRawImageData@@@std@@@Z 00427be0 f   SimpleImage.obj
 0001:00026c20       ?exists@SimpleImage@@QBE_NXZ 00427c20 f   SimpleImage.obj
 0001:00026c40       ?renderImage@SimpleImage@@QBEXPAVDrawingSurface@@HHHHHH@Z 00427c40 f   SimpleImage.obj
 0001:00026d50       ?renderImageWithMask@SimpleImage@@QBEXPAVDrawingSurface@@HHHHHHH@Z 00427d50 f   SimpleImage.obj
 0001:00026e90       ?renderImageWithMaskAndTransparency@SimpleImage@@QBEXPAVDrawingSurface@@HHHHHHHH@Z 00427e90 f   SimpleImage.obj
 0001:00027060       ?renderImageBlit@SimpleImage@@QAEXPAVBaseEngine@@PAVDrawingSurface@@HHHHHHHH@Z 00428060 f   SimpleImage.obj
 0001:00027310       ?adjustXYWidthHeight@SimpleImage@@SA_NPAVDrawingSurface@@AAH11111@Z 00428310 f   SimpleImage.obj
 0001:00027510       ?renderImageApplyingMapping@SimpleImage@@QBEXPAVBaseEngine@@PAVDrawingSurface@@HHHHPAVImagePixelMapping@@@Z 00428510 f   SimpleImage.obj
 0001:00027b20       ??BDrawingSurface@@QAEPAUSDL_Surface@@XZ 00428b20 f i SimpleImage.obj
 0001:00027b40       ?getSurface@RawImageData@@QAEPAUSDL_Surface@@XZ 00428b40 f i SimpleImage.obj
 0001:00027b60       ?rawGetPixel@DrawingSurface@@QBEIHH@Z 00428b60 f i SimpleImage.obj
 0001:00027bd0       ?virtSetupBackgroundBuffer@SimpleDemo@@UAEXXZ 00428bd0 f   SimpleDemo.obj
 0001:00027d10       ?virtInitialiseObjects@SimpleDemo@@UAEHXZ 00428d10 f   SimpleDemo.obj
 0001:00027e90       ?virtDrawStringsUnderneath@SimpleDemo@@UAEXXZ 00428e90 f   SimpleDemo.obj
 0001:00027f10       ?virtDrawStringsOnTop@SimpleDemo@@UAEXXZ 00428f10 f   SimpleDemo.obj
 0001:00027fd0       ?virtMouseDown@SimpleDemo@@UAEXHHH@Z 00428fd0 f   SimpleDemo.obj
 0001:00027ff0       ?virtKeyDown@SimpleDemo@@UAEXH@Z 00428ff0 f   SimpleDemo.obj
 0001:00028160       ??$_Construct_in_place@PAVDisplayableObject@@ABQAV1@@std@@YAXAAPAVDisplayableObject@@ABQAV1@@Z 00429160 f i SimpleDemo.obj
 0001:000281b0       ??$_Emplace_back_with_unused_capacity@ABQAVDisplayableObject@@@?$vector@PAVDisplayableObject@@V?$allocator@PAVDisplayableObject@@@std@@@std@@AAEAAPAVDisplayableObject@@ABQAV2@@Z 004291b0 f i SimpleDemo.obj
 0001:00028230       ??$_Emplace_one_at_back@ABQAVDisplayableObject@@@?$vector@PAVDisplayableObject@@V?$allocator@PAVDisplayableObject@@@std@@@std@@AAEAAPAVDisplayableObject@@ABQAV2@@Z 00429230 f i SimpleDemo.obj
 0001:000282b0       ??$_Emplace_reallocate@ABQAVDisplayableObject@@@?$vector@PAVDisplayableObject@@V?$allocator@PAVDisplayableObject@@@std@@@std@@AAEPAPAVDisplayableObject@@QAPAV2@ABQAV2@@Z 004292b0 f i SimpleDemo.obj
 0001:00028510       ??$addressof@PAVDisplayableObject@@@std@@YAPAPAVDisplayableObject@@AAPAV1@@Z 00429510 f i SimpleDemo.obj
 0001:00028520       ??$construct@PAVDisplayableObject@@ABQAV1@@?$_Default_allocator_traits@V?$allocator@PAVDisplayableObject@@@std@@@std@@SAXAAV?$allocator@PAVDisplayableObject@@@1@QAPAVDisplayableObject@@ABQAV3@@Z 00429520 f i SimpleDemo.obj
 0001:00028560       ??$forward@ABQAVDisplayableObject@@@std@@YAABQAVDisplayableObject@@ABQAV1@@Z 00429560 f i SimpleDemo.obj
 0001:00028570       ??0BouncingObject@@QAE@PAVBaseEngine@@HHNNNN@Z 00429570 f i SimpleDemo.obj
 0001:00028640       ??1BouncingObject@@UAE@XZ  00429640 f i SimpleDemo.obj
 0001:00028660       ??_EBouncingObject@@UAEPAXI@Z 00429660 f i SimpleDemo.obj
 0001:00028660       ??_GBouncingObject@@UAEPAXI@Z 00429660 f i SimpleDemo.obj
 0001:000286a0       ?appendObjectToArray@DisplayableObjectContainer@@QAEXPAVDisplayableObject@@@Z 004296a0 f i SimpleDemo.obj
 0001:000286e0       ?push_back@?$vector@PAVDisplayableObject@@V?$allocator@PAVDisplayableObject@@@std@@@std@@QAEXABQAVDisplayableObject@@@Z 004296e0 f i SimpleDemo.obj
 0001:00028700       ?virtDoUpdate@BouncingObject@@UAEXH@Z 00429700 f i SimpleDemo.obj
 0001:00028b00       ?virtDraw@BouncingObject@@UAEXXZ 00429b00 f i SimpleDemo.obj
 0001:00028ba0       ??0StarfieldDemo@@QAE@XZ   00429ba0 f   StarfieldDemo.obj
 0001:00028be0       ??1StarfieldDemo@@UAE@XZ   00429be0 f   StarfieldDemo.obj
 0001:00028c10       ?virtSetupBackgroundBuffer@StarfieldDemo@@UAEXXZ 00429c10 f   StarfieldDemo.obj
 0001:00028d50       ?virtMainLoopDoBeforeUpdate@StarfieldDemo@@UAEXXZ 00429d50 f   StarfieldDemo.obj
 0001:00028d90       ?copyAllBackgroundBuffer@StarfieldDemo@@UAEXXZ 00429d90 f   StarfieldDemo.obj
 0001:00028ed0       ??_EStarfieldDemo@@UAEPAXI@Z 00429ed0 f i StarfieldDemo.obj
 0001:00028ed0       ??_GStarfieldDemo@@UAEPAXI@Z 00429ed0 f i StarfieldDemo.obj
 0001:00028f10       ?virtDraw@SwimmingFishObject@@UAEXXZ 00429f10 f   SwimmingFishObject.obj
 0001:00029050       ?virtDoUpdate@SwimmingFishObject@@UAEXH@Z 0042a050 f   SwimmingFishObject.obj
 0001:000291d0       ?getX@SwimmingFishObject@@QBEHXZ 0042a1d0 f   SwimmingFishObject.obj
 0001:000291f0       ?getY@SwimmingFishObject@@QBEHXZ 0042a1f0 f   SwimmingFishObject.obj
 0001:00029210       ?getWidth@SwimmingFishObject@@QBEHXZ 0042a210 f   SwimmingFishObject.obj
 0001:00029220       ?getHeight@SwimmingFishObject@@QBEHXZ 0042a220 f   SwimmingFishObject.obj
 0001:00029330       ?drawForegroundTriangle@BaseEngine@@QAEXHHHHHHI@Z 0042a330 f i SwimmingFishObject.obj
 0001:000293c0       ?drawAllTiles@TileManager@@QBEXPAVBaseEngine@@PAVDrawingSurface@@@Z 0042a3c0 f   TileManager.obj
 0001:00029460       ?drawSomeTiles@TileManager@@QBEXPAVBaseEngine@@PAVDrawingSurface@@HHHH@Z 0042a460 f   TileManager.obj
 0001:00029500       ?virtDrawTileAt@TileManager@@UBEXPAVBaseEngine@@PAVDrawingSurface@@HHHH@Z 0042a500 f   TileManager.obj
 0001:000295f0       ??0BouncingBall@@QAE@PAVBouncingBallMain@@HHHHPBDHH@Z 0042a5f0 f   BouncingBall.obj
 0001:000296c0       ??1BouncingBall@@UAE@XZ    0042a6c0 f   BouncingBall.obj
 0001:000296e0       ?virtDraw@BouncingBall@@UAEXXZ 0042a6e0 f   BouncingBall.obj
 0001:000299b0       ?virtDoUpdate@BouncingBall@@UAEXH@Z 0042a9b0 f   BouncingBall.obj
 0001:000299d0       ??0BouncingBall1@@QAE@PAVBouncingBallMain@@HHHHPBDHHPAVTileManager@@@Z 0042a9d0 f   BouncingBall.obj
 0001:00029a70       ?setMovement@BouncingBall1@@QAEXHHHHHHH@Z 0042aa70 f   BouncingBall.obj
 0001:00029ae0       ?virtDoUpdate@BouncingBall1@@UAEXH@Z 0042aae0 f   BouncingBall.obj
 0001:00029c50       ??0BouncingBall2@@QAE@PAVBouncingBallMain@@HHHHPBDHH@Z 0042ac50 f   BouncingBall.obj
 0001:00029cd0       ?setPosition@BouncingBall2@@QAEXNN@Z 0042acd0 f   BouncingBall.obj
 0001:00029d00       ?setSpeed@BouncingBall2@@QAEXNN@Z 0042ad00 f   BouncingBall.obj
 0001:00029d30       ?virtDoUpdate@BouncingBall2@@UAEXH@Z 0042ad30 f   BouncingBall.obj
 0001:0002a320       ??1BouncingBall1@@UAE@XZ   0042b320 f i BouncingBall.obj
 0001:0002a340       ??1BouncingBall2@@UAE@XZ   0042b340 f i BouncingBall.obj
 0001:0002a360       ??_EBouncingBall1@@UAEPAXI@Z 0042b360 f i BouncingBall.obj
 0001:0002a360       ??_GBouncingBall1@@UAEPAXI@Z 0042b360 f i BouncingBall.obj
 0001:0002a3a0       ??_EBouncingBall2@@UAEPAXI@Z 0042b3a0 f i BouncingBall.obj
 0001:0002a3a0       ??_GBouncingBall2@@UAEPAXI@Z 0042b3a0 f i BouncingBall.obj
 0001:0002a3e0       ??_EBouncingBall@@UAEPAXI@Z 0042b3e0 f i BouncingBall.obj
 0001:0002a3e0       ??_GBouncingBall@@UAEPAXI@Z 0042b3e0 f i BouncingBall.obj
 0001:0002a420       ?getX@MovementPosition@@QBEHXZ 0042b420 f i BouncingBall.obj
 0001:0002a440       ?getY@MovementPosition@@QBEHXZ 0042b440 f i BouncingBall.obj
 0001:0002a460       ?hasMovementFinished@MovementPosition@@QBE_NH@Z 0042b460 f i BouncingBall.obj
 0001:0002a4a0       ?reverse@MovementPosition@@QAEXXZ 0042b4a0 f i BouncingBall.obj
 0001:0002a530       ?setAndRedrawMapValueAt@TileManager@@QAEXHHHPAVBaseEngine@@PAVDrawingSurface@@@Z 0042b530 f i BouncingBall.obj
 0001:0002a5d0       ?virtMouseDown@BouncingBall@@UAEXHHH@Z 0042b5d0 f i BouncingBall.obj
 0001:0002a610       ?virtSetupBackgroundBuffer@BouncingBallMain@@UAEXXZ 0042b610 f   BouncingBallMain.obj
 0001:0002ae50       ?virtInitialiseObjects@BouncingBallMain@@UAEHXZ 0042be50 f   BouncingBallMain.obj
 0001:0002b120       ?virtDrawStringsUnderneath@BouncingBallMain@@UAEXXZ 0042c120 f   BouncingBallMain.obj
 0001:0002b160       ?virtMouseDown@BouncingBallMain@@UAEXHHH@Z 0042c160 f   BouncingBallMain.obj
 0001:0002b1a0       ?virtKeyDown@BouncingBallMain@@UAEXH@Z 0042c1a0 f   BouncingBallMain.obj
 0001:0002b4c0       ?drawBackgroundLine@BaseEngine@@QAEXHHHHI@Z 0042c4c0 f i BouncingBallMain.obj
 0001:0002b530       ?drawBackgroundPolygon@BaseEngine@@QAEXNNNNNNNNI@Z 0042c530 f i BouncingBallMain.obj
 0001:0002b5f0       ?drawBackgroundPolygon@BaseEngine@@QAEXNNNNNNNNNNI@Z 0042c5f0 f i BouncingBallMain.obj
 0001:0002b6c0       ?drawBackgroundPolygon@BaseEngine@@QAEXNNNNNNNNNNNNI@Z 0042c6c0 f i BouncingBallMain.obj
 0001:0002b7b0       ?drawBackgroundPolygon@BaseEngine@@QAEXNNNNNNNNNNNNNNI@Z 0042c7b0 f i BouncingBallMain.obj
 0001:0002b8b0       ?drawBackgroundPolygon@BaseEngine@@QAEXNNNNNNNNNNNNNNNNI@Z 0042c8b0 f i BouncingBallMain.obj
 0001:0002b9f0       ?drawBackgroundVerticalSidedRegion@BaseEngine@@QAEXNNNNNNI@Z 0042c9f0 f i BouncingBallMain.obj
 0001:0002ba80       ?getFont@BaseEngine@@QAEPAVFont@@PBDH@Z 0042ca80 f i BouncingBallMain.obj
 0001:0002bab0       ?virtInitialise@ZoomingDemo@@UAEHXZ 0042cab0 f   ZoomingDemo.obj
 0001:0002bb00       ?virtSetupBackgroundBuffer@ZoomingDemo@@UAEXXZ 0042cb00 f   ZoomingDemo.obj
 0001:0002bb20       ?virtInitialiseObjects@ZoomingDemo@@UAEHXZ 0042cb20 f   ZoomingDemo.obj
 0001:0002bce0       ?virtDrawStringsUnderneath@ZoomingDemo@@UAEXXZ 0042cce0 f   ZoomingDemo.obj
 0001:0002bd90       ?virtDrawStringsOnTop@ZoomingDemo@@UAEXXZ 0042cd90 f   ZoomingDemo.obj
 0001:0002be10       ?virtMouseDown@ZoomingDemo@@UAEXHHH@Z 0042ce10 f   ZoomingDemo.obj
 0001:0002be60       ?virtKeyDown@ZoomingDemo@@UAEXH@Z 0042ce60 f   ZoomingDemo.obj
 0001:0002bf60       ?virtMouseWheel@ZoomingDemo@@UAEXHHHH@Z 0042cf60 f   ZoomingDemo.obj
 0001:0002c160       ??0SimpleFlashingDragableImageObject@@QAE@HHPAVBaseEngine@@V?$basic_string@DU?$char_traits@D@std@@V?$allocator@D@2@@std@@1_N2@Z 0042d160 f i ZoomingDemo.obj
 0001:0002c360       ??1SimpleFlashingDragableImageObject@@UAE@XZ 0042d360 f i ZoomingDemo.obj
 0001:0002c3a0       ??_ESimpleFlashingDragableImageObject@@UAEPAXI@Z 0042d3a0 f i ZoomingDemo.obj
 0001:0002c3a0       ??_GSimpleFlashingDragableImageObject@@UAEPAXI@Z 0042d3a0 f i ZoomingDemo.obj
 0001:0002c3e0       ?virtDoUpdate@SimpleFlashingDragableImageObject@@UAEXH@Z 0042d3e0 f i ZoomingDemo.obj
 0001:0002c440       ?virtDraw@SimpleFlashingDragableImageObject@@UAEXXZ 0042d440 f i ZoomingDemo.obj
 0001:0002c530       ?virtMouseDown@SimpleFlashingDragableImageObject@@UAEXHHH@Z 0042d530 f i ZoomingDemo.obj
 0001:0002c5a0       ?virtMouseMoved@SimpleFlashingDragableImageObject@@UAEXHH@Z 0042d5a0 f i ZoomingDemo.obj
 0001:0002c600       ?virtMouseUp@SimpleFlashingDragableImageObject@@UAEXHHH@Z 0042d600 f i ZoomingDemo.obj
 0001:0002c620       ??0MazeDemoMain@@QAE@XZ    0042d620 f   MazeDemoMain.obj
 0001:0002c6a0       ??1MazeDemoMain@@UAE@XZ    0042d6a0 f   MazeDemoMain.obj
 0001:0002c6e0       ?virtSetupBackgroundBuffer@MazeDemoMain@@UAEXXZ 0042d6e0 f   MazeDemoMain.obj
 0001:0002c8d0       ?virtInitialiseObjects@MazeDemoMain@@UAEHXZ 0042d8d0 f   MazeDemoMain.obj
 0001:0002cad0       ?virtDrawStringsUnderneath@MazeDemoMain@@UAEXXZ 0042dad0 f   MazeDemoMain.obj
 0001:0002cb60       ?virtMouseDown@MazeDemoMain@@UAEXHHH@Z 0042db60 f   MazeDemoMain.obj
 0001:0002cb70       ?virtKeyDown@MazeDemoMain@@UAEXH@Z 0042db70 f   MazeDemoMain.obj
 0001:0002cdc0       ??0MazeDemoTileManager@@QAE@XZ 0042ddc0 f i MazeDemoMain.obj
 0001:0002cdf0       ??1MazeDemoTileManager@@UAE@XZ 0042ddf0 f i MazeDemoMain.obj
 0001:0002ce20       ??_EMazeDemoMain@@UAEPAXI@Z 0042de20 f i MazeDemoMain.obj
 0001:0002ce20       ??_GMazeDemoMain@@UAEPAXI@Z 0042de20 f i MazeDemoMain.obj
 0001:0002ce60       ??_EMazeDemoTileManager@@UAEPAXI@Z 0042de60 f i MazeDemoMain.obj
 0001:0002ce60       ??_GMazeDemoTileManager@@UAEPAXI@Z 0042de60 f i MazeDemoMain.obj
 0001:0002cea0       ??0MazeDemoObject@@QAE@PAVMazeDemoMain@@HH@Z 0042dea0 f   MazeDemoObject.obj
 0001:0002cf80       ??1MazeDemoObject@@UAE@XZ  0042df80 f   MazeDemoObject.obj
 0001:0002cfa0       ?virtDraw@MazeDemoObject@@UAEXXZ 0042dfa0 f   MazeDemoObject.obj
 0001:0002d050       ?virtDoUpdate@MazeDemoObject@@UAEXH@Z 0042e050 f   MazeDemoObject.obj
 0001:0002d6f0       ??_EMazeDemoObject@@UAEPAXI@Z 0042e6f0 f i MazeDemoObject.obj
 0001:0002d6f0       ??_GMazeDemoObject@@UAEPAXI@Z 0042e6f0 f i MazeDemoObject.obj
 0001:0002d730       ?GetTileManager@MazeDemoMain@@QAEAAVMazeDemoTileManager@@XZ 0042e730 f i MazeDemoObject.obj
 0001:0002d750       ?checkCircles@CollisionDetection@@SA_NHHHHH@Z 0042e750 f i MazeDemoObject.obj
 0001:0002d7b0       ?getXCentre@DisplayableObject@@QBEHXZ 0042e7b0 f i MazeDemoObject.obj
 0001:0002d7e0       ?getXDiffForDirection@MazeDemoObject@@QAEHH@Z 0042e7e0 f i MazeDemoObject.obj
 0001:0002d850       ?getYCentre@DisplayableObject@@QBEHXZ 0042e850 f i MazeDemoObject.obj
 0001:0002d880       ?getYDiffForDirection@MazeDemoObject@@QAEHH@Z 0042e880 f i MazeDemoObject.obj
 0001:0002d8f0       ?virtDrawTileAt@MazeDemoTileManager@@UBEXPAVBaseEngine@@PAVDrawingSurface@@HHHH@Z 0042e8f0 f   MazeDemoTileManager.obj
 0001:0002dad5       _SDL_CreateRGBSurface      0042ead5 f   SDL2:SDL2.dll
 0001:0002dadb       _SDL_FreeSurface           0042eadb f   SDL2:SDL2.dll
 0001:0002dae1       _SDL_LockSurface           0042eae1 f   SDL2:SDL2.dll
 0001:0002dae7       _SDL_UnlockSurface         0042eae7 f   SDL2:SDL2.dll
 0001:0002daed       _SDL_FillRect              0042eaed f   SDL2:SDL2.dll
 0001:0002daf3       _SDL_UpperBlit             0042eaf3 f   SDL2:SDL2.dll
 0001:0002daf9       _SDL_GetError              0042eaf9 f   SDL2:SDL2.dll
 0001:0002daff       _SDL_CreateWindow          0042eaff f   SDL2:SDL2.dll
 0001:0002db05       _SDL_PollEvent             0042eb05 f   SDL2:SDL2.dll
 0001:0002db0b       _SDL_WaitEvent             0042eb0b f   SDL2:SDL2.dll
 0001:0002db11       _SDL_CreateRenderer        0042eb11 f   SDL2:SDL2.dll
 0001:0002db17       _SDL_CreateTexture         0042eb17 f   SDL2:SDL2.dll
 0001:0002db1d       _SDL_UpdateTexture         0042eb1d f   SDL2:SDL2.dll
 0001:0002db23       _SDL_RenderCopy            0042eb23 f   SDL2:SDL2.dll
 0001:0002db29       _SDL_RenderPresent         0042eb29 f   SDL2:SDL2.dll
 0001:0002db2f       _SDL_GetTicks              0042eb2f f   SDL2:SDL2.dll
 0001:0002db35       _SDL_Init                  0042eb35 f   SDL2:SDL2.dll
 0001:0002db3b       _SDL_Quit                  0042eb3b f   SDL2:SDL2.dll
 0001:0002db41       _SDL_SetClipRect           0042eb41 f   SDL2:SDL2.dll
 0001:0002db47       _SDL_UpperBlitScaled       0042eb47 f   SDL2:SDL2.dll
 0001:0002db4d       _IMG_Load                  0042eb4d f   SDL2_image:SDL2_image.dll
 0001:0002db53       _TTF_RenderText_Solid      0042eb53 f   SDL2_ttf:SDL2_ttf.dll
 0001:0002db59       _TTF_Init                  0042eb59 f   SDL2_ttf:SDL2_ttf.dll
 0001:0002db5f       _TTF_Quit                  0042eb5f f   SDL2_ttf:SDL2_ttf.dll
 0001:0002db65       _TTF_OpenFont              0042eb65 f   SDL2_ttf:SDL2_ttf.dll
 0001:0002db6b       _TTF_CloseFont             0042eb6b f   SDL2_ttf:SDL2_ttf.dll
 0001:0002db71       ??0_Lockit@std@@QAE@H@Z    0042eb71 f   msvcprtd:MSVCP140D.dll
 0001:0002db77       ??1_Lockit@std@@QAE@XZ     0042eb77 f   msvcprtd:MSVCP140D.dll
 0001:00038440       ___std_count_trivial_1@12  00439440 f   msvcprtd:vector_algorithms.obj
 0001:00038460       ___std_count_trivial_2@12  00439460 f   msvcprtd:vector_algorithms.obj
 0001:00038480       ___std_count_trivial_4@12  00439480 f   msvcprtd:vector_algorithms.obj
 0001:000384a0       ___std_count_trivial_8@16  004394a0 f   msvcprtd:vector_algorithms.obj
 0001:000384d0       ___std_find_last_trivial_1@12 004394d0 f   msvcprtd:vector_algorithms.obj
 0001:000384f0       ___std_find_last_trivial_2@12 004394f0 f   msvcprtd:vector_algorithms.obj
 0001:00038510       ___std_find_last_trivial_4@12 00439510 f   msvcprtd:vector_algorithms.obj
 0001:00038530       ___std_find_last_trivial_8@16 00439530 f   msvcprtd:vector_algorithms.obj
 0001:00038560       ___std_find_trivial_1@12   00439560 f   msvcprtd:vector_algorithms.obj
 0001:00038580       ___std_find_trivial_2@12   00439580 f   msvcprtd:vector_algorithms.obj
 0001:000385a0       ___std_find_trivial_4@12   004395a0 f   msvcprtd:vector_algorithms.obj
 0001:000385c0       ___std_find_trivial_8@16   004395c0 f   msvcprtd:vector_algorithms.obj
 0001:000385f0       ___std_find_trivial_unsized_1@8 004395f0 f   msvcprtd:vector_algorithms.obj
 0001:00038610       ___std_find_trivial_unsized_2@8 00439610 f   msvcprtd:vector_algorithms.obj
 0001:00038630       ___std_find_trivial_unsized_4@8 00439630 f   msvcprtd:vector_algorithms.obj
 0001:00038650       ___std_find_trivial_unsized_8@12 00439650 f   msvcprtd:vector_algorithms.obj
 0001:00038670       ___std_max_element_1@12    00439670 f   msvcprtd:vector_algorithms.obj
 0001:00038690       ___std_max_element_2@12    00439690 f   msvcprtd:vector_algorithms.obj
 0001:000386b0       ___std_max_element_4@12    004396b0 f   msvcprtd:vector_algorithms.obj
 0001:000386d0       ___std_max_element_8@12    004396d0 f   msvcprtd:vector_algorithms.obj
 0001:000386f0       ___std_min_element_1@12    004396f0 f   msvcprtd:vector_algorithms.obj
 0001:00038710       ___std_min_element_2@12    00439710 f   msvcprtd:vector_algorithms.obj
 0001:00038730       ___std_min_element_4@12    00439730 f   msvcprtd:vector_algorithms.obj
 0001:00038750       ___std_min_element_8@12    00439750 f   msvcprtd:vector_algorithms.obj
 0001:00038770       ___std_minmax_element_1@12 00439770 f   msvcprtd:vector_algorithms.obj
 0001:000387b0       ___std_minmax_element_2@12 004397b0 f   msvcprtd:vector_algorithms.obj
 0001:000387f0       ___std_minmax_element_4@12 004397f0 f   msvcprtd:vector_algorithms.obj
 0001:00038830       ___std_minmax_element_8@12 00439830 f   msvcprtd:vector_algorithms.obj
 0001:00038870       ___std_reverse_copy_trivially_copyable_1 00439870 f   msvcprtd:vector_algorithms.obj
 0001:00038b00       ___std_reverse_copy_trivially_copyable_2 00439b00 f   msvcprtd:vector_algorithms.obj
 0001:00038d90       ___std_reverse_copy_trivially_copyable_4 00439d90 f   msvcprtd:vector_algorithms.obj
 0001:00038fc0       ___std_reverse_copy_trivially_copyable_8 00439fc0 f   msvcprtd:vector_algorithms.obj
 0001:000391c0       ___std_reverse_trivially_swappable_1 0043a1c0 f   msvcprtd:vector_algorithms.obj
 0001:00039540       ___std_reverse_trivially_swappable_2 0043a540 f   msvcprtd:vector_algorithms.obj
 0001:000398c0       ___std_reverse_trivially_swappable_4 0043a8c0 f   msvcprtd:vector_algorithms.obj
 0001:00039bb0       ___std_reverse_trivially_swappable_8 0043abb0 f   msvcprtd:vector_algorithms.obj
 0001:00039e70       ___std_swap_ranges_trivially_swappable 0043ae70 f   msvcprtd:vector_algorithms.obj
 0001:00039ea0       ___std_swap_ranges_trivially_swappable_noalias 0043aea0 f   msvcprtd:vector_algorithms.obj
 0001:0003a1bd       ?_Xlength_error@std@@YAXPBD@Z 0043b1bd f   msvcprtd:MSVCP140D.dll
 0001:0003a1c3       ?uncaught_exception@std@@YA_NXZ 0043b1c3 f   msvcprtd:MSVCP140D.dll
 0001:0003a1c9       ?good@ios_base@std@@QBE_NXZ 0043b1c9 f   msvcprtd:MSVCP140D.dll
 0001:0003a1cf       ?flags@ios_base@std@@QBEHXZ 0043b1cf f   msvcprtd:MSVCP140D.dll
 0001:0003a1d5       ?width@ios_base@std@@QBE_JXZ 0043b1d5 f   msvcprtd:MSVCP140D.dll
 0001:0003a1db       ?width@ios_base@std@@QAE_J_J@Z 0043b1db f   msvcprtd:MSVCP140D.dll
 0001:0003a1e1       ?sputc@?$basic_streambuf@DU?$char_traits@D@std@@@std@@QAEHD@Z 0043b1e1 f   msvcprtd:MSVCP140D.dll
 0001:0003a1e7       ?sputn@?$basic_streambuf@DU?$char_traits@D@std@@@std@@QAE_JPBD_J@Z 0043b1e7 f   msvcprtd:MSVCP140D.dll
 0001:0003a1ed       ?setstate@?$basic_ios@DU?$char_traits@D@std@@@std@@QAEXH_N@Z 0043b1ed f   msvcprtd:MSVCP140D.dll
 0001:0003a1f3       ?tie@?$basic_ios@DU?$char_traits@D@std@@@std@@QBEPAV?$basic_ostream@DU?$char_traits@D@std@@@2@XZ 0043b1f3 f   msvcprtd:MSVCP140D.dll
 0001:0003a1f9       ?rdbuf@?$basic_ios@DU?$char_traits@D@std@@@std@@QBEPAV?$basic_streambuf@DU?$char_traits@D@std@@@2@XZ 0043b1f9 f   msvcprtd:MSVCP140D.dll
 0001:0003a1ff       ?fill@?$basic_ios@DU?$char_traits@D@std@@@std@@QBEDXZ 0043b1ff f   msvcprtd:MSVCP140D.dll
 0001:0003a205       ?widen@?$basic_ios@DU?$char_traits@D@std@@@std@@QBEDD@Z 0043b205 f   msvcprtd:MSVCP140D.dll
 0001:0003a20b       ?_Osfx@?$basic_ostream@DU?$char_traits@D@std@@@std@@QAEXXZ 0043b20b f   msvcprtd:MSVCP140D.dll
 0001:0003a211       ??6?$basic_ostream@DU?$char_traits@D@std@@@std@@QAEAAV01@P6AAAV01@AAV01@@Z@Z 0043b211 f   msvcprtd:MSVCP140D.dll
 0001:0003a217       ??6?$basic_ostream@DU?$char_traits@D@std@@@std@@QAEAAV01@H@Z 0043b217 f   msvcprtd:MSVCP140D.dll
 0001:0003a21d       ?put@?$basic_ostream@DU?$char_traits@D@std@@@std@@QAEAAV12@D@Z 0043b21d f   msvcprtd:MSVCP140D.dll
 0001:0003a223       ?flush@?$basic_ostream@DU?$char_traits@D@std@@@std@@QAEAAV12@XZ 0043b223 f   msvcprtd:MSVCP140D.dll
 0001:0003a600       ?configure_argv@__scrt_narrow_argv_policy@@SAHXZ 0043b600 f i MSVCRTD:exe_main.obj
 0001:0003a620       ?initialize_environment@__scrt_narrow_environment_policy@@SAHXZ 0043b620 f i MSVCRTD:exe_main.obj
 0001:0003a680       ?set_app_type@__scrt_main_policy@@SAXXZ 0043b680 f i MSVCRTD:exe_main.obj
 0001:0003a6a0       ?set_commode@__scrt_file_policy@@SAXXZ 0043b6a0 f i MSVCRTD:exe_main.obj
 0001:0003a6c0       ?set_fmode@__scrt_file_policy@@SAXXZ 0043b6c0 f i MSVCRTD:exe_main.obj
 0001:0003a6e0       _mainCRTStartup            0043b6e0 f   MSVCRTD:exe_main.obj
 0001:0003a6f0       ??_M@YGXPAXIHP6EX0@Z@Z     0043b6f0 f   MSVCRTD:ehvecdtr.obj
 0001:0003a720       ??_M@YGXPAXIIP6EX0@Z@Z     0043b720 f   MSVCRTD:ehvecdtr.obj
 0001:0003a880       ?__ArrayUnwind@@YGXPAXIIP6EX0@Z@Z 0043b880 f   MSVCRTD:ehvecdtr.obj
 0001:0003a960       ??2@YAPAXI@Z               0043b960 f   MSVCRTD:new_scalar.obj
 0001:0003a9c0       ??3@YAXPAXI@Z              0043b9c0 f   MSVCRTD:delete_scalar_size.obj
 0001:0003a9e0       ??_U@YAPAXI@Z              0043b9e0 f   MSVCRTD:new_array.obj
 0001:0003aa00       ??_V@YAXPAX@Z              0043ba00 f   MSVCRTD:delete_array.obj
 0001:0003ab60       _NtCurrentTeb              0043bb60 f i MSVCRTD:utility.obj
 0001:0003ab70       ___scrt_acquire_startup_lock 0043bb70 f   MSVCRTD:utility.obj
 0001:0003abd0       ___scrt_dllmain_after_initialize_c 0043bbd0 f   MSVCRTD:utility.obj
 0001:0003ac10       ___scrt_dllmain_before_initialize_c 0043bc10 f   MSVCRTD:utility.obj
 0001:0003ac40       ___scrt_dllmain_crt_thread_attach 0043bc40 f   MSVCRTD:utility.obj
 0001:0003ac80       ___scrt_dllmain_crt_thread_detach 0043bc80 f   MSVCRTD:utility.obj
 0001:0003aca0       ___scrt_dllmain_exception_filter 0043bca0 f   MSVCRTD:utility.obj
 0001:0003ad00       ___scrt_dllmain_uninitialize_c 0043bd00 f   MSVCRTD:utility.obj
 0001:0003ad40       ___scrt_dllmain_uninitialize_critical 0043bd40 f   MSVCRTD:utility.obj
 0001:0003ad60       ___scrt_initialize_crt     0043bd60 f   MSVCRTD:utility.obj
 0001:0003adc0       ___scrt_initialize_onexit_tables 0043bdc0 f   MSVCRTD:utility.obj
 0001:0003aed0       ___scrt_is_nonwritable_in_current_image 0043bed0 f   MSVCRTD:utility.obj
 0001:0003b050       ___scrt_release_startup_lock 0043c050 f   MSVCRTD:utility.obj
 0001:0003b080       ___scrt_uninitialize_crt   0043c080 f   MSVCRTD:utility.obj
 0001:0003b0d0       __onexit                   0043c0d0 f   MSVCRTD:utility.obj
 0001:0003b150       _at_quick_exit             0043c150 f   MSVCRTD:utility.obj
 0001:0003b1a0       _atexit                    0043c1a0 f   MSVCRTD:utility.obj
 0001:0003b1e0       @__security_check_cookie@4 0043c1e0 f   MSVCRTD:secchk.obj
 0001:0003b200       ??1type_info@@UAE@XZ       0043c200 f   MSVCRTD:std_type_info_static.obj
 0001:0003b220       ??_Etype_info@@UAEPAXI@Z   0043c220 f i MSVCRTD:std_type_info_static.obj
 0001:0003b220       ??_Gtype_info@@UAEPAXI@Z   0043c220 f i MSVCRTD:std_type_info_static.obj
 0001:0003b260       __allshl                   0043c260 f   MSVCRTD:llshl.obj
 0001:0003b290       ___isa_available_init      0043c290 f   MSVCRTD:cpu_disp.obj
 0001:0003b720       ___security_init_cookie    0043c720 f   MSVCRTD:gs_support.obj
 0001:0003b7c0       __matherr                  0043c7c0 f   MSVCRTD:matherr.obj
 0001:0003b7d0       __get_startup_argv_mode    0043c7d0 f   MSVCRTD:argv_mode.obj
 0001:0003b7e0       __get_startup_commit_mode  0043c7e0 f   MSVCRTD:commit_mode.obj
 0001:0003b7f0       __get_startup_file_mode    0043c7f0 f   MSVCRTD:file_mode.obj
 0001:0003b800       __get_startup_new_mode     0043c800 f   MSVCRTD:new_mode.obj
 0001:0003b810       __get_startup_thread_locale_mode 0043c810 f   MSVCRTD:thread_locale.obj
 0001:0003b820       ?__scrt_initialize_type_info@@YAXXZ 0043c820 f   MSVCRTD:tncleanup.obj
 0001:0003b840       ?__scrt_uninitialize_type_info@@YAXXZ 0043c840 f   MSVCRTD:tncleanup.obj
 0001:0003b860       __should_initialize_environment 0043c860 f   MSVCRTD:env_mode.obj
 0001:0003b870       __initialize_default_precision 0043c870 f   MSVCRTD:default_precision.obj
 0001:0003b8a0       __initialize_invalid_parameter_handler 0043c8a0 f   MSVCRTD:invalid_parameter_handler.obj
 0001:0003b8b0       __initialize_denormal_control 0043c8b0 f   MSVCRTD:denormal_control.obj
 0001:0003b8c0       ___local_stdio_scanf_options 0043c8c0 f i MSVCRTD:default_local_stdio_options.obj
 0001:0003b8d0       ___scrt_initialize_default_local_stdio_options 0043c8d0 f   MSVCRTD:default_local_stdio_options.obj
 0001:0003b920       ___scrt_is_user_matherr_present 0043c920 f   MSVCRTD:matherr_detection.obj
 0001:0003b950       ___scrt_get_dyn_tls_init_callback 0043c950 f   MSVCRTD:dyn_tls_init.obj
 0001:0003b960       ___scrt_get_dyn_tls_dtor_callback 0043c960 f   MSVCRTD:dyn_tls_dtor.obj
 0001:0003b970       ___scrt_fastfail           0043c970 f   MSVCRTD:utility_desktop.obj
 0001:0003bb00       ___scrt_get_show_window_mode 0043cb00 f   MSVCRTD:utility_desktop.obj
 0001:0003bb50       ___scrt_initialize_mta     0043cb50 f   MSVCRTD:utility_desktop.obj
 0001:0003bb60       ___scrt_initialize_winrt   0043cb60 f   MSVCRTD:utility_desktop.obj
 0001:0003bb70       ___scrt_is_managed_app     0043cb70 f   MSVCRTD:utility_desktop.obj
 0001:0003bc20       ___scrt_set_unhandled_exception_filter 0043cc20 f   MSVCRTD:utility_desktop.obj
 0001:0003bc40       ___scrt_exe_initialize_mta 0043cc40 f   MSVCRTD:utility_desktop.obj
 0001:0003bc40       ___scrt_stub_for_initialize_mta 0043cc40 f   MSVCRTD:utility_desktop.obj
 0001:0003bc50       ___scrt_unhandled_exception_filter@4 0043cc50 f   MSVCRTD:utility_desktop.obj
 0001:0003bcf0       __crt_debugger_hook        0043ccf0 f   MSVCRTD:utility_desktop.obj
 0001:0003bd10       __RTC_Initialize           0043cd10 f   MSVCRTD:initsect.obj
 0001:0003bd50       __RTC_Terminate            0043cd50 f   MSVCRTD:initsect.obj
 0001:0003bd90       __except_handler4          0043cd90 f   MSVCRTD:chandler4gs.obj
 0001:0003bde0       @_guard_check_icall_nop@4  0043cde0 f i MSVCRTD:guard_support.obj
 0001:0003bdf0       _ReadNoFence               0043cdf0 f i MSVCRTD:guard_support.obj
 0001:0003be10       _ReadPointerNoFence        0043ce10 f i MSVCRTD:guard_support.obj
 0001:0003be30       __InlineInterlockedExchangePointer 0043ce30 f i MSVCRTD:guard_support.obj
 0001:0003be40       ___castguard_check_failure_debugbreak 0043ce40 f i MSVCRTD:guard_support.obj
 0001:0003be60       ___castguard_check_failure_fastfail 0043ce60 f i MSVCRTD:guard_support.obj
 0001:0003be90       ___castguard_check_failure_nop 0043ce90 f i MSVCRTD:guard_support.obj
 0001:0003bea0       ___castguard_check_failure_os_handled 0043cea0 f i MSVCRTD:guard_support.obj
 0001:0003bf10       ___castguard_check_failure_user_handled 0043cf10 f i MSVCRTD:guard_support.obj
 0001:0003bfe0       ___castguard_set_user_handler 0043cfe0 f i MSVCRTD:guard_support.obj
 0001:0003c010       ___castguard_slow_path_check_debugbreak 0043d010 f i MSVCRTD:guard_support.obj
 0001:0003c050       ___castguard_slow_path_check_fastfail 0043d050 f i MSVCRTD:guard_support.obj
 0001:0003c0a0       ___castguard_slow_path_check_nop 0043d0a0 f i MSVCRTD:guard_support.obj
 0001:0003c0b0       ___castguard_slow_path_check_os_handled 0043d0b0 f i MSVCRTD:guard_support.obj
 0001:0003c100       ___castguard_slow_path_check_user_handled 0043d100 f i MSVCRTD:guard_support.obj
 0001:0003c1a0       __guard_icall_checks_enforced 0043d1a0 f i MSVCRTD:guard_support.obj
 0001:0003c1e0       ??0bad_alloc@std@@QAE@XZ   0043d1e0 f i MSVCRTD:throw_bad_alloc.obj
 0001:0003c210       ?__scrt_throw_std_bad_alloc@@YAXXZ 0043d210 f   MSVCRTD:throw_bad_alloc.obj
 0001:0003c240       ?__scrt_throw_std_bad_array_new_length@@YAXXZ 0043d240 f   MSVCRTD:throw_bad_alloc.obj
 0001:0003c270       ??3@YAXPAX@Z               0043d270 f   MSVCRTD:delete_scalar.obj
 0001:0003c290       ___scrt_is_ucrt_dll_in_use 0043d290 f   MSVCRTD:ucrt_detection.obj
 0001:0003c2c0       ___raise_securityfailure   0043d2c0 f   MSVCRTD:gs_report.obj
 0001:0003c300       ___report_gsfailure        0043d300 f   MSVCRTD:gs_report.obj
 0001:0003c450       ___report_rangecheckfailure 0043d450 f   MSVCRTD:gs_report.obj
 0001:0003c460       ___report_securityfailure  0043d460 f   MSVCRTD:gs_report.obj
 0001:0003c570       ___report_securityfailureEx 0043d570 f   MSVCRTD:gs_report.obj
 0001:0003c6df       __purecall                 0043d6df f   vcruntimed:VCRUNTIME140D.dll
 0001:0003c6e5       _memcmp                    0043d6e5 f   vcruntimed:VCRUNTIME140D.dll
 0001:0003c6eb       _memcpy                    0043d6eb f   vcruntimed:VCRUNTIME140D.dll
 0001:0003c6f1       _memmove                   0043d6f1 f   vcruntimed:VCRUNTIME140D.dll
 0001:0003c6f7       _memset                    0043d6f7 f   vcruntimed:VCRUNTIME140D.dll
 0001:0003c6fd       ___std_exception_copy      0043d6fd f   vcruntimed:VCRUNTIME140D.dll
 0001:0003c703       ___std_exception_destroy   0043d703 f   vcruntimed:VCRUNTIME140D.dll
 0001:0003c709       __CxxThrowException@8      0043d709 f   vcruntimed:VCRUNTIME140D.dll
 0001:0003c70f       ___CxxFrameHandler3        0043d70f f   vcruntimed:VCRUNTIME140D.dll
 0001:0003c715       ___RTDynamicCast           0043d715 f   vcruntimed:VCRUNTIME140D.dll
 0001:0003c71b       ___current_exception       0043d71b f   vcruntimed:VCRUNTIME140D.dll
 0001:0003c721       ___current_exception_context 0043d721 f   vcruntimed:VCRUNTIME140D.dll
 0001:0003c727       ___std_type_info_destroy_list 0043d727 f   vcruntimed:VCRUNTIME140D.dll
 0001:0003c72d       __except_handler4_common   0043d72d f   vcruntimed:VCRUNTIME140D.dll
 0001:0003c733       __invalid_parameter        0043d733 f   ucrtd:ucrtbased.dll
 0001:0003c739       __CrtDbgReport             0043d739 f   ucrtd:ucrtbased.dll
 0001:0003c73f       _atan                      0043d73f f   ucrtd:ucrtbased.dll
 0001:0003c745       _cos                       0043d745 f   ucrtd:ucrtbased.dll
 0001:0003c74b       _sin                       0043d74b f   ucrtd:ucrtbased.dll
 0001:0003c751       _sqrt                      0043d751 f   ucrtd:ucrtbased.dll
 0001:0003c757       _rand                      0043d757 f   ucrtd:ucrtbased.dll
 0001:0003c75d       ___acrt_iob_func           0043d75d f   ucrtd:ucrtbased.dll
 0001:0003c763       ___stdio_common_vfprintf   0043d763 f   ucrtd:ucrtbased.dll
 0001:0003c769       ___stdio_common_vsprintf   0043d769 f   ucrtd:ucrtbased.dll
 0001:0003c76f       _strlen                    0043d76f f   ucrtd:ucrtbased.dll
 0001:0003c775       __CrtDumpMemoryLeaks       0043d775 f   ucrtd:ucrtbased.dll
 0001:0003c77b       _srand                     0043d77b f   ucrtd:ucrtbased.dll
 0001:0003c781       __time64                   0043d781 f   ucrtd:ucrtbased.dll
 0001:0003c787       _puts                      0043d787 f   ucrtd:ucrtbased.dll
 0001:0003c78d       _strcmp                    0043d78d f   ucrtd:ucrtbased.dll
 0001:0003c793       _strcpy                    0043d793 f   ucrtd:ucrtbased.dll
 0001:0003c799       __seh_filter_exe           0043d799 f   ucrtd:ucrtbased.dll
 0001:0003c79f       __set_app_type             0043d79f f   ucrtd:ucrtbased.dll
 0001:0003c7a5       ___setusermatherr          0043d7a5 f   ucrtd:ucrtbased.dll
 0001:0003c7ab       __configure_narrow_argv    0043d7ab f   ucrtd:ucrtbased.dll
 0001:0003c7b1       __initialize_narrow_environment 0043d7b1 f   ucrtd:ucrtbased.dll
 0001:0003c7b7       __get_initial_narrow_environment 0043d7b7 f   ucrtd:ucrtbased.dll
 0001:0003c7bd       __initterm                 0043d7bd f   ucrtd:ucrtbased.dll
 0001:0003c7c3       __initterm_e               0043d7c3 f   ucrtd:ucrtbased.dll
 0001:0003c7c9       _exit                      0043d7c9 f   ucrtd:ucrtbased.dll
 0001:0003c7cf       __exit                     0043d7cf f   ucrtd:ucrtbased.dll
 0001:0003c7d5       __set_fmode                0043d7d5 f   ucrtd:ucrtbased.dll
 0001:0003c7db       ___p___argc                0043d7db f   ucrtd:ucrtbased.dll
 0001:0003c7e1       ___p___argv                0043d7e1 f   ucrtd:ucrtbased.dll
 0001:0003c7e7       __cexit                    0043d7e7 f   ucrtd:ucrtbased.dll
 0001:0003c7ed       __c_exit                   0043d7ed f   ucrtd:ucrtbased.dll
 0001:0003c7f3       __register_thread_local_exe_atexit_callback 0043d7f3 f   ucrtd:ucrtbased.dll
 0001:0003c7f9       __configthreadlocale       0043d7f9 f   ucrtd:ucrtbased.dll
 0001:0003c7ff       __set_new_mode             0043d7ff f   ucrtd:ucrtbased.dll
 0001:0003c805       ___p__commode              0043d805 f   ucrtd:ucrtbased.dll
 0001:0003c80b       _terminate                 0043d80b f   ucrtd:ucrtbased.dll
 0001:0003c811       __callnewh                 0043d811 f   ucrtd:ucrtbased.dll
 0001:0003c817       _malloc                    0043d817 f   ucrtd:ucrtbased.dll
 0001:0003c81d       __seh_filter_dll           0043d81d f   ucrtd:ucrtbased.dll
 0001:0003c823       __initialize_onexit_table  0043d823 f   ucrtd:ucrtbased.dll
 0001:0003c829       __register_onexit_function 0043d829 f   ucrtd:ucrtbased.dll
 0001:0003c82f       __execute_onexit_table     0043d82f f   ucrtd:ucrtbased.dll
 0001:0003c835       __crt_atexit               0043d835 f   ucrtd:ucrtbased.dll
 0001:0003c83b       __crt_at_quick_exit        0043d83b f   ucrtd:ucrtbased.dll
 0001:0003c841       __controlfp_s              0043d841 f   ucrtd:ucrtbased.dll
 0001:0003c847       __free_dbg                 0043d847 f   ucrtd:ucrtbased.dll
 0001:0003c990       _WinMain@16                0043d990 f   SDL2main:SDL_windows_main.obj
 0001:0003c9a0       _main                      0043d9a0 f   SDL2main:SDL_windows_main.obj
 0001:0003caf0       _wmain                     0043daf0 f   SDL2main:SDL_windows_main.obj
 0001:0003caf5       _IsProcessorFeaturePresent@4 0043daf5 f   kernel32:KERNEL32.dll
 0001:0003cafb       _QueryPerformanceCounter@4 0043dafb f   kernel32:KERNEL32.dll
 0001:0003cb01       _GetCurrentProcessId@0     0043db01 f   kernel32:KERNEL32.dll
 0001:0003cb07       _GetCurrentThreadId@0      0043db07 f   kernel32:KERNEL32.dll
 0001:0003cb0d       _GetSystemTimeAsFileTime@4 0043db0d f   kernel32:KERNEL32.dll
 0001:0003cb13       _InitializeSListHead@4     0043db13 f   kernel32:KERNEL32.dll
 0001:0003cb19       _IsDebuggerPresent@0       0043db19 f   kernel32:KERNEL32.dll
 0001:0003cb1f       _UnhandledExceptionFilter@4 0043db1f f   kernel32:KERNEL32.dll
 0001:0003cb25       _SetUnhandledExceptionFilter@4 0043db25 f   kernel32:KERNEL32.dll
 0001:0003cb2b       _GetStartupInfoW@4         0043db2b f   kernel32:KERNEL32.dll
 0001:0003cb31       _GetModuleHandleW@4        0043db31 f   kernel32:KERNEL32.dll
 0001:0003cb37       _GetCurrentProcess@0       0043db37 f   kernel32:KERNEL32.dll
 0001:0003cb3d       _TerminateProcess@8        0043db3d f   kernel32:KERNEL32.dll
 0001:0003cb43       _GetCommandLineW@0         0043db43 f   kernel32:KERNEL32.dll
 0001:0003cb49       _VirtualAlloc@16           0043db49 f   kernel32:KERNEL32.dll
 0001:0003cb4f       _VirtualFree@12            0043db4f f   kernel32:KERNEL32.dll
 0001:0003cb55       _WideCharToMultiByte@32    0043db55 f   kernel32:KERNEL32.dll
 0001:0003cb5b       _SDL_SetMainReady          0043db5b f   SDL2:SDL2.dll
 0001:0003cb61       _SDL_ShowSimpleMessageBox  0043db61 f   SDL2:SDL2.dll
 0001:0003cb70       ___acrt_initialize         0043db70 f   MSVCRTD:ucrt_stubs.obj
 0001:0003cb70       ___scrt_stub_for_acrt_initialize 0043db70 f   MSVCRTD:ucrt_stubs.obj
 0001:0003cb70       ___vcrt_initialize         0043db70 f   MSVCRTD:ucrt_stubs.obj
 0001:0003cb80       ___acrt_thread_attach      0043db80 f   MSVCRTD:ucrt_stubs.obj
 0001:0003cb80       ___scrt_stub_for_acrt_thread_attach 0043db80 f   MSVCRTD:ucrt_stubs.obj
 0001:0003cb80       ___vcrt_thread_attach      0043db80 f   MSVCRTD:ucrt_stubs.obj
 0001:0003cb90       ___acrt_thread_detach      0043db90 f   MSVCRTD:ucrt_stubs.obj
 0001:0003cb90       ___scrt_stub_for_acrt_thread_detach 0043db90 f   MSVCRTD:ucrt_stubs.obj
 0001:0003cb90       ___vcrt_thread_detach      0043db90 f   MSVCRTD:ucrt_stubs.obj
 0001:0003cba0       ___acrt_uninitialize       0043dba0 f   MSVCRTD:ucrt_stubs.obj
 0001:0003cba0       ___scrt_stub_for_acrt_uninitialize 0043dba0 f   MSVCRTD:ucrt_stubs.obj
 0001:0003cba0       ___vcrt_uninitialize       0043dba0 f   MSVCRTD:ucrt_stubs.obj
 0001:0003cbb0       ___acrt_uninitialize_critical 0043dbb0 f   MSVCRTD:ucrt_stubs.obj
 0001:0003cbb0       ___scrt_stub_for_acrt_uninitialize_critical 0043dbb0 f   MSVCRTD:ucrt_stubs.obj
 0001:0003cbb0       ___vcrt_uninitialize_critical 0043dbb0 f   MSVCRTD:ucrt_stubs.obj
 0001:0003cbc0       ___scrt_stub_for_is_c_termination_complete 0043dbc0 f   MSVCRTD:ucrt_stubs.obj
 0001:0003cbc0       __is_c_termination_complete 0043dbc0 f   MSVCRTD:ucrt_stubs.obj
 0001:0003cbd0       __filter_x86_sse2_floating_point_exception 0043dbd0 f   MSVCRTD:x86_exception_filter.obj
 0001:0003cbd0       __filter_x86_sse2_floating_point_exception_default 0043dbd0 f   MSVCRTD:x86_exception_filter.obj
 0002:00000000       ___xc_a                    00444000     MSVCRTD:initializers.obj
 0002:0000030c       ___xc_z                    0044430c     MSVCRTD:initializers.obj
 0002:00000410       ___xi_a                    00444410     MSVCRTD:initializers.obj
 0002:0000071c       ___xi_z                    0044471c     MSVCRTD:initializers.obj
 0002:00000820       ___xp_a                    00444820     MSVCRTD:initializers.obj
 0002:00000924       ___xp_z                    00444924     MSVCRTD:initializers.obj
 0002:00000a28       ___xt_a                    00444a28     MSVCRTD:initializers.obj
 0002:00000b2c       ___xt_z                    00444b2c     MSVCRTD:initializers.obj
 0002:00001854       ??_C@_0BB@NOCKJGNE@images?1?$CLLife?4png@ 00445854     CrimsonWasteland2.obj
 0002:00001868       ??_C@_0BB@NDDEOGJD@images?1?9Life?4png@ 00445868     CrimsonWasteland2.obj
 0002:0000187c       ??_C@_0CC@DLLMBGPH@images?1playerAnimation?1Player?4p@ 0044587c     CrimsonWasteland2.obj
 0002:000018a0       ??_C@_0CD@MDOKPMAO@images?1playerAnimation?1Player1?4@ 004458a0     CrimsonWasteland2.obj
 0002:000018c4       ??_C@_0CD@EFHOIOKA@images?1playerAnimation?1Player2?4@ 004458c4     CrimsonWasteland2.obj
 0002:000018e8       ??_C@_0CD@IOCCFNAF@images?1playerAnimation?1Player3?4@ 004458e8     CrimsonWasteland2.obj
 0002:0000190c       ??_C@_0CD@JDCHGNLN@images?1playerAnimation?1Player4?4@ 0044590c     CrimsonWasteland2.obj
 0002:00001930       ??_C@_0CD@FIHLLOBI@images?1playerAnimation?1Player5?4@ 00445930     CrimsonWasteland2.obj
 0002:00001954       ??_C@_0BG@JNHAOJCG@images?1ZombiePlay?4png@ 00445954     CrimsonWasteland2.obj
 0002:00001974       ??_7exception@std@@6B@     00445974     CrimsonWasteland2.obj
 0002:00001980       ??_C@_0BC@EOODALEL@Unknown?5exception@ 00445980     CrimsonWasteland2.obj
 0002:0000199c       ??_7bad_alloc@std@@6B@     0044599c     CrimsonWasteland2.obj
 0002:000019ac       ??_7bad_array_new_length@std@@6B@ 004459ac     CrimsonWasteland2.obj
 0002:000019b8       ??_C@_0BF@KINCDENJ@bad?5array?5new?5length@ 004459b8     CrimsonWasteland2.obj
 0002:000019d4       ??_C@_0BB@FCMFBGOM@invalid?5argument@ 004459d4     CrimsonWasteland2.obj
 0002:000019e8       ??_C@_02DKCKIIND@?$CFs@    004459e8     CrimsonWasteland2.obj
 0002:000019f0       ??_C@_0GC@IGIKFMFC@C?3?2Program?5Files?2Microsoft?5Visu@ 004459f0     CrimsonWasteland2.obj
 0002:00001a54       ??_C@_0BA@GBCIKGL@images?1Wall?4png@ 00445a54     CrimsonWasteland2.obj
 0002:00001a68       ??_C@_1ME@LJPJJNIE@?$AAC?$AA?3?$AA?2?$AAP?$AAr?$AAo?$AAg?$AAr?$AAa?$AAm?$AA?5?$AAF?$AAi?$AAl?$AAe@ 00445a68     CrimsonWasteland2.obj
 0002:00001b2c       ??_C@_0BD@KIENMAMP@images?1Shelves?4png@ 00445b2c     CrimsonWasteland2.obj
 0002:00001b40       ??_C@_0BE@BMIOBAJM@images?1ExitLeft?4png@ 00445b40     CrimsonWasteland2.obj
 0002:00001b54       ??_C@_11LOCGONAA@@         00445b54     CrimsonWasteland2.obj
 0002:00001b58       ??_C@_1CG@JNLFBNGN@?$AA?$CC?$AAi?$AAn?$AAv?$AAa?$AAl?$AAi?$AAd?$AA?5?$AAa?$AAr?$AAg?$AAu?$AAm?$AAe@ 00445b58     CrimsonWasteland2.obj
 0002:00001b88       ??_C@_0BJ@LFDBABJJ@ITERATOR?5LIST?5CORRUPTED?$CB@ 00445b88     CrimsonWasteland2.obj
 0002:00001ba8       ??_C@_1DG@PLBPCAEM@?$AA?$CC?$AAI?$AAT?$AAE?$AAR?$AAA?$AAT?$AAO?$AAR?$AA?5?$AAL?$AAI?$AAS?$AAT?$AA?5@ 00445ba8     CrimsonWasteland2.obj
 0002:00001be8       ??_C@_0BA@JFNIOLAK@string?5too?5long@ 00445be8     CrimsonWasteland2.obj
 0002:00001bfb       ??_C@_00CNPNBAHC@@         00445bfb     CrimsonWasteland2.obj
 0002:00001c00       ??_7FilterPoints@@6B@      00445c00     CrimsonWasteland2.obj
 0002:00001c18       ??_C@_0CN@GHCLOPHF@Error?5in?5setting?5pixel?9?5should?5@ 00445c18     CrimsonWasteland2.obj
 0002:00001c50       ??_C@_0JM@GIEKPEHN@WARNING?3?5Attempted?5write?5to?5sur@ 00445c50     CrimsonWasteland2.obj
 0002:00001cec       ??_C@_0BG@MMBAACAN@images?1ShelvesBox?4png@ 00445cec     CrimsonWasteland2.obj
 0002:00001d0c       ??_C@_0BB@GCADKGJO@map?1set?5too?5long@ 00445d0c     CrimsonWasteland2.obj
 0002:00001d20       ??_C@_0DC@BNOGMHFL@Error?5creating?5surface?5in?5RawIm@ 00445d20     CrimsonWasteland2.obj
 0002:00001d5c       ??_C@_0BD@IFIGDDIC@?7?7?$CL?$CL?$CL?5Load?5image?3?5@ 00445d5c     CrimsonWasteland2.obj
 0002:00001d74       ??_C@_0DJ@OJEPJEDH@ImageManager?3?3getImagePtrbyURL?$CI@ 00445d74     CrimsonWasteland2.obj
 0002:00001db8       ??_C@_0BJ@LOCNEGOL@Failed?5to?5load?5image?5?$CFs?6@ 00445db8     CrimsonWasteland2.obj
 0002:00001ddc       ??_7ImagePixelMapping@@6B@ 00445ddc     CrimsonWasteland2.obj
 0002:00001dec       ??_7ImagePixelMappingShiftXY@@6B@ 00445dec     CrimsonWasteland2.obj
 0002:00001dfc       ??_7ImagePixelMappingRotate@@6B@ 00445dfc     CrimsonWasteland2.obj
 0002:00001e0c       ??_7ImageObject@@6B@       00445e0c     CrimsonWasteland2.obj
 0002:00001e50       ??_7ClickableImageObject@@6B@ 00445e50     CrimsonWasteland2.obj
 0002:00001e90       ??_C@_02KEGNLNML@?0?5@     00445e90     CrimsonWasteland2.obj
 0002:00001e94       ??_C@_0BJ@PJKBDFCF@Mouse?5Down?5Detected?5at?3?5@ 00445e94     CrimsonWasteland2.obj
 0002:00001eb4       ??_C@_0BK@NNHELBMJ@Start?5button?5was?5clicked?4@ 00445eb4     CrimsonWasteland2.obj
 0002:00001ed8       ??_7TextBoxObject@@6B@     00445ed8     CrimsonWasteland2.obj
 0002:00001f1c       ??_7TileManager@@6B@       00445f1c     CrimsonWasteland2.obj
 0002:00001f2c       ??_7CrimsonWasteland2TileManager@@6B@ 00445f2c     CrimsonWasteland2.obj
 0002:00001f34       ??_C@_0BH@NEMAKIPG@images?1ShelvesSide?4png@ 00445f34     CrimsonWasteland2.obj
 0002:00001f4c       ??_C@_0BK@NJIHMCFM@images?1ShelvesSideBox?4png@ 00445f4c     CrimsonWasteland2.obj
 0002:00001f68       ??_C@_0BF@PFLPFJGM@images?1ExitRight?4png@ 00445f68     CrimsonWasteland2.obj
 0002:00001fb8       ??_7FilterPointsScaling@@6B@ 00445fb8     CrimsonWasteland2.obj
 0002:00001fd4       ??_7FilterPointsTranslation@@6B@ 00445fd4     CrimsonWasteland2.obj
 0002:00001ff0       ??_7CrimsonWasteland2@@6BDisplayableObjectContainer@@@ 00445ff0     CrimsonWasteland2.obj
 0002:0000209c       ??_7CrimsonWasteland2@@6BFilterPoints@@@ 0044609c     CrimsonWasteland2.obj
 0002:000020b8       ??_7Lives@@6B@             004460b8     CrimsonWasteland2.obj
 0002:00002114       ??_7Bullet@@6B@            00446114     CrimsonWasteland2.obj
 0002:00002154       ??_C@_04JMOKAGMG@down@     00446154     CrimsonWasteland2.obj
 0002:0000215c       ??_C@_04GOOOJOPP@left@     0044615c     CrimsonWasteland2.obj
 0002:00002164       ??_C@_02HNLLPFKA@up@       00446164     CrimsonWasteland2.obj
 0002:00002168       ??_C@_05DHJDAOHK@right@    00446168     CrimsonWasteland2.obj
 0002:00002174       ??_7Player@@6B@            00446174     CrimsonWasteland2.obj
 0002:00002218       ??_7Zombie@@6B@            00446218     CrimsonWasteland2.obj
 0002:0000226c       ??_C@_0BP@KGLJJIBC@front?$CI?$CJ?5called?5on?5empty?5vector@ 0044626c     CrimsonWasteland2.obj
 0002:00002298       ??_C@_0GB@GOGKFLMN@C?3?2Program?5Files?2Microsoft?5Visu@ 00446298     CrimsonWasteland2.obj
 0002:00002310       ??_C@_1MC@KLOJGIMA@?$AAC?$AA?3?$AA?2?$AAP?$AAr?$AAo?$AAg?$AAr?$AAa?$AAm?$AA?5?$AAF?$AAi?$AAl?$AAe@ 00446310     CrimsonWasteland2.obj
 0002:000023f8       ??_C@_1EC@GDGFILAB@?$AA?$CC?$AAf?$AAr?$AAo?$AAn?$AAt?$AA?$CI?$AA?$CJ?$AA?5?$AAc?$AAa?$AAl?$AAl?$AAe?$AAd@ 004463f8     CrimsonWasteland2.obj
 0002:00002448       ??_C@_0DE@CHADHGFF@can?8t?5dereference?5value?9initial@ 00446448     CrimsonWasteland2.obj
 0002:00002488       ??_C@_1GM@FNBFNBEL@?$AA?$CC?$AAc?$AAa?$AAn?$AA?8?$AAt?$AA?5?$AAd?$AAe?$AAr?$AAe?$AAf?$AAe?$AAr?$AAe@ 00446488     CrimsonWasteland2.obj
 0002:0000250c       ??_C@_0CO@PGFNEDAH@can?8t?5dereference?5invalidated?5v@ 0044650c     CrimsonWasteland2.obj
 0002:00002548       ??_C@_1GA@CLCDIGKJ@?$AA?$CC?$AAc?$AAa?$AAn?$AA?8?$AAt?$AA?5?$AAd?$AAe?$AAr?$AAe?$AAf?$AAe?$AAr?$AAe@ 00446548     CrimsonWasteland2.obj
 0002:000025bc       ??_C@_0CP@MDHADBHN@can?8t?5dereference?5out?5of?5range?5@ 004465bc     CrimsonWasteland2.obj
 0002:000025f8       ??_C@_1GC@JDCKOLAC@?$AA?$CC?$AAc?$AAa?$AAn?$AA?8?$AAt?$AA?5?$AAd?$AAe?$AAr?$AAe?$AAf?$AAe?$AAr?$AAe@ 004465f8     CrimsonWasteland2.obj
 0002:00002670       ??_C@_0BO@PFKOHNJC@vector?5subscript?5out?5of?5range@ 00446670     CrimsonWasteland2.obj
 0002:00002698       ??_C@_1EA@LEKOKFNB@?$AA?$CC?$AAv?$AAe?$AAc?$AAt?$AAo?$AAr?$AA?5?$AAs?$AAu?$AAb?$AAs?$AAc?$AAr?$AAi@ 00446698     CrimsonWasteland2.obj
 0002:000026e4       ??_C@_0CE@EAMOGAIE@vector?5erase?5iterator?5outside?5r@ 004466e4     CrimsonWasteland2.obj
 0002:00002710       ??_C@_1EM@BEMPOGMM@?$AA?$CC?$AAv?$AAe?$AAc?$AAt?$AAo?$AAr?$AA?5?$AAe?$AAr?$AAa?$AAs?$AAe?$AA?5?$AAi@ 00446710     CrimsonWasteland2.obj
 0002:0000276c       ??_C@_0DC@KEKNBAEB@can?8t?5increment?5value?9initializ@ 0044676c     CrimsonWasteland2.obj
 0002:000027a8       ??_C@_1GI@EDCILPL@?$AA?$CC?$AAc?$AAa?$AAn?$AA?8?$AAt?$AA?5?$AAi?$AAn?$AAc?$AAr?$AAe?$AAm?$AAe?$AAn@ 004467a8     CrimsonWasteland2.obj
 0002:00002824       ??_C@_0CM@MNNBKIBC@can?8t?5increment?5invalidated?5vec@ 00446824     CrimsonWasteland2.obj
 0002:00002858       ??_C@_1FM@ICPJNHLL@?$AA?$CC?$AAc?$AAa?$AAn?$AA?8?$AAt?$AA?5?$AAi?$AAn?$AAc?$AAr?$AAe?$AAm?$AAe?$AAn@ 00446858     CrimsonWasteland2.obj
 0002:000028c8       ??_C@_0CJ@OAAAAGPM@can?8t?5increment?5vector?5iterator@ 004468c8     CrimsonWasteland2.obj
 0002:00002900       ??_C@_1FG@LDPPKMGP@?$AA?$CC?$AAc?$AAa?$AAn?$AA?8?$AAt?$AA?5?$AAi?$AAn?$AAc?$AAr?$AAe?$AAm?$AAe?$AAn@ 00446900     CrimsonWasteland2.obj
 0002:00002968       ??_C@_0BP@OLDKBHLM@map?1set?5iterators?5incompatible@ 00446968     CrimsonWasteland2.obj
 0002:00002990       ??_C@_0GA@NHHCPEPC@C?3?2Program?5Files?2Microsoft?5Visu@ 00446990     CrimsonWasteland2.obj
 0002:00002a08       ??_C@_1MA@KGCJMJPB@?$AAC?$AA?3?$AA?2?$AAP?$AAr?$AAo?$AAg?$AAr?$AAa?$AAm?$AA?5?$AAF?$AAi?$AAl?$AAe@ 00446a08     CrimsonWasteland2.obj
 0002:00002af0       ??_C@_1EC@JLIDLCDH@?$AA?$CC?$AAm?$AAa?$AAp?$AA?1?$AAs?$AAe?$AAt?$AA?5?$AAi?$AAt?$AAe?$AAr?$AAa?$AAt@ 00446af0     CrimsonWasteland2.obj
 0002:00002b40       ??_C@_0BO@CAOBBIOC@vector?5iterators?5incompatible@ 00446b40     CrimsonWasteland2.obj
 0002:00002b68       ??_C@_1EA@DJDGNIII@?$AA?$CC?$AAv?$AAe?$AAc?$AAt?$AAo?$AAr?$AA?5?$AAi?$AAt?$AAe?$AAr?$AAa?$AAt?$AAo@ 00446b68     CrimsonWasteland2.obj
 0002:00002bb4       ??_C@_0DG@KGHKKGBC@null?5pointer?5cannot?5point?5to?5a?5@ 00446bb4     CrimsonWasteland2.obj
 0002:00002bf8       ??_C@_1HA@FACCKGGH@?$AA?$CC?$AAn?$AAu?$AAl?$AAl?$AA?5?$AAp?$AAo?$AAi?$AAn?$AAt?$AAe?$AAr?$AA?5?$AAc@ 00446bf8     CrimsonWasteland2.obj
 0002:00002c80       ??_C@_0DG@LCFNIIPB@cannot?5dereference?5value?9initia@ 00446c80     CrimsonWasteland2.obj
 0002:00002cc0       ??_C@_1HA@ILGCNILF@?$AA?$CC?$AAc?$AAa?$AAn?$AAn?$AAo?$AAt?$AA?5?$AAd?$AAe?$AAr?$AAe?$AAf?$AAe?$AAr@ 00446cc0     CrimsonWasteland2.obj
 0002:00002d48       ??_C@_0CI@OKFEHCEB@cannot?5dereference?5end?5map?1set?5@ 00446d48     CrimsonWasteland2.obj
 0002:00002d78       ??_C@_1FE@NKHAAGMB@?$AA?$CC?$AAc?$AAa?$AAn?$AAn?$AAo?$AAt?$AA?5?$AAd?$AAe?$AAr?$AAe?$AAf?$AAe?$AAr@ 00446d78     CrimsonWasteland2.obj
 0002:00002ddc       ??_C@_0DA@GGPHOHEL@map?1set?5erase?5iterator?5from?5inc@ 00446ddc     CrimsonWasteland2.obj
 0002:00002e18       ??_C@_1GE@FENJBJJO@?$AA?$CC?$AAm?$AAa?$AAp?$AA?1?$AAs?$AAe?$AAt?$AA?5?$AAe?$AAr?$AAa?$AAs?$AAe?$AA?5@ 00446e18     CrimsonWasteland2.obj
 0002:00002e90       ??_C@_0CE@JAJNKOFK@cannot?5erase?5map?1set?5end?$CI?$CJ?5iter@ 00446e90     CrimsonWasteland2.obj
 0002:00002ec0       ??_C@_1EM@MEAEPHLP@?$AA?$CC?$AAc?$AAa?$AAn?$AAn?$AAo?$AAt?$AA?5?$AAe?$AAr?$AAa?$AAs?$AAe?$AA?5?$AAm@ 00446ec0     CrimsonWasteland2.obj
 0002:00002f20       ??_7?$_Ref_count@VRawImageData@@@std@@6B@ 00446f20     CrimsonWasteland2.obj
 0002:00002f34       ??_C@_0BA@FOIKENOD@vector?5too?5long@ 00446f34     CrimsonWasteland2.obj
 0002:00002f48       ??_C@_0GD@EGBILONE@C?3?2Program?5Files?2Microsoft?5Visu@ 00446f48     CrimsonWasteland2.obj
 0002:00002fc0       ??_C@_1MG@NMJBCGEN@?$AAC?$AA?3?$AA?2?$AAP?$AAr?$AAo?$AAg?$AAr?$AAa?$AAm?$AA?5?$AAF?$AAi?$AAl?$AAe@ 00446fc0     CrimsonWasteland2.obj
 0002:000030b0       ??_C@_0DI@PBEELKIF@vector?5iterators?5in?5range?5are?5f@ 004470b0     CrimsonWasteland2.obj
 0002:000030f8       ??_C@_1HE@KBMFDAFB@?$AA?$CC?$AAv?$AAe?$AAc?$AAt?$AAo?$AAr?$AA?5?$AAi?$AAt?$AAe?$AAr?$AAa?$AAt?$AAo@ 004470f8     CrimsonWasteland2.obj
 0002:00003184       ??_C@_0CB@LIAHLBAO@vector?5iterator?5range?5transpose@ 00447184     CrimsonWasteland2.obj
 0002:000031b0       ??_C@_1EG@ODKBEHFN@?$AA?$CC?$AAv?$AAe?$AAc?$AAt?$AAo?$AAr?$AA?5?$AAi?$AAt?$AAe?$AAr?$AAa?$AAt?$AAo@ 004471b0     CrimsonWasteland2.obj
 0002:00003204       ??_C@_0BD@FEEMDEPI@invalid?5comparator@ 00447204     CrimsonWasteland2.obj
 0002:0000321c       ??_C@_1CK@NDNHPKPI@?$AA?$CC?$AAi?$AAn?$AAv?$AAa?$AAl?$AAi?$AAd?$AA?5?$AAc?$AAo?$AAm?$AAp?$AAa?$AAr@ 0044721c     CrimsonWasteland2.obj
 0002:00003250       __real@3f1a36e2eb1c432d    00447250     CrimsonWasteland2.obj
 0002:00003260       __real@3fe0000000000000    00447260     CrimsonWasteland2.obj
 0002:00003270       __real@3ff0000000000000    00447270     CrimsonWasteland2.obj
 0002:00003280       __real@3ff921fb54442d18    00447280     CrimsonWasteland2.obj
 0002:00003290       __real@400921fb54442d18    00447290     CrimsonWasteland2.obj
 0002:000032a0       __real@4012d97c7f3321d2    004472a0     CrimsonWasteland2.obj
 0002:000032b0       __real@4072c00000000000    004472b0     CrimsonWasteland2.obj
 0002:000032c0       __real@4092c00000000000    004472c0     CrimsonWasteland2.obj
 0002:00003b18       ??_7DragableBaseClassObject@@6B@ 00447b18     DraggingDemo.obj
 0002:00003b70       ??_7DragableObject@@6B@    00447b70     DraggingDemo.obj
 0002:00003bc8       ??_7DragableImageObject@@6B@ 00447bc8     DraggingDemo.obj
 0002:00003df8       ?MY_PI@DrawingSurface@@2NB 00447df8     DrawingSurface.obj
 0002:00004040       ??_C@_0LN@HOLHFHJI@WARNING?3?5Attempted?5blit?5to?5lock@ 00448040     DrawingSurface.obj
 0002:00004128       __real@3fe0c152382d7365    00448128     DrawingSurface.obj
 0002:00004138       __real@3ff8000000000000    00448138     DrawingSurface.obj
 0002:00004148       __real@4000000000000000    00448148     DrawingSurface.obj
 0002:00004158       __real@4008000000000000    00448158     DrawingSurface.obj
 0002:00004168       __real@400f6a7a2955385e    00448168     DrawingSurface.obj
 0002:00004178       __real@4010000000000000    00448178     DrawingSurface.obj
 0002:00004188       __real@401921fb54442d18    00448188     DrawingSurface.obj
 0002:000045b0       ??_7FlashingDemo@@6BDisplayableObjectContainer@@@ 004485b0     FlashingDemo.obj
 0002:0000465c       ??_7FlashingDemo@@6BFilterPoints@@@ 0044865c     FlashingDemo.obj
 0002:00004ad4       ??_7MappableImageObject@@6B@ 00448ad4     ImageMappingDemo.obj
 0002:00004b28       __real@4059000000000000    00448b28     ImageMappingDemo.obj
 0002:00004b38       __real@c059000000000000    00448b38     ImageMappingDemo.obj
 0002:0000541c       ??_7DisplayableObjectContainer@@6B@ 0044941c     BaseEngine.obj
 0002:0000542c       ??_7BaseEngine@@6BDisplayableObjectContainer@@@ 0044942c     BaseEngine.obj
 0002:000054d8       ??_7BaseEngine@@6BFilterPoints@@@ 004494d8     BaseEngine.obj
 0002:00005908       ??_7DisplayableObject@@6B@ 00449908     DisplayableObject.obj
 0002:00005bbc       ??_C@_0BI@GMOFELCF@Free?5font?3?5?$CFd?5point?5?$CFs?6@ 00449bbc     FontManager.obj
 0002:00006018       ??_7MyTileManager@@6B@     0044a018     MyDemoA.obj
 0002:00006028       ??_7MyDemoA@@6BDisplayableObjectContainer@@@ 0044a028     MyDemoA.obj
 0002:000060d4       ??_7MyDemoA@@6BFilterPoints@@@ 0044a0d4     MyDemoA.obj
 0002:000060f0       ??_7MyObjectB@@6B@         0044a0f0     MyDemoA.obj
 0002:00006e08       ??_7SwimmingFishObject@@6B@ 0044ae08     Psyes9Engine.obj
 0002:00006e4c       ??_7BouncingFish@@6B@      0044ae4c     Psyes9Engine.obj
 0002:00006e8c       ??_C@_08LNDHMFNN@fish?4png@ 0044ae8c     Psyes9Engine.obj
 0002:00006e9c       ??_7BouncingFishObject@@6B@ 0044ae9c     Psyes9Engine.obj
 0002:00006ee0       __real@0000000000000000    0044aee0     Psyes9Engine.obj
 0002:00006ef0       __real@3fc999999999999a    0044aef0     Psyes9Engine.obj
 0002:00006f00       __real@3fd999999999999a    0044af00     Psyes9Engine.obj
 0002:00006f10       __real@4004000000000000    0044af10     Psyes9Engine.obj
 0002:00006f20       __real@4069000000000000    0044af20     Psyes9Engine.obj
 0002:00006f30       __xmm@80000000000000008000000000000000 0044af30     Psyes9Engine.obj
 0002:00007778       ??_7CroppedImagePixelMapping@@6B@ 0044b778     SimpleImage.obj
 0002:00007c54       ??_7BouncingObject@@6B@    0044bc54     SimpleDemo.obj
 0002:00007c98       __real@3f747ae147ae147b    0044bc98     SimpleDemo.obj
 0002:00007ca8       __real@400c000000000000    0044bca8     SimpleDemo.obj
 0002:000080d0       ??_7StarfieldDemo@@6BDisplayableObjectContainer@@@ 0044c0d0     StarfieldDemo.obj
 0002:0000817c       ??_7StarfieldDemo@@6BFilterPoints@@@ 0044c17c     StarfieldDemo.obj
 0002:000085b0       __real@401e000000000000    0044c5b0     SwimmingFishObject.obj
 0002:00008df0       ??_7BouncingBall@@6B@      0044cdf0     BouncingBall.obj
 0002:00008e34       ??_7BouncingBall1@@6B@     0044ce34     BouncingBall.obj
 0002:00008e78       ??_7BouncingBall2@@6B@     0044ce78     BouncingBall.obj
 0002:00008eb8       __real@3f847ae147ae147b    0044ceb8     BouncingBall.obj
 0002:00009318       __real@3fe999999999999a    0044d318     BouncingBallMain.obj
 0002:00009328       __real@3ff199999999999a    0044d328     BouncingBallMain.obj
 0002:00009338       __real@3ff3333333333333    0044d338     BouncingBallMain.obj
 0002:00009348       __real@4049000000000000    0044d348     BouncingBallMain.obj
 0002:00009358       __real@4062c00000000000    0044d358     BouncingBallMain.obj
 0002:00009368       __real@4066800000000000    0044d368     BouncingBallMain.obj
 0002:00009378       __real@406f400000000000    0044d378     BouncingBallMain.obj
 0002:00009388       __real@4071300000000000    0044d388     BouncingBallMain.obj
 0002:00009398       __real@4074500000000000    0044d398     BouncingBallMain.obj
 0002:000093a8       __real@4075e00000000000    0044d3a8     BouncingBallMain.obj
 0002:000093b8       __real@4077700000000000    0044d3b8     BouncingBallMain.obj
 0002:000093c8       __real@4079000000000000    0044d3c8     BouncingBallMain.obj
 0002:000093d8       __real@4079a00000000000    0044d3d8     BouncingBallMain.obj
 0002:000093e8       __real@407c200000000000    0044d3e8     BouncingBallMain.obj
 0002:000093f8       __real@407f400000000000    0044d3f8     BouncingBallMain.obj
 0002:00009408       __real@4081300000000000    0044d408     BouncingBallMain.obj
 0002:00009418       __real@4082c00000000000    0044d418     BouncingBallMain.obj
 0002:00009428       __real@4084500000000000    0044d428     BouncingBallMain.obj
 0002:00009438       __real@4087700000000000    0044d438     BouncingBallMain.obj
 0002:000098fc       ??_7SimpleFlashingDragableImageObject@@6B@ 0044d8fc     ZoomingDemo.obj
 0002:00009ef0       ??_7MazeDemoTileManager@@6B@ 0044def0     MazeDemoMain.obj
 0002:00009f00       ??_7MazeDemoMain@@6BDisplayableObjectContainer@@@ 0044df00     MazeDemoMain.obj
 0002:00009fac       ??_7MazeDemoMain@@6BFilterPoints@@@ 0044dfac     MazeDemoMain.obj
 0002:0000a3e0       ??_7MazeDemoObject@@6B@    0044e3e0     MazeDemoObject.obj
 0002:0000a910       __xmm@00000000000000010000000000000001 0044e910     msvcprtd:vector_algorithms.obj
 0002:0000a930       __xmm@00000001000000010000000100000001 0044e930     msvcprtd:vector_algorithms.obj
 0002:0000a950       __xmm@00010001000100010001000100010001 0044e950     msvcprtd:vector_algorithms.obj
 0002:0000a970       __xmm@000102030405060708090a0b0c0d0e0f 0044e970     msvcprtd:vector_algorithms.obj
 0002:0000a990       __xmm@010003020504070609080b0a0d0c0f0e 0044e990     msvcprtd:vector_algorithms.obj
 0002:0000a9b0       __xmm@01010101010101010101010101010101 0044e9b0     msvcprtd:vector_algorithms.obj
 0002:0000a9d0       __xmm@0d0c0f0e09080b0a0504070601000302 0044e9d0     msvcprtd:vector_algorithms.obj
 0002:0000a9f0       __xmm@0e0f0c0d0a0b08090607040502030001 0044e9f0     msvcprtd:vector_algorithms.obj
 0002:0000aa10       __xmm@ffffffffffffffffffffffffffffffff 0044ea10     msvcprtd:vector_algorithms.obj
 0002:0000aa40       __ymm@0000000000000001000000020000000300000004000000050000000600000007 0044ea40     msvcprtd:vector_algorithms.obj
 0002:0000aa80       __ymm@000102030405060708090a0b0c0d0e0f000102030405060708090a0b0c0d0e0f 0044ea80     msvcprtd:vector_algorithms.obj
 0002:0000aac0       __ymm@010003020504070609080b0a0d0c0f0e010003020504070609080b0a0d0c0f0e 0044eac0     msvcprtd:vector_algorithms.obj
 0002:0000aaec       ??_7type_info@@6B@         0044eaec     MSVCRTD:std_type_info_static.obj
 0002:0000aaf4       ??_C@_0P@GHFPNOJB@bad?5allocation@ 0044eaf4     MSVCRTD:throw_bad_alloc.obj
 0002:0000ab14       ??_C@_0BJ@HFNMHALN@Out?5of?5memory?5?9?5aborting@ 0044eb14     SDL2main:SDL_windows_main.obj
 0002:0000ab34       ??_C@_0M@HFFOIJBL@Fatal?5Error@ 0044eb34     SDL2main:SDL_windows_main.obj
 0002:0000ab48       __load_config_used         0044eb48     MSVCRTD:loadcfg.obj
 0002:0000aec0       ___CastGuardVftablesStart  0044eec0     MSVCRTD:guard_support.obj
 0002:0000b040       ___CastGuardVftablesEnd    0044f040     MSVCRTD:guard_support.obj
 0002:0000b18c       ??_R4exception@std@@6B@    0044f18c     CrimsonWasteland2.obj
 0002:0000b1a4       ??_R3exception@std@@8      0044f1a4     CrimsonWasteland2.obj
 0002:0000b1b8       ??_R2exception@std@@8      0044f1b8     CrimsonWasteland2.obj
 0002:0000b1c0       ??_R1A@?0A@EA@exception@std@@8 0044f1c0     CrimsonWasteland2.obj
 0002:0000b1e4       ??_R4bad_alloc@std@@6B@    0044f1e4     CrimsonWasteland2.obj
 0002:0000b1fc       ??_R3bad_alloc@std@@8      0044f1fc     CrimsonWasteland2.obj
 0002:0000b210       ??_R2bad_alloc@std@@8      0044f210     CrimsonWasteland2.obj
 0002:0000b21c       ??_R1A@?0A@EA@bad_alloc@std@@8 0044f21c     CrimsonWasteland2.obj
 0002:0000b240       ??_R4bad_array_new_length@std@@6B@ 0044f240     CrimsonWasteland2.obj
 0002:0000b258       ??_R3bad_array_new_length@std@@8 0044f258     CrimsonWasteland2.obj
 0002:0000b26c       ??_R2bad_array_new_length@std@@8 0044f26c     CrimsonWasteland2.obj
 0002:0000b27c       ??_R1A@?0A@EA@bad_array_new_length@std@@8 0044f27c     CrimsonWasteland2.obj
 0002:0000b2a0       ??_R3_Ref_count_base@std@@8 0044f2a0     CrimsonWasteland2.obj
 0002:0000b2b4       ??_R2_Ref_count_base@std@@8 0044f2b4     CrimsonWasteland2.obj
 0002:0000b2bc       ??_R1A@?0A@EA@_Ref_count_base@std@@8 0044f2bc     CrimsonWasteland2.obj
 0002:0000b2e0       ??_R4FilterPoints@@6B@     0044f2e0     CrimsonWasteland2.obj
 0002:0000b2f8       ??_R3FilterPoints@@8       0044f2f8     CrimsonWasteland2.obj
 0002:0000b30c       ??_R2FilterPoints@@8       0044f30c     CrimsonWasteland2.obj
 0002:0000b314       ??_R1A@?0A@EA@FilterPoints@@8 0044f314     CrimsonWasteland2.obj
 0002:0000b338       ??_R3DisplayableObjectContainer@@8 0044f338     CrimsonWasteland2.obj
 0002:0000b34c       ??_R2DisplayableObjectContainer@@8 0044f34c     CrimsonWasteland2.obj
 0002:0000b354       ??_R1A@?0A@EA@DisplayableObjectContainer@@8 0044f354     CrimsonWasteland2.obj
 0002:0000b378       ??_R4ImagePixelMapping@@6B@ 0044f378     CrimsonWasteland2.obj
 0002:0000b390       ??_R3ImagePixelMapping@@8  0044f390     CrimsonWasteland2.obj
 0002:0000b3a4       ??_R2ImagePixelMapping@@8  0044f3a4     CrimsonWasteland2.obj
 0002:0000b3ac       ??_R1A@?0A@EA@ImagePixelMapping@@8 0044f3ac     CrimsonWasteland2.obj
 0002:0000b3d0       ??_R4ImagePixelMappingShiftXY@@6B@ 0044f3d0     CrimsonWasteland2.obj
 0002:0000b3e8       ??_R3ImagePixelMappingShiftXY@@8 0044f3e8     CrimsonWasteland2.obj
 0002:0000b3fc       ??_R2ImagePixelMappingShiftXY@@8 0044f3fc     CrimsonWasteland2.obj
 0002:0000b408       ??_R1A@?0A@EA@ImagePixelMappingShiftXY@@8 0044f408     CrimsonWasteland2.obj
 0002:0000b42c       ??_R4ImagePixelMappingRotate@@6B@ 0044f42c     CrimsonWasteland2.obj
 0002:0000b444       ??_R3ImagePixelMappingRotate@@8 0044f444     CrimsonWasteland2.obj
 0002:0000b458       ??_R2ImagePixelMappingRotate@@8 0044f458     CrimsonWasteland2.obj
 0002:0000b464       ??_R1A@?0A@EA@ImagePixelMappingRotate@@8 0044f464     CrimsonWasteland2.obj
 0002:0000b488       ??_R4ImageObject@@6B@      0044f488     CrimsonWasteland2.obj
 0002:0000b4a0       ??_R3ImageObject@@8        0044f4a0     CrimsonWasteland2.obj
 0002:0000b4b4       ??_R2ImageObject@@8        0044f4b4     CrimsonWasteland2.obj
 0002:0000b4c0       ??_R1A@?0A@EA@ImageObject@@8 0044f4c0     CrimsonWasteland2.obj
 0002:0000b4e4       ??_R1A@?0A@EA@DisplayableObject@@8 0044f4e4     CrimsonWasteland2.obj
 0002:0000b508       ??_R3DisplayableObject@@8  0044f508     CrimsonWasteland2.obj
 0002:0000b51c       ??_R2DisplayableObject@@8  0044f51c     CrimsonWasteland2.obj
 0002:0000b524       ??_R4ClickableImageObject@@6B@ 0044f524     CrimsonWasteland2.obj
 0002:0000b53c       ??_R3ClickableImageObject@@8 0044f53c     CrimsonWasteland2.obj
 0002:0000b550       ??_R2ClickableImageObject@@8 0044f550     CrimsonWasteland2.obj
 0002:0000b55c       ??_R1A@?0A@EA@ClickableImageObject@@8 0044f55c     CrimsonWasteland2.obj
 0002:0000b580       ??_R4TextBoxObject@@6B@    0044f580     CrimsonWasteland2.obj
 0002:0000b598       ??_R3TextBoxObject@@8      0044f598     CrimsonWasteland2.obj
 0002:0000b5ac       ??_R2TextBoxObject@@8      0044f5ac     CrimsonWasteland2.obj
 0002:0000b5b8       ??_R1A@?0A@EA@TextBoxObject@@8 0044f5b8     CrimsonWasteland2.obj
 0002:0000b5dc       ??_R4TileManager@@6B@      0044f5dc     CrimsonWasteland2.obj
 0002:0000b5f4       ??_R3TileManager@@8        0044f5f4     CrimsonWasteland2.obj
 0002:0000b608       ??_R2TileManager@@8        0044f608     CrimsonWasteland2.obj
 0002:0000b610       ??_R1A@?0A@EA@TileManager@@8 0044f610     CrimsonWasteland2.obj
 0002:0000b634       ??_R4CrimsonWasteland2TileManager@@6B@ 0044f634     CrimsonWasteland2.obj
 0002:0000b64c       ??_R3CrimsonWasteland2TileManager@@8 0044f64c     CrimsonWasteland2.obj
 0002:0000b660       ??_R2CrimsonWasteland2TileManager@@8 0044f660     CrimsonWasteland2.obj
 0002:0000b66c       ??_R1A@?0A@EA@CrimsonWasteland2TileManager@@8 0044f66c     CrimsonWasteland2.obj
 0002:0000b690       ??_R4FilterPointsScaling@@6B@ 0044f690     CrimsonWasteland2.obj
 0002:0000b6a8       ??_R3FilterPointsScaling@@8 0044f6a8     CrimsonWasteland2.obj
 0002:0000b6bc       ??_R2FilterPointsScaling@@8 0044f6bc     CrimsonWasteland2.obj
 0002:0000b6c8       ??_R1A@?0A@EA@FilterPointsScaling@@8 0044f6c8     CrimsonWasteland2.obj
 0002:0000b6ec       ??_R4FilterPointsTranslation@@6B@ 0044f6ec     CrimsonWasteland2.obj
 0002:0000b704       ??_R3FilterPointsTranslation@@8 0044f704     CrimsonWasteland2.obj
 0002:0000b718       ??_R2FilterPointsTranslation@@8 0044f718     CrimsonWasteland2.obj
 0002:0000b724       ??_R1A@?0A@EA@FilterPointsTranslation@@8 0044f724     CrimsonWasteland2.obj
 0002:0000b748       ??_R4CrimsonWasteland2@@6BDisplayableObjectContainer@@@ 0044f748     CrimsonWasteland2.obj
 0002:0000b760       ??_R3CrimsonWasteland2@@8  0044f760     CrimsonWasteland2.obj
 0002:0000b774       ??_R2CrimsonWasteland2@@8  0044f774     CrimsonWasteland2.obj
 0002:0000b788       ??_R1A@?0A@EA@CrimsonWasteland2@@8 0044f788     CrimsonWasteland2.obj
 0002:0000b7ac       ??_R1A@?0A@EA@BaseEngine@@8 0044f7ac     CrimsonWasteland2.obj
 0002:0000b7d0       ??_R3BaseEngine@@8         0044f7d0     CrimsonWasteland2.obj
 0002:0000b7e4       ??_R2BaseEngine@@8         0044f7e4     CrimsonWasteland2.obj
 0002:0000b7f4       ??_R1BM@?0A@EA@FilterPoints@@8 0044f7f4     CrimsonWasteland2.obj
 0002:0000b818       ??_R4CrimsonWasteland2@@6BFilterPoints@@@ 0044f818     CrimsonWasteland2.obj
 0002:0000b830       ??_R4Lives@@6B@            0044f830     CrimsonWasteland2.obj
 0002:0000b848       ??_R3Lives@@8              0044f848     CrimsonWasteland2.obj
 0002:0000b85c       ??_R2Lives@@8              0044f85c     CrimsonWasteland2.obj
 0002:0000b868       ??_R1A@?0A@EA@Lives@@8     0044f868     CrimsonWasteland2.obj
 0002:0000b88c       ??_R4Bullet@@6B@           0044f88c     CrimsonWasteland2.obj
 0002:0000b8a4       ??_R3Bullet@@8             0044f8a4     CrimsonWasteland2.obj
 0002:0000b8b8       ??_R2Bullet@@8             0044f8b8     CrimsonWasteland2.obj
 0002:0000b8c4       ??_R1A@?0A@EA@Bullet@@8    0044f8c4     CrimsonWasteland2.obj
 0002:0000b8e8       ??_R4Player@@6B@           0044f8e8     CrimsonWasteland2.obj
 0002:0000b900       ??_R3Player@@8             0044f900     CrimsonWasteland2.obj
 0002:0000b914       ??_R2Player@@8             0044f914     CrimsonWasteland2.obj
 0002:0000b920       ??_R1A@?0A@EA@Player@@8    0044f920     CrimsonWasteland2.obj
 0002:0000b944       ??_R4Zombie@@6B@           0044f944     CrimsonWasteland2.obj
 0002:0000b95c       ??_R3Zombie@@8             0044f95c     CrimsonWasteland2.obj
 0002:0000b970       ??_R2Zombie@@8             0044f970     CrimsonWasteland2.obj
 0002:0000b97c       ??_R1A@?0A@EA@Zombie@@8    0044f97c     CrimsonWasteland2.obj
 0002:0000b9a0       ??_R4?$_Ref_count@VRawImageData@@@std@@6B@ 0044f9a0     CrimsonWasteland2.obj
 0002:0000b9b8       ??_R3?$_Ref_count@VRawImageData@@@std@@8 0044f9b8     CrimsonWasteland2.obj
 0002:0000b9cc       ??_R2?$_Ref_count@VRawImageData@@@std@@8 0044f9cc     CrimsonWasteland2.obj
 0002:0000b9d8       ??_R1A@?0A@EA@?$_Ref_count@VRawImageData@@@std@@8 0044f9d8     CrimsonWasteland2.obj
 0002:0000b9fc       ??_R4DragableBaseClassObject@@6B@ 0044f9fc     DraggingDemo.obj
 0002:0000ba14       ??_R3DragableBaseClassObject@@8 0044fa14     DraggingDemo.obj
 0002:0000ba28       ??_R2DragableBaseClassObject@@8 0044fa28     DraggingDemo.obj
 0002:0000ba34       ??_R1A@?0A@EA@DragableBaseClassObject@@8 0044fa34     DraggingDemo.obj
 0002:0000ba58       ??_R4DragableObject@@6B@   0044fa58     DraggingDemo.obj
 0002:0000ba70       ??_R3DragableObject@@8     0044fa70     DraggingDemo.obj
 0002:0000ba84       ??_R2DragableObject@@8     0044fa84     DraggingDemo.obj
 0002:0000ba94       ??_R1A@?0A@EA@DragableObject@@8 0044fa94     DraggingDemo.obj
 0002:0000bab8       ??_R4DragableImageObject@@6B@ 0044fab8     DraggingDemo.obj
 0002:0000bad0       ??_R3DragableImageObject@@8 0044fad0     DraggingDemo.obj
 0002:0000bae4       ??_R2DragableImageObject@@8 0044fae4     DraggingDemo.obj
 0002:0000baf4       ??_R1A@?0A@EA@DragableImageObject@@8 0044faf4     DraggingDemo.obj
 0002:0000bb18       ??_R4FlashingDemo@@6BDisplayableObjectContainer@@@ 0044fb18     FlashingDemo.obj
 0002:0000bb30       ??_R3FlashingDemo@@8       0044fb30     FlashingDemo.obj
 0002:0000bb44       ??_R2FlashingDemo@@8       0044fb44     FlashingDemo.obj
 0002:0000bb58       ??_R1A@?0A@EA@FlashingDemo@@8 0044fb58     FlashingDemo.obj
 0002:0000bb7c       ??_R4FlashingDemo@@6BFilterPoints@@@ 0044fb7c     FlashingDemo.obj
 0002:0000bb94       ??_R4MappableImageObject@@6B@ 0044fb94     ImageMappingDemo.obj
 0002:0000bbac       ??_R3MappableImageObject@@8 0044fbac     ImageMappingDemo.obj
 0002:0000bbc0       ??_R2MappableImageObject@@8 0044fbc0     ImageMappingDemo.obj
 0002:0000bbd4       ??_R1A@?0A@EA@MappableImageObject@@8 0044fbd4     ImageMappingDemo.obj
 0002:0000bbf8       ??_R4BaseEngine@@6BDisplayableObjectContainer@@@ 0044fbf8     BaseEngine.obj
 0002:0000bc10       ??_R4BaseEngine@@6BFilterPoints@@@ 0044fc10     BaseEngine.obj
 0002:0000bc28       ??_R4DisplayableObjectContainer@@6B@ 0044fc28     BaseEngine.obj
 0002:0000bc40       ??_R4DisplayableObject@@6B@ 0044fc40     DisplayableObject.obj
 0002:0000bc58       ??_R4MyTileManager@@6B@    0044fc58     MyDemoA.obj
 0002:0000bc70       ??_R3MyTileManager@@8      0044fc70     MyDemoA.obj
 0002:0000bc84       ??_R2MyTileManager@@8      0044fc84     MyDemoA.obj
 0002:0000bc90       ??_R1A@?0A@EA@MyTileManager@@8 0044fc90     MyDemoA.obj
 0002:0000bcb4       ??_R4MyDemoA@@6BDisplayableObjectContainer@@@ 0044fcb4     MyDemoA.obj
 0002:0000bccc       ??_R3MyDemoA@@8            0044fccc     MyDemoA.obj
 0002:0000bce0       ??_R2MyDemoA@@8            0044fce0     MyDemoA.obj
 0002:0000bcf4       ??_R1A@?0A@EA@MyDemoA@@8   0044fcf4     MyDemoA.obj
 0002:0000bd18       ??_R4MyDemoA@@6BFilterPoints@@@ 0044fd18     MyDemoA.obj
 0002:0000bd30       ??_R4MyObjectB@@6B@        0044fd30     MyDemoA.obj
 0002:0000bd48       ??_R3MyObjectB@@8          0044fd48     MyDemoA.obj
 0002:0000bd5c       ??_R2MyObjectB@@8          0044fd5c     MyDemoA.obj
 0002:0000bd68       ??_R1A@?0A@EA@MyObjectB@@8 0044fd68     MyDemoA.obj
 0002:0000bd8c       ??_R4SwimmingFishObject@@6B@ 0044fd8c     Psyes9Engine.obj
 0002:0000bda4       ??_R3SwimmingFishObject@@8 0044fda4     Psyes9Engine.obj
 0002:0000bdb8       ??_R2SwimmingFishObject@@8 0044fdb8     Psyes9Engine.obj
 0002:0000bdc4       ??_R1A@?0A@EA@SwimmingFishObject@@8 0044fdc4     Psyes9Engine.obj
 0002:0000bde8       ??_R4BouncingFish@@6B@     0044fde8     Psyes9Engine.obj
 0002:0000be00       ??_R3BouncingFish@@8       0044fe00     Psyes9Engine.obj
 0002:0000be14       ??_R2BouncingFish@@8       0044fe14     Psyes9Engine.obj
 0002:0000be20       ??_R1A@?0A@EA@BouncingFish@@8 0044fe20     Psyes9Engine.obj
 0002:0000be44       ??_R4BouncingFishObject@@6B@ 0044fe44     Psyes9Engine.obj
 0002:0000be5c       ??_R3BouncingFishObject@@8 0044fe5c     Psyes9Engine.obj
 0002:0000be70       ??_R2BouncingFishObject@@8 0044fe70     Psyes9Engine.obj
 0002:0000be80       ??_R1A@?0A@EA@BouncingFishObject@@8 0044fe80     Psyes9Engine.obj
 0002:0000bea4       ??_R4CroppedImagePixelMapping@@6B@ 0044fea4     SimpleImage.obj
 0002:0000bebc       ??_R3CroppedImagePixelMapping@@8 0044febc     SimpleImage.obj
 0002:0000bed0       ??_R2CroppedImagePixelMapping@@8 0044fed0     SimpleImage.obj
 0002:0000bedc       ??_R1A@?0A@EA@CroppedImagePixelMapping@@8 0044fedc     SimpleImage.obj
 0002:0000bf00       ??_R4BouncingObject@@6B@   0044ff00     SimpleDemo.obj
 0002:0000bf18       ??_R3BouncingObject@@8     0044ff18     SimpleDemo.obj
 0002:0000bf2c       ??_R2BouncingObject@@8     0044ff2c     SimpleDemo.obj
 0002:0000bf38       ??_R1A@?0A@EA@BouncingObject@@8 0044ff38     SimpleDemo.obj
 0002:0000bf5c       ??_R4StarfieldDemo@@6BDisplayableObjectContainer@@@ 0044ff5c     StarfieldDemo.obj
 0002:0000bf74       ??_R3StarfieldDemo@@8      0044ff74     StarfieldDemo.obj
 0002:0000bf88       ??_R2StarfieldDemo@@8      0044ff88     StarfieldDemo.obj
 0002:0000bf9c       ??_R1A@?0A@EA@StarfieldDemo@@8 0044ff9c     StarfieldDemo.obj
 0002:0000bfc0       ??_R4StarfieldDemo@@6BFilterPoints@@@ 0044ffc0     StarfieldDemo.obj
 0002:0000bfd8       ??_R4BouncingBall@@6B@     0044ffd8     BouncingBall.obj
 0002:0000bff0       ??_R3BouncingBall@@8       0044fff0     BouncingBall.obj
 0002:0000c004       ??_R2BouncingBall@@8       00450004     BouncingBall.obj
 0002:0000c010       ??_R1A@?0A@EA@BouncingBall@@8 00450010     BouncingBall.obj
 0002:0000c034       ??_R4BouncingBall1@@6B@    00450034     BouncingBall.obj
 0002:0000c04c       ??_R3BouncingBall1@@8      0045004c     BouncingBall.obj
 0002:0000c060       ??_R2BouncingBall1@@8      00450060     BouncingBall.obj
 0002:0000c070       ??_R1A@?0A@EA@BouncingBall1@@8 00450070     BouncingBall.obj
 0002:0000c094       ??_R4BouncingBall2@@6B@    00450094     BouncingBall.obj
 0002:0000c0ac       ??_R3BouncingBall2@@8      004500ac     BouncingBall.obj
 0002:0000c0c0       ??_R2BouncingBall2@@8      004500c0     BouncingBall.obj
 0002:0000c0d0       ??_R1A@?0A@EA@BouncingBall2@@8 004500d0     BouncingBall.obj
 0002:0000c0f4       ??_R4SimpleFlashingDragableImageObject@@6B@ 004500f4     ZoomingDemo.obj
 0002:0000c10c       ??_R3SimpleFlashingDragableImageObject@@8 0045010c     ZoomingDemo.obj
 0002:0000c120       ??_R2SimpleFlashingDragableImageObject@@8 00450120     ZoomingDemo.obj
 0002:0000c12c       ??_R1A@?0A@EA@SimpleFlashingDragableImageObject@@8 0045012c     ZoomingDemo.obj
 0002:0000c150       ??_R4MazeDemoMain@@6BDisplayableObjectContainer@@@ 00450150     MazeDemoMain.obj
 0002:0000c168       ??_R3MazeDemoMain@@8       00450168     MazeDemoMain.obj
 0002:0000c17c       ??_R2MazeDemoMain@@8       0045017c     MazeDemoMain.obj
 0002:0000c190       ??_R1A@?0A@EA@MazeDemoMain@@8 00450190     MazeDemoMain.obj
 0002:0000c1b4       ??_R4MazeDemoMain@@6BFilterPoints@@@ 004501b4     MazeDemoMain.obj
 0002:0000c1cc       ??_R4MazeDemoTileManager@@6B@ 004501cc     MazeDemoMain.obj
 0002:0000c1e4       ??_R3MazeDemoTileManager@@8 004501e4     MazeDemoMain.obj
 0002:0000c1f8       ??_R2MazeDemoTileManager@@8 004501f8     MazeDemoMain.obj
 0002:0000c204       ??_R1A@?0A@EA@MazeDemoTileManager@@8 00450204     MazeDemoMain.obj
 0002:0000c228       ??_R4MazeDemoObject@@6B@   00450228     MazeDemoObject.obj
 0002:0000c240       ??_R3MazeDemoObject@@8     00450240     MazeDemoObject.obj
 0002:0000c254       ??_R2MazeDemoObject@@8     00450254     MazeDemoObject.obj
 0002:0000c260       ??_R1A@?0A@EA@MazeDemoObject@@8 00450260     MazeDemoObject.obj
 0002:0000c284       ??_R4type_info@@6B@        00450284     MSVCRTD:std_type_info_static.obj
 0002:0000c29c       ??_R3type_info@@8          0045029c     MSVCRTD:std_type_info_static.obj
 0002:0000c2b0       ??_R2type_info@@8          004502b0     MSVCRTD:std_type_info_static.obj
 0002:0000c2b8       ??_R1A@?0A@EA@type_info@@8 004502b8     MSVCRTD:std_type_info_static.obj
 0002:0000c44c       ___safe_se_handler_table   0045044c     <linker-defined>
 0002:0000c948       ___rtc_iaa                 00450948     MSVCRTD:initsect.obj
 0002:0000ca4c       ___rtc_izz                 00450a4c     MSVCRTD:initsect.obj
 0002:0000cb50       ___rtc_taa                 00450b50     MSVCRTD:initsect.obj
 0002:0000cc54       ___rtc_tzz                 00450c54     MSVCRTD:initsect.obj
 0002:0000dc74       __CT??_R0?AVexception@std@@@8??0exception@std@@QAE@ABV01@@Z12 00451c74     CrimsonWasteland2.obj
 0002:0000dc94       __TI3?AVbad_array_new_length@std@@ 00451c94     CrimsonWasteland2.obj
 0002:0000dca8       __CTA3?AVbad_array_new_length@std@@ 00451ca8     CrimsonWasteland2.obj
 0002:0000dcbc       __CT??_R0?AVbad_array_new_length@std@@@8??0bad_array_new_length@std@@QAE@ABV01@@Z12 00451cbc     CrimsonWasteland2.obj
 0002:0000dcdc       __CT??_R0?AVbad_alloc@std@@@8??0bad_alloc@std@@QAE@ABV01@@Z12 00451cdc     CrimsonWasteland2.obj
 0002:0000e9a8       __TI2?AVbad_alloc@std@@    004529a8     MSVCRTD:throw_bad_alloc.obj
 0002:0000e9bc       __CTA2?AVbad_alloc@std@@   004529bc     MSVCRTD:throw_bad_alloc.obj
 0003:00000008       ___scrt_native_dllmain_reason 00453008     MSVCRTD:utility.obj
 0003:00000040       ___security_cookie         00453040     MSVCRTD:gs_cookie.obj
 0003:00000080       ___security_cookie_complement 00453080     MSVCRTD:gs_cookie.obj
 0003:00000094       __fltused                  00453094     MSVCRTD:fltused.obj
 0003:000000a0       ___isa_enabled             004530a0     MSVCRTD:cpu_disp.obj
 0003:000000a4       ___scrt_default_matherr    004530a4     MSVCRTD:matherr.obj
 0003:000000a8       ___scrt_ucrt_dll_is_in_use 004530a8     MSVCRTD:ucrt_stubs.obj
 0003:000001c0       ??_R0?AVexception@std@@@8  004531c0     CrimsonWasteland2.obj
 0003:000001e4       ??_R0?AVbad_array_new_length@std@@@8 004531e4     CrimsonWasteland2.obj
 0003:00000214       ??_R0?AVbad_alloc@std@@@8  00453214     CrimsonWasteland2.obj
 0003:00000238       ??_R0?AVBaseEngine@@@8     00453238     CrimsonWasteland2.obj
 0003:00000258       ??_R0?AVCrimsonWasteland2@@@8 00453258     CrimsonWasteland2.obj
 0003:00000280       ??_R0?AVSwimmingFishObject@@@8 00453280     Psyes9Engine.obj
 0003:000002a8       ??_R0?AVPsyes9Engine@@@8   004532a8     Psyes9Engine.obj
 0003:000003d0       ??_R0?AV_Ref_count_base@std@@@8 004533d0     CrimsonWasteland2.obj
 0003:000003f8       ??_R0?AVFilterPoints@@@8   004533f8     CrimsonWasteland2.obj
 0003:00000418       ??_R0?AVDisplayableObjectContainer@@@8 00453418     CrimsonWasteland2.obj
 0003:0000044c       ??_R0?AVImagePixelMapping@@@8 0045344c     CrimsonWasteland2.obj
 0003:00000474       ??_R0?AVImagePixelMappingShiftXY@@@8 00453474     CrimsonWasteland2.obj
 0003:000004a4       ??_R0?AVImagePixelMappingRotate@@@8 004534a4     CrimsonWasteland2.obj
 0003:000004d4       ??_R0?AVImageObject@@@8    004534d4     CrimsonWasteland2.obj
 0003:000004f4       ??_R0?AVDisplayableObject@@@8 004534f4     CrimsonWasteland2.obj
 0003:0000051c       ??_R0?AVClickableImageObject@@@8 0045351c     CrimsonWasteland2.obj
 0003:00000548       ??_R0?AVTextBoxObject@@@8  00453548     CrimsonWasteland2.obj
 0003:0000056c       ??_R0?AVTileManager@@@8    0045356c     CrimsonWasteland2.obj
 0003:0000058c       ??_R0?AVCrimsonWasteland2TileManager@@@8 0045358c     CrimsonWasteland2.obj
 0003:000005c0       ??_R0?AVFilterPointsScaling@@@8 004535c0     CrimsonWasteland2.obj
 0003:000005e8       ??_R0?AVFilterPointsTranslation@@@8 004535e8     CrimsonWasteland2.obj
 0003:00000618       ??_R0?AVLives@@@8          00453618     CrimsonWasteland2.obj
 0003:00000630       ??_R0?AVBullet@@@8         00453630     CrimsonWasteland2.obj
 0003:0000064c       ??_R0?AVPlayer@@@8         0045364c     CrimsonWasteland2.obj
 0003:00000668       ??_R0?AVZombie@@@8         00453668     CrimsonWasteland2.obj
 0003:00000684       ??_R0?AV?$_Ref_count@VRawImageData@@@std@@@8 00453684     CrimsonWasteland2.obj
 0003:000006bc       ??_R0?AVDragableBaseClassObject@@@8 004536bc     DraggingDemo.obj
 0003:000006ec       ??_R0?AVDragableObject@@@8 004536ec     DraggingDemo.obj
 0003:00000710       ??_R0?AVDragableImageObject@@@8 00453710     DraggingDemo.obj
 0003:00000738       ??_R0?AVFlashingDemo@@@8   00453738     FlashingDemo.obj
 0003:00000758       ??_R0?AVMappableImageObject@@@8 00453758     ImageMappingDemo.obj
 0003:00000780       ??_R0?AVMyTileManager@@@8  00453780     MyDemoA.obj
 0003:000007a4       ??_R0?AVMyDemoA@@@8        004537a4     MyDemoA.obj
 0003:000007c0       ??_R0?AVMyObjectB@@@8      004537c0     MyDemoA.obj
 0003:000007dc       ??_R0?AVBouncingFish@@@8   004537dc     Psyes9Engine.obj
 0003:000007fc       ??_R0?AVBouncingFishObject@@@8 004537fc     Psyes9Engine.obj
 0003:00000824       ??_R0?AVCroppedImagePixelMapping@@@8 00453824     SimpleImage.obj
 0003:00000854       ??_R0?AVBouncingObject@@@8 00453854     SimpleDemo.obj
 0003:00000878       ??_R0?AVStarfieldDemo@@@8  00453878     StarfieldDemo.obj
 0003:0000089c       ??_R0?AVBouncingBall@@@8   0045389c     BouncingBall.obj
 0003:000008bc       ??_R0?AVBouncingBall1@@@8  004538bc     BouncingBall.obj
 0003:000008e0       ??_R0?AVBouncingBall2@@@8  004538e0     BouncingBall.obj
 0003:00000904       ??_R0?AVSimpleFlashingDragableImageObject@@@8 00453904     ZoomingDemo.obj
 0003:00000940       ??_R0?AVMazeDemoMain@@@8   00453940     MazeDemoMain.obj
 0003:00000960       ??_R0?AVMazeDemoTileManager@@@8 00453960     MazeDemoMain.obj
 0003:00000988       ??_R0?AVMazeDemoObject@@@8 00453988     MazeDemoObject.obj
 0003:000009ac       ??_R0?AVtype_info@@@8      004539ac     MSVCRTD:std_type_info_static.obj
 0003:00000af0       ?_OptionsStorage@?1??__local_stdio_printf_options@@9@4_KA 00453af0     CrimsonWasteland2.obj
 0003:00000b00       ?m_oTiles@@3VCrimsonWasteland2TileManager@@A 00453b00     CrimsonWasteland2.obj
 0003:00000bac       ?g_pManager@ImageManager@@0PAV1@A 00453bac     SimpleImage.obj
 0003:00000bb0       ___scrt_current_native_startup_state 00453bb0     MSVCRTD:utility.obj
 0003:00000bb4       ___scrt_native_startup_lock 00453bb4     MSVCRTD:utility.obj
 0003:00000bdc       ___isa_available           00453bdc     MSVCRTD:cpu_disp.obj
 0003:00000be0       ___favor                   00453be0     MSVCRTD:cpu_disp.obj
 0003:00000be8       ?__type_info_root_node@@3U__type_info_node@@A 00453be8     MSVCRTD:tncleanup.obj
 0003:00000bf8       ?_OptionsStorage@?1??__local_stdio_scanf_options@@9@4_KA 00453bf8     MSVCRTD:default_local_stdio_options.obj
 0003:00000c04       ___scrt_debugger_hook_flag 00453c04     MSVCRTD:utility_desktop.obj
 0003:00000c08       ___castguard_check_failure_user_handled_fptr 00453c08     MSVCRTD:guard_support.obj
 0003:00000fcc       ___dyn_tls_dtor_callback   00453fcc     <common>
 0003:00000fd8       ___dyn_tls_init_callback   00453fd8     <common>
 0004:00000000       __imp__IsProcessorFeaturePresent@4 00454000     kernel32:KERNEL32.dll
 0004:00000004       __imp__QueryPerformanceCounter@4 00454004     kernel32:KERNEL32.dll
 0004:00000008       __imp__GetCurrentProcessId@0 00454008     kernel32:KERNEL32.dll
 0004:0000000c       __imp__GetCurrentThreadId@0 0045400c     kernel32:KERNEL32.dll
 0004:00000010       __imp__GetSystemTimeAsFileTime@4 00454010     kernel32:KERNEL32.dll
 0004:00000014       __imp__InitializeSListHead@4 00454014     kernel32:KERNEL32.dll
 0004:00000018       __imp__IsDebuggerPresent@0 00454018     kernel32:KERNEL32.dll
 0004:0000001c       __imp__UnhandledExceptionFilter@4 0045401c     kernel32:KERNEL32.dll
 0004:00000020       __imp__SetUnhandledExceptionFilter@4 00454020     kernel32:KERNEL32.dll
 0004:00000024       __imp__GetStartupInfoW@4   00454024     kernel32:KERNEL32.dll
 0004:00000028       __imp__GetCurrentProcess@0 00454028     kernel32:KERNEL32.dll
 0004:0000002c       __imp__TerminateProcess@8  0045402c     kernel32:KERNEL32.dll
 0004:00000030       __imp__GetCommandLineW@0   00454030     kernel32:KERNEL32.dll
 0004:00000034       __imp__VirtualAlloc@16     00454034     kernel32:KERNEL32.dll
 0004:00000038       __imp__GetModuleHandleW@4  00454038     kernel32:KERNEL32.dll
 0004:0000003c       __imp__VirtualFree@12      0045403c     kernel32:KERNEL32.dll
 0004:00000040       __imp__WideCharToMultiByte@32 00454040     kernel32:KERNEL32.dll
 0004:00000044       \177KERNEL32_NULL_THUNK_DATA 00454044     kernel32:KERNEL32.dll
 0004:0000007c       __imp_?tie@?$basic_ios@DU?$char_traits@D@std@@@std@@QBEPAV?$basic_ostream@DU?$char_traits@D@std@@@2@XZ 0045407c     msvcprtd:MSVCP140D.dll
 0004:00000080       __imp_?setstate@?$basic_ios@DU?$char_traits@D@std@@@std@@QAEXH_N@Z 00454080     msvcprtd:MSVCP140D.dll
 0004:00000084       __imp_?rdbuf@?$basic_ios@DU?$char_traits@D@std@@@std@@QBEPAV?$basic_streambuf@DU?$char_traits@D@std@@@2@XZ 00454084     msvcprtd:MSVCP140D.dll
 0004:00000088       __imp_?fill@?$basic_ios@DU?$char_traits@D@std@@@std@@QBEDXZ 00454088     msvcprtd:MSVCP140D.dll
 0004:0000008c       __imp_?widen@?$basic_ios@DU?$char_traits@D@std@@@std@@QBEDD@Z 0045408c     msvcprtd:MSVCP140D.dll
 0004:00000090       __imp_?_Osfx@?$basic_ostream@DU?$char_traits@D@std@@@std@@QAEXXZ 00454090     msvcprtd:MSVCP140D.dll
 0004:00000094       __imp_??6?$basic_ostream@DU?$char_traits@D@std@@@std@@QAEAAV01@H@Z 00454094     msvcprtd:MSVCP140D.dll
 0004:00000098       __imp_?put@?$basic_ostream@DU?$char_traits@D@std@@@std@@QAEAAV12@D@Z 00454098     msvcprtd:MSVCP140D.dll
 0004:0000009c       __imp_?flush@?$basic_ostream@DU?$char_traits@D@std@@@std@@QAEAAV12@XZ 0045409c     msvcprtd:MSVCP140D.dll
 0004:000000a0       __imp_?cout@std@@3V?$basic_ostream@DU?$char_traits@D@std@@@1@A 004540a0     msvcprtd:MSVCP140D.dll
 0004:000000a4       __imp_??6?$basic_ostream@DU?$char_traits@D@std@@@std@@QAEAAV01@P6AAAV01@AAV01@@Z@Z 004540a4     msvcprtd:MSVCP140D.dll
 0004:000000a8       __imp_??0_Lockit@std@@QAE@H@Z 004540a8     msvcprtd:MSVCP140D.dll
 0004:000000ac       __imp_??1_Lockit@std@@QAE@XZ 004540ac     msvcprtd:MSVCP140D.dll
 0004:000000b0       __imp_?_Xlength_error@std@@YAXPBD@Z 004540b0     msvcprtd:MSVCP140D.dll
 0004:000000b4       __imp_?uncaught_exception@std@@YA_NXZ 004540b4     msvcprtd:MSVCP140D.dll
 0004:000000b8       __imp_?good@ios_base@std@@QBE_NXZ 004540b8     msvcprtd:MSVCP140D.dll
 0004:000000bc       __imp_?flags@ios_base@std@@QBEHXZ 004540bc     msvcprtd:MSVCP140D.dll
 0004:000000c0       __imp_?width@ios_base@std@@QBE_JXZ 004540c0     msvcprtd:MSVCP140D.dll
 0004:000000c4       __imp_?width@ios_base@std@@QAE_J_J@Z 004540c4     msvcprtd:MSVCP140D.dll
 0004:000000c8       __imp_?sputc@?$basic_streambuf@DU?$char_traits@D@std@@@std@@QAEHD@Z 004540c8     msvcprtd:MSVCP140D.dll
 0004:000000cc       __imp_?sputn@?$basic_streambuf@DU?$char_traits@D@std@@@std@@QAE_JPBD_J@Z 004540cc     msvcprtd:MSVCP140D.dll
 0004:000000d0       \177MSVCP140D_NULL_THUNK_DATA 004540d0     msvcprtd:MSVCP140D.dll
 0004:0000010c       __imp__SDL_UpperBlitScaled 0045410c     SDL2:SDL2.dll
 0004:00000110       __imp__SDL_SetClipRect     00454110     SDL2:SDL2.dll
 0004:00000114       __imp__SDL_Quit            00454114     SDL2:SDL2.dll
 0004:00000118       __imp__SDL_Init            00454118     SDL2:SDL2.dll
 0004:0000011c       __imp__SDL_GetTicks        0045411c     SDL2:SDL2.dll
 0004:00000120       __imp__SDL_RenderPresent   00454120     SDL2:SDL2.dll
 0004:00000124       __imp__SDL_RenderCopy      00454124     SDL2:SDL2.dll
 0004:00000128       __imp__SDL_UpdateTexture   00454128     SDL2:SDL2.dll
 0004:0000012c       __imp__SDL_CreateTexture   0045412c     SDL2:SDL2.dll
 0004:00000130       __imp__SDL_CreateRenderer  00454130     SDL2:SDL2.dll
 0004:00000134       __imp__SDL_SetMainReady    00454134     SDL2:SDL2.dll
 0004:00000138       __imp__SDL_WaitEvent       00454138     SDL2:SDL2.dll
 0004:0000013c       __imp__SDL_PollEvent       0045413c     SDL2:SDL2.dll
 0004:00000140       __imp__SDL_CreateWindow    00454140     SDL2:SDL2.dll
 0004:00000144       __imp__SDL_GetError        00454144     SDL2:SDL2.dll
 0004:00000148       __imp__SDL_UpperBlit       00454148     SDL2:SDL2.dll
 0004:0000014c       __imp__SDL_FillRect        0045414c     SDL2:SDL2.dll
 0004:00000150       __imp__SDL_UnlockSurface   00454150     SDL2:SDL2.dll
 0004:00000154       __imp__SDL_LockSurface     00454154     SDL2:SDL2.dll
 0004:00000158       __imp__SDL_FreeSurface     00454158     SDL2:SDL2.dll
 0004:0000015c       __imp__SDL_CreateRGBSurface 0045415c     SDL2:SDL2.dll
 0004:00000160       __imp__SDL_ShowSimpleMessageBox 00454160     SDL2:SDL2.dll
 0004:00000164       \177SDL2_NULL_THUNK_DATA   00454164     SDL2:SDL2.dll
 0004:000001a0       __imp__IMG_Load            004541a0     SDL2_image:SDL2_image.dll
 0004:000001a4       \177SDL2_image_NULL_THUNK_DATA 004541a4     SDL2_image:SDL2_image.dll
 0004:000001d0       __imp__TTF_RenderText_Solid 004541d0     SDL2_ttf:SDL2_ttf.dll
 0004:000001d4       __imp__TTF_CloseFont       004541d4     SDL2_ttf:SDL2_ttf.dll
 0004:000001d8       __imp__TTF_OpenFont        004541d8     SDL2_ttf:SDL2_ttf.dll
 0004:000001dc       __imp__TTF_Quit            004541dc     SDL2_ttf:SDL2_ttf.dll
 0004:000001e0       __imp__TTF_Init            004541e0     SDL2_ttf:SDL2_ttf.dll
 0004:000001e4       \177SDL2_ttf_NULL_THUNK_DATA 004541e4     SDL2_ttf:SDL2_ttf.dll
 0004:00000214       __imp___except_handler4_common 00454214     vcruntimed:VCRUNTIME140D.dll
 0004:00000218       __imp____current_exception 00454218     vcruntimed:VCRUNTIME140D.dll
 0004:0000021c       __imp____std_type_info_destroy_list 0045421c     vcruntimed:VCRUNTIME140D.dll
 0004:00000220       __imp__memcmp              00454220     vcruntimed:VCRUNTIME140D.dll
 0004:00000224       __imp__memcpy              00454224     vcruntimed:VCRUNTIME140D.dll
 0004:00000228       __imp__memmove             00454228     vcruntimed:VCRUNTIME140D.dll
 0004:0000022c       __imp__memset              0045422c     vcruntimed:VCRUNTIME140D.dll
 0004:00000230       __imp____std_exception_copy 00454230     vcruntimed:VCRUNTIME140D.dll
 0004:00000234       __imp____std_exception_destroy 00454234     vcruntimed:VCRUNTIME140D.dll
 0004:00000238       __imp___CxxThrowException@8 00454238     vcruntimed:VCRUNTIME140D.dll
 0004:0000023c       __imp____CxxFrameHandler3  0045423c     vcruntimed:VCRUNTIME140D.dll
 0004:00000240       __imp____RTDynamicCast     00454240     vcruntimed:VCRUNTIME140D.dll
 0004:00000244       __imp___purecall           00454244     vcruntimed:VCRUNTIME140D.dll
 0004:00000248       __imp____current_exception_context 00454248     vcruntimed:VCRUNTIME140D.dll
 0004:0000024c       \177VCRUNTIME140D_NULL_THUNK_DATA 0045424c     vcruntimed:VCRUNTIME140D.dll
 0004:00000280       __imp___configure_narrow_argv 00454280     ucrtd:ucrtbased.dll
 0004:00000284       __imp___initialize_narrow_environment 00454284     ucrtd:ucrtbased.dll
 0004:00000288       __imp___get_initial_narrow_environment 00454288     ucrtd:ucrtbased.dll
 0004:0000028c       __imp___initterm           0045428c     ucrtd:ucrtbased.dll
 0004:00000290       __imp___initterm_e         00454290     ucrtd:ucrtbased.dll
 0004:00000294       __imp__exit                00454294     ucrtd:ucrtbased.dll
 0004:00000298       __imp___exit               00454298     ucrtd:ucrtbased.dll
 0004:0000029c       __imp___set_fmode          0045429c     ucrtd:ucrtbased.dll
 0004:000002a0       __imp____p___argc          004542a0     ucrtd:ucrtbased.dll
 0004:000002a4       __imp____p___argv          004542a4     ucrtd:ucrtbased.dll
 0004:000002a8       __imp___cexit              004542a8     ucrtd:ucrtbased.dll
 0004:000002ac       __imp___set_app_type       004542ac     ucrtd:ucrtbased.dll
 0004:000002b0       __imp___register_thread_local_exe_atexit_callback 004542b0     ucrtd:ucrtbased.dll
 0004:000002b4       __imp___configthreadlocale 004542b4     ucrtd:ucrtbased.dll
 0004:000002b8       __imp___set_new_mode       004542b8     ucrtd:ucrtbased.dll
 0004:000002bc       __imp____p__commode        004542bc     ucrtd:ucrtbased.dll
 0004:000002c0       __imp__terminate           004542c0     ucrtd:ucrtbased.dll
 0004:000002c4       __imp___callnewh           004542c4     ucrtd:ucrtbased.dll
 0004:000002c8       __imp__malloc              004542c8     ucrtd:ucrtbased.dll
 0004:000002cc       __imp___seh_filter_dll     004542cc     ucrtd:ucrtbased.dll
 0004:000002d0       __imp___initialize_onexit_table 004542d0     ucrtd:ucrtbased.dll
 0004:000002d4       __imp___register_onexit_function 004542d4     ucrtd:ucrtbased.dll
 0004:000002d8       __imp___execute_onexit_table 004542d8     ucrtd:ucrtbased.dll
 0004:000002dc       __imp___crt_atexit         004542dc     ucrtd:ucrtbased.dll
 0004:000002e0       __imp___crt_at_quick_exit  004542e0     ucrtd:ucrtbased.dll
 0004:000002e4       __imp___controlfp_s        004542e4     ucrtd:ucrtbased.dll
 0004:000002e8       __imp___free_dbg           004542e8     ucrtd:ucrtbased.dll
 0004:000002ec       __imp___seh_filter_exe     004542ec     ucrtd:ucrtbased.dll
 0004:000002f0       __imp__strcpy              004542f0     ucrtd:ucrtbased.dll
 0004:000002f4       __imp__strcmp              004542f4     ucrtd:ucrtbased.dll
 0004:000002f8       __imp__puts                004542f8     ucrtd:ucrtbased.dll
 0004:000002fc       __imp___time64             004542fc     ucrtd:ucrtbased.dll
 0004:00000300       __imp__srand               00454300     ucrtd:ucrtbased.dll
 0004:00000304       __imp___CrtDumpMemoryLeaks 00454304     ucrtd:ucrtbased.dll
 0004:00000308       __imp__strlen              00454308     ucrtd:ucrtbased.dll
 0004:0000030c       __imp____stdio_common_vsprintf 0045430c     ucrtd:ucrtbased.dll
 0004:00000310       __imp____stdio_common_vfprintf 00454310     ucrtd:ucrtbased.dll
 0004:00000314       __imp____acrt_iob_func     00454314     ucrtd:ucrtbased.dll
 0004:00000318       __imp__rand                00454318     ucrtd:ucrtbased.dll
 0004:0000031c       __imp__sqrt                0045431c     ucrtd:ucrtbased.dll
 0004:00000320       __imp__sin                 00454320     ucrtd:ucrtbased.dll
 0004:00000324       __imp__cos                 00454324     ucrtd:ucrtbased.dll
 0004:00000328       __imp__atan                00454328     ucrtd:ucrtbased.dll
 0004:0000032c       __imp___invalid_parameter  0045432c     ucrtd:ucrtbased.dll
 0004:00000330       __imp____setusermatherr    00454330     ucrtd:ucrtbased.dll
 0004:00000334       __imp___c_exit             00454334     ucrtd:ucrtbased.dll
 0004:00000338       __imp___CrtDbgReport       00454338     ucrtd:ucrtbased.dll
 0004:0000033c       \177ucrtbased_NULL_THUNK_DATA 0045433c     ucrtd:ucrtbased.dll
 0004:0000038c       __IMPORT_DESCRIPTOR_SDL2   0045438c     SDL2:SDL2.dll
 0004:000003a0       __IMPORT_DESCRIPTOR_SDL2_image 004543a0     SDL2_image:SDL2_image.dll
 0004:000003b4       __IMPORT_DESCRIPTOR_SDL2_ttf 004543b4     SDL2_ttf:SDL2_ttf.dll
 0004:000003c8       __IMPORT_DESCRIPTOR_MSVCP140D 004543c8     msvcprtd:MSVCP140D.dll
 0004:000003dc       __IMPORT_DESCRIPTOR_VCRUNTIME140D 004543dc     vcruntimed:VCRUNTIME140D.dll
 0004:000003f0       __IMPORT_DESCRIPTOR_ucrtbased 004543f0     ucrtd:ucrtbased.dll
 0004:00000404       __IMPORT_DESCRIPTOR_KERNEL32 00454404     kernel32:KERNEL32.dll
 0004:00000418       __NULL_IMPORT_DESCRIPTOR   00454418     SDL2:SDL2.dll
 0005:00000000       ___guard_check_icall_fptr  00456000     MSVCRTD:guard_support.obj
 0005:00000004       ___guard_xfg_check_icall_fptr 00456004     MSVCRTD:guard_support.obj
 0005:00000008       ___castguard_check_failure_os_handled_fptr 00456008     MSVCRTD:guard_support.obj

 entry point at        0001:00000087

 Static symbols

 0002:fffbc000       __ehfuncinfo$??$_Deallocate@$07$0A@@std@@YAXPAXI@Z 00400000     BaseEngine.obj
 0002:fffbc000       __ehfuncinfo$??$_Deallocate_plain@V?$allocator@U_Container_proxy@std@@@std@@@std@@YAXAAV?$allocator@U_Container_proxy@std@@@0@QAU_Container_proxy@0@@Z 00400000     BaseEngine.obj
 0001:fffff000       __ehhandler$??$_Deallocate@$07$0A@@std@@YAXPAXI@Z 00400000 f   BaseEngine.obj
 0001:fffff000       __ehhandler$??$_Deallocate_plain@V?$allocator@U_Container_proxy@std@@@std@@@std@@YAXAAV?$allocator@U_Container_proxy@std@@@0@QAU_Container_proxy@0@@Z 00400000 f   BaseEngine.obj
 0001:fffff000       __unwindfunclet$??$_Uninitialized_value_construct_n@V?$allocator@PAVDisplayableObject@@@std@@@std@@YAPAPAVDisplayableObject@@PAPAV1@IAAV?$allocator@PAVDisplayableObject@@@0@@Z$0 00400000 f   BaseEngine.obj
 0002:fffbc000       __unwindtable$??$_Uninitialized_value_construct_n@V?$allocator@PAVDisplayableObject@@@std@@@std@@YAPAPAVDisplayableObject@@PAPAV1@IAAV?$allocator@PAVDisplayableObject@@@0@@Z 00400000     BaseEngine.obj
 0000:00000000       _volmd                     00400000     BaseEngine.obj
 0000:00000000       _volmd                     00400000     BaseEngine.obj
 0000:00000000       _volmd                     00400000     BaseEngine.obj
 0000:00000000       _volmd                     00400000     BaseEngine.obj
 0000:00000000       _volmd                     00400000     BaseEngine.obj
 0000:00000000       _volmd                     00400000     BaseEngine.obj
 0000:00000000       _volmd                     00400000     BaseEngine.obj
 0000:00000000       _volmd                     00400000     BaseEngine.obj
 0000:00000000       _volmd                     00400000     BaseEngine.obj
 0000:00000000       _volmd                     00400000     BaseEngine.obj
 0000:00000000       _volmd                     00400000     BaseEngine.obj
 0000:00000000       _volmd                     00400000     BaseEngine.obj
 0000:00000000       _volmd                     00400000     BaseEngine.obj
 0002:fffbc000       __catchsym$??$?6U?$char_traits@D@std@@@std@@YAAAV?$basic_ostream@DU?$char_traits@D@std@@@0@AAV10@PBD@Z$3 00400000     BouncingBall.obj
 0002:fffbc000       __ehfuncinfo$??1_Sentry_base@?$basic_ostream@DU?$char_traits@D@std@@@std@@QAE@XZ 00400000     BouncingBall.obj
 0001:fffff000       __ehhandler$??1_Sentry_base@?$basic_ostream@DU?$char_traits@D@std@@@std@@QAE@XZ 00400000 f   BouncingBall.obj
 0001:fffff000       __unwindfunclet$??$?6U?$char_traits@D@std@@@std@@YAAAV?$basic_ostream@DU?$char_traits@D@std@@@0@AAV10@PBD@Z$2 00400000 f   BouncingBall.obj
 0001:fffff000       __unwindfunclet$??0sentry@?$basic_ostream@DU?$char_traits@D@std@@@std@@QAE@AAV12@@Z$0 00400000 f   BouncingBall.obj
 0002:fffbc000       __unwindtable$??0sentry@?$basic_ostream@DU?$char_traits@D@std@@@std@@QAE@AAV12@@Z 00400000     BouncingBall.obj
 0000:00000000       _volmd                     00400000     BouncingBall.obj
 0000:00000000       _volmd                     00400000     BouncingBall.obj
 0000:00000000       _volmd                     00400000     BouncingBall.obj
 0000:00000000       _volmd                     00400000     BouncingBall.obj
 0002:fffbc000       __catchsym$??$?6U?$char_traits@D@std@@@std@@YAAAV?$basic_ostream@DU?$char_traits@D@std@@@0@AAV10@PBD@Z$3 00400000     BouncingBallMain.obj
 0002:fffbc000       __catchsym$??$_Resize_reallocate@U_Value_init_tag@std@@@?$vector@PAVDisplayableObject@@V?$allocator@PAVDisplayableObject@@@std@@@std@@AAEXIABU_Value_init_tag@1@@Z$2 00400000     BouncingBallMain.obj
 0002:fffbc000       __ehfuncinfo$??$_Deallocate@$07$0A@@std@@YAXPAXI@Z 00400000     BouncingBallMain.obj
 0002:fffbc000       __ehfuncinfo$??1_Sentry_base@?$basic_ostream@DU?$char_traits@D@std@@@std@@QAE@XZ 00400000     BouncingBallMain.obj
 0001:fffff000       __ehhandler$??$_Deallocate@$07$0A@@std@@YAXPAXI@Z 00400000 f   BouncingBallMain.obj
 0001:fffff000       __ehhandler$??$_Resize_reallocate@U_Value_init_tag@std@@@?$vector@PAVDisplayableObject@@V?$allocator@PAVDisplayableObject@@@std@@@std@@AAEXIABU_Value_init_tag@1@@Z 00400000 f   BouncingBallMain.obj
 0001:fffff000       __ehhandler$??1_Sentry_base@?$basic_ostream@DU?$char_traits@D@std@@@std@@QAE@XZ 00400000 f   BouncingBallMain.obj
 0001:fffff000       __unwindfunclet$??$?6U?$char_traits@D@std@@@std@@YAAAV?$basic_ostream@DU?$char_traits@D@std@@@0@AAV10@PBD@Z$2 00400000 f   BouncingBallMain.obj
 0001:fffff000       __unwindfunclet$??$_Uninitialized_move@PAPAVDisplayableObject@@V?$allocator@PAVDisplayableObject@@@std@@@std@@YAPAPAVDisplayableObject@@QAPAV1@0PAPAV1@AAV?$allocator@PAVDisplayableObject@@@0@@Z$0 00400000 f   BouncingBallMain.obj
 0001:fffff000       __unwindfunclet$??$_Uninitialized_value_construct_n@V?$allocator@PAVDisplayableObject@@@std@@@std@@YAPAPAVDisplayableObject@@PAPAV1@IAAV?$allocator@PAVDisplayableObject@@@0@@Z$0 00400000 f   BouncingBallMain.obj
 0001:fffff000       __unwindfunclet$??0sentry@?$basic_ostream@DU?$char_traits@D@std@@@std@@QAE@AAV12@@Z$0 00400000 f   BouncingBallMain.obj
 0001:fffff000       __unwindfunclet$?_Orphan_range_locked@?$vector@PAVDisplayableObject@@V?$allocator@PAVDisplayableObject@@@std@@@std@@ABEXPAPAVDisplayableObject@@0@Z$0 00400000 f   BouncingBallMain.obj
 0002:fffbc000       __unwindtable$??$_Uninitialized_move@PAPAVDisplayableObject@@V?$allocator@PAVDisplayableObject@@@std@@@std@@YAPAPAVDisplayableObject@@QAPAV1@0PAPAV1@AAV?$allocator@PAVDisplayableObject@@@0@@Z 00400000     BouncingBallMain.obj
 0002:fffbc000       __unwindtable$??$_Uninitialized_value_construct_n@V?$allocator@PAVDisplayableObject@@@std@@@std@@YAPAPAVDisplayableObject@@PAPAV1@IAAV?$allocator@PAVDisplayableObject@@@0@@Z 00400000     BouncingBallMain.obj
 0002:fffbc000       __unwindtable$??0sentry@?$basic_ostream@DU?$char_traits@D@std@@@std@@QAE@AAV12@@Z 00400000     BouncingBallMain.obj
 0002:fffbc000       __unwindtable$?_Orphan_range_locked@?$vector@PAVDisplayableObject@@V?$allocator@PAVDisplayableObject@@@std@@@std@@ABEXPAPAVDisplayableObject@@0@Z 00400000     BouncingBallMain.obj
 0000:00000000       _volmd                     00400000     BouncingBallMain.obj
 0000:00000000       _volmd                     00400000     BouncingBallMain.obj
 0000:00000000       _volmd                     00400000     BouncingBallMain.obj
 0000:00000000       _volmd                     00400000     BouncingBallMain.obj
 0000:00000000       _volmd                     00400000     BouncingBallMain.obj
 0000:00000000       _volmd                     00400000     BouncingBallMain.obj
 0000:00000000       _volmd                     00400000     BouncingBallMain.obj
 0000:00000000       _volmd                     00400000     BouncingBallMain.obj
 0000:00000000       _volmd                     00400000     BouncingBallMain.obj
 0000:00000000       _volmd                     00400000     BouncingBallMain.obj
 0000:00000000       _volmd                     00400000     BouncingBallMain.obj
 0000:00000000       _volmd                     00400000     BouncingBallMain.obj
 0000:00000000       _volmd                     00400000     BouncingBallMain.obj
 0000:00000000       _volmd                     00400000     BouncingBallMain.obj
 0000:00000000       _volmd                     00400000     CrimsonWasteland2.obj
 0000:00000000       _volmd                     00400000     CrimsonWasteland2.obj
 0000:00000000       _volmd                     00400000     CrimsonWasteland2.obj
 0000:00000000       _volmd                     00400000     CrimsonWasteland2.obj
 0000:00000000       _volmd                     00400000     CrimsonWasteland2.obj
 0000:00000000       _volmd                     00400000     CrimsonWasteland2.obj
 0000:00000000       _volmd                     00400000     CrimsonWasteland2.obj
 0000:00000000       _volmd                     00400000     CrimsonWasteland2.obj
 0000:00000000       _volmd                     00400000     CrimsonWasteland2.obj
 0000:00000000       _volmd                     00400000     CrimsonWasteland2.obj
 0000:00000000       _volmd                     00400000     CrimsonWasteland2.obj
 0000:00000000       _volmd                     00400000     CrimsonWasteland2.obj
 0000:00000000       _volmd                     00400000     CrimsonWasteland2.obj
 0000:00000000       _volmd                     00400000     CrimsonWasteland2.obj
 0000:00000000       _volmd                     00400000     CrimsonWasteland2.obj
 0000:00000000       _volmd                     00400000     CrimsonWasteland2.obj
 0000:00000000       _volmd                     00400000     CrimsonWasteland2.obj
 0000:00000000       _volmd                     00400000     CrimsonWasteland2.obj
 0000:00000000       _volmd                     00400000     CrimsonWasteland2.obj
 0000:00000000       _volmd                     00400000     CrimsonWasteland2.obj
 0000:00000000       _volmd                     00400000     CrimsonWasteland2.obj
 0000:00000000       _volmd                     00400000     CrimsonWasteland2.obj
 0000:00000000       _volmd                     00400000     CrimsonWasteland2.obj
 0000:00000000       _volmd                     00400000     CrimsonWasteland2.obj
 0000:00000000       _volmd                     00400000     CrimsonWasteland2.obj
 0000:00000000       _volmd                     00400000     CrimsonWasteland2.obj
 0000:00000000       _volmd                     00400000     CrimsonWasteland2.obj
 0000:00000000       _volmd                     00400000     CrimsonWasteland2.obj
 0000:00000000       _volmd                     00400000     CrimsonWasteland2.obj
 0000:00000000       _volmd                     00400000     CrimsonWasteland2.obj
 0000:00000000       _volmd                     00400000     CrimsonWasteland2.obj
 0000:00000000       _volmd                     00400000     CrimsonWasteland2.obj
 0000:00000000       _volmd                     00400000     CrimsonWasteland2.obj
 0000:00000000       _volmd                     00400000     CrimsonWasteland2.obj
 0000:00000000       _volmd                     00400000     CrimsonWasteland2.obj
 0000:00000000       _volmd                     00400000     CrimsonWasteland2.obj
 0000:00000000       _volmd                     00400000     CrimsonWasteland2.obj
 0000:00000000       _volmd                     00400000     CrimsonWasteland2.obj
 0000:00000000       _volmd                     00400000     CrimsonWasteland2.obj
 0000:00000000       _volmd                     00400000     CrimsonWasteland2.obj
 0000:00000000       _volmd                     00400000     CrimsonWasteland2.obj
 0000:00000000       _volmd                     00400000     CrimsonWasteland2.obj
 0000:00000000       _volmd                     00400000     CrimsonWasteland2.obj
 0000:00000000       _volmd                     00400000     CrimsonWasteland2.obj
 0000:00000000       _volmd                     00400000     CrimsonWasteland2.obj
 0000:00000000       _volmd                     00400000     CrimsonWasteland2.obj
 0000:00000000       _volmd                     00400000     CrimsonWasteland2.obj
 0000:00000000       _volmd                     00400000     CrimsonWasteland2.obj
 0000:00000000       _volmd                     00400000     CrimsonWasteland2.obj
 0000:00000000       _volmd                     00400000     CrimsonWasteland2.obj
 0000:00000000       _volmd                     00400000     CrimsonWasteland2.obj
 0000:00000000       _volmd                     00400000     CrimsonWasteland2.obj
 0000:00000000       _volmd                     00400000     CrimsonWasteland2.obj
 0000:00000000       _volmd                     00400000     CrimsonWasteland2.obj
 0000:00000000       _volmd                     00400000     CrimsonWasteland2.obj
 0000:00000000       _volmd                     00400000     CrimsonWasteland2.obj
 0000:00000000       _volmd                     00400000     CrimsonWasteland2.obj
 0000:00000000       _volmd                     00400000     CrimsonWasteland2.obj
 0000:00000000       _volmd                     00400000     CrimsonWasteland2.obj
 0000:00000000       _volmd                     00400000     CrimsonWasteland2.obj
 0000:00000000       _volmd                     00400000     CrimsonWasteland2.obj
 0000:00000000       _volmd                     00400000     CrimsonWasteland2.obj
 0000:00000000       _volmd                     00400000     CrimsonWasteland2.obj
 0002:fffbc000       __catchsym$??$?6U?$char_traits@D@std@@@std@@YAAAV?$basic_ostream@DU?$char_traits@D@std@@@0@AAV10@PBD@Z$3 00400000     DisplayableObject.obj
 0002:fffbc000       __ehfuncinfo$??1_Sentry_base@?$basic_ostream@DU?$char_traits@D@std@@@std@@QAE@XZ 00400000     DisplayableObject.obj
 0001:fffff000       __ehhandler$??1_Sentry_base@?$basic_ostream@DU?$char_traits@D@std@@@std@@QAE@XZ 00400000 f   DisplayableObject.obj
 0001:fffff000       __unwindfunclet$??$?6U?$char_traits@D@std@@@std@@YAAAV?$basic_ostream@DU?$char_traits@D@std@@@0@AAV10@PBD@Z$2 00400000 f   DisplayableObject.obj
 0001:fffff000       __unwindfunclet$??0sentry@?$basic_ostream@DU?$char_traits@D@std@@@std@@QAE@AAV12@@Z$0 00400000 f   DisplayableObject.obj
 0002:fffbc000       __unwindtable$??0sentry@?$basic_ostream@DU?$char_traits@D@std@@@std@@QAE@AAV12@@Z 00400000     DisplayableObject.obj
 0000:00000000       _volmd                     00400000     DisplayableObject.obj
 0000:00000000       _volmd                     00400000     DisplayableObject.obj
 0000:00000000       _volmd                     00400000     DisplayableObject.obj
 0002:fffbc000       __catchsym$??$?6U?$char_traits@D@std@@@std@@YAAAV?$basic_ostream@DU?$char_traits@D@std@@@0@AAV10@PBD@Z$3 00400000     DraggingDemo.obj
 0002:fffbc000       __catchsym$??$_Insert_string@DU?$char_traits@D@std@@I@std@@YAAAV?$basic_ostream@DU?$char_traits@D@std@@@0@AAV10@QBDI@Z$3 00400000     DraggingDemo.obj
 0002:fffbc000       __catchsym$??$_Resize_reallocate@U_Value_init_tag@std@@@?$vector@PAVDisplayableObject@@V?$allocator@PAVDisplayableObject@@@std@@@std@@AAEXIABU_Value_init_tag@1@@Z$2 00400000     DraggingDemo.obj
 0002:fffbc000       __ehfuncinfo$??$_Deallocate@$07$0A@@std@@YAXPAXI@Z 00400000     DraggingDemo.obj
 0002:fffbc000       __ehfuncinfo$??$_Deallocate_plain@V?$allocator@U_Container_proxy@std@@@std@@@std@@YAXAAV?$allocator@U_Container_proxy@std@@@0@QAU_Container_proxy@0@@Z 00400000     DraggingDemo.obj
 0002:fffbc000       __ehfuncinfo$??$_Freenode0@V?$allocator@U?$_Tree_node@U?$pair@$$CBV?$basic_string@DU?$char_traits@D@std@@V?$allocator@D@2@@std@@V?$weak_ptr@VRawImageData@@@2@@std@@PAX@std@@@std@@@?$_Tree_node@U?$pair@$$CBV?$basic_string@DU?$char_traits@D@std@@V?$allocator@D@2@@std@@V?$weak_ptr@VRawImageData@@@2@@std@@PAX@std@@SAXAAV?$allocator@U?$_Tree_node@U?$pair@$$CBV?$basic_string@DU?$char_traits@D@std@@V?$allocator@D@2@@std@@V?$weak_ptr@VRawImageData@@@2@@std@@PAX@std@@@1@PAU01@@Z 00400000     DraggingDemo.obj
 0002:fffbc000       __ehfuncinfo$??$_Freenode@V?$allocator@U?$_Tree_node@U?$pair@$$CBV?$basic_string@DU?$char_traits@D@std@@V?$allocator@D@2@@std@@V?$weak_ptr@VRawImageData@@@2@@std@@PAX@std@@@std@@@?$_Tree_node@U?$pair@$$CBV?$basic_string@DU?$char_traits@D@std@@V?$allocator@D@2@@std@@V?$weak_ptr@VRawImageData@@@2@@std@@PAX@std@@SAXAAV?$allocator@U?$_Tree_node@U?$pair@$$CBV?$basic_string@DU?$char_traits@D@std@@V?$allocator@D@2@@std@@V?$weak_ptr@VRawImageData@@@2@@std@@PAX@std@@@1@PAU01@@Z 00400000     DraggingDemo.obj
 0002:fffbc000       __ehfuncinfo$??0?$basic_string@DU?$char_traits@D@std@@V?$allocator@D@2@@std@@QAE@$$QAV01@@Z 00400000     DraggingDemo.obj
 0002:fffbc000       __ehfuncinfo$??1?$_Alloc_construct_ptr@V?$allocator@U?$_Tree_node@U?$pair@$$CBV?$basic_string@DU?$char_traits@D@std@@V?$allocator@D@2@@std@@V?$shared_ptr@VRawImageData@@@2@@std@@PAX@std@@@std@@@std@@QAE@XZ 00400000     DraggingDemo.obj
 0002:fffbc000       __ehfuncinfo$??1?$_Alloc_construct_ptr@V?$allocator@U?$_Tree_node@U?$pair@$$CBV?$basic_string@DU?$char_traits@D@std@@V?$allocator@D@2@@std@@V?$weak_ptr@VRawImageData@@@2@@std@@PAX@std@@@std@@@std@@QAE@XZ 00400000     DraggingDemo.obj
 0002:fffbc000       __ehfuncinfo$??1?$_Tree_temp_node@V?$allocator@U?$_Tree_node@U?$pair@$$CBV?$basic_string@DU?$char_traits@D@std@@V?$allocator@D@2@@std@@V?$shared_ptr@VRawImageData@@@2@@std@@PAX@std@@@std@@@std@@QAE@XZ 00400000     DraggingDemo.obj
 0002:fffbc000       __ehfuncinfo$??1?$_Tree_temp_node@V?$allocator@U?$_Tree_node@U?$pair@$$CBV?$basic_string@DU?$char_traits@D@std@@V?$allocator@D@2@@std@@V?$weak_ptr@VRawImageData@@@2@@std@@PAX@std@@@std@@@std@@QAE@XZ 00400000     DraggingDemo.obj
 0002:fffbc000       __ehfuncinfo$??1RawImageData@@QAE@XZ 00400000     DraggingDemo.obj
 0002:fffbc000       __ehfuncinfo$??1_Sentry_base@?$basic_ostream@DU?$char_traits@D@std@@@std@@QAE@XZ 00400000     DraggingDemo.obj
 0002:fffbc000       __ehfuncinfo$?_Deallocate_for_capacity@?$basic_string@DU?$char_traits@D@std@@V?$allocator@D@2@@std@@CAXAAV?$allocator@D@2@QADI@Z 00400000     DraggingDemo.obj
 0002:fffbc000       __ehfuncinfo$?getImagePtrbyURL@ImageManager@@QAE?AV?$shared_ptr@VRawImageData@@@std@@V?$basic_string@DU?$char_traits@D@std@@V?$allocator@D@2@@3@_N1@Z 00400000     DraggingDemo.obj
 0001:fffff000       __ehhandler$??$_Deallocate@$07$0A@@std@@YAXPAXI@Z 00400000 f   DraggingDemo.obj
 0001:fffff000       __ehhandler$??$_Deallocate_plain@V?$allocator@U_Container_proxy@std@@@std@@@std@@YAXAAV?$allocator@U_Container_proxy@std@@@0@QAU_Container_proxy@0@@Z 00400000 f   DraggingDemo.obj
 0001:fffff000       __ehhandler$??$_Freenode0@V?$allocator@U?$_Tree_node@U?$pair@$$CBV?$basic_string@DU?$char_traits@D@std@@V?$allocator@D@2@@std@@V?$weak_ptr@VRawImageData@@@2@@std@@PAX@std@@@std@@@?$_Tree_node@U?$pair@$$CBV?$basic_string@DU?$char_traits@D@std@@V?$allocator@D@2@@std@@V?$weak_ptr@VRawImageData@@@2@@std@@PAX@std@@SAXAAV?$allocator@U?$_Tree_node@U?$pair@$$CBV?$basic_string@DU?$char_traits@D@std@@V?$allocator@D@2@@std@@V?$weak_ptr@VRawImageData@@@2@@std@@PAX@std@@@1@PAU01@@Z 00400000 f   DraggingDemo.obj
 0001:fffff000       __ehhandler$??$_Freenode@V?$allocator@U?$_Tree_node@U?$pair@$$CBV?$basic_string@DU?$char_traits@D@std@@V?$allocator@D@2@@std@@V?$weak_ptr@VRawImageData@@@2@@std@@PAX@std@@@std@@@?$_Tree_node@U?$pair@$$CBV?$basic_string@DU?$char_traits@D@std@@V?$allocator@D@2@@std@@V?$weak_ptr@VRawImageData@@@2@@std@@PAX@std@@SAXAAV?$allocator@U?$_Tree_node@U?$pair@$$CBV?$basic_string@DU?$char_traits@D@std@@V?$allocator@D@2@@std@@V?$weak_ptr@VRawImageData@@@2@@std@@PAX@std@@@1@PAU01@@Z 00400000 f   DraggingDemo.obj
 0001:fffff000       __ehhandler$??$_Resize_reallocate@U_Value_init_tag@std@@@?$vector@PAVDisplayableObject@@V?$allocator@PAVDisplayableObject@@@std@@@std@@AAEXIABU_Value_init_tag@1@@Z 00400000 f   DraggingDemo.obj
 0001:fffff000       __ehhandler$??0?$basic_string@DU?$char_traits@D@std@@V?$allocator@D@2@@std@@QAE@$$QAV01@@Z 00400000 f   DraggingDemo.obj
 0001:fffff000       __ehhandler$??1?$_Alloc_construct_ptr@V?$allocator@U?$_Tree_node@U?$pair@$$CBV?$basic_string@DU?$char_traits@D@std@@V?$allocator@D@2@@std@@V?$shared_ptr@VRawImageData@@@2@@std@@PAX@std@@@std@@@std@@QAE@XZ 00400000 f   DraggingDemo.obj
 0001:fffff000       __ehhandler$??1?$_Alloc_construct_ptr@V?$allocator@U?$_Tree_node@U?$pair@$$CBV?$basic_string@DU?$char_traits@D@std@@V?$allocator@D@2@@std@@V?$weak_ptr@VRawImageData@@@2@@std@@PAX@std@@@std@@@std@@QAE@XZ 00400000 f   DraggingDemo.obj
 0001:fffff000       __ehhandler$??1?$_Tree_temp_node@V?$allocator@U?$_Tree_node@U?$pair@$$CBV?$basic_string@DU?$char_traits@D@std@@V?$allocator@D@2@@std@@V?$shared_ptr@VRawImageData@@@2@@std@@PAX@std@@@std@@@std@@QAE@XZ 00400000 f   DraggingDemo.obj
 0001:fffff000       __ehhandler$??1?$_Tree_temp_node@V?$allocator@U?$_Tree_node@U?$pair@$$CBV?$basic_string@DU?$char_traits@D@std@@V?$allocator@D@2@@std@@V?$weak_ptr@VRawImageData@@@2@@std@@PAX@std@@@std@@@std@@QAE@XZ 00400000 f   DraggingDemo.obj
 0001:fffff000       __ehhandler$??1RawImageData@@QAE@XZ 00400000 f   DraggingDemo.obj
 0001:fffff000       __ehhandler$??1_Sentry_base@?$basic_ostream@DU?$char_traits@D@std@@@std@@QAE@XZ 00400000 f   DraggingDemo.obj
 0001:fffff000       __ehhandler$?_Deallocate_for_capacity@?$basic_string@DU?$char_traits@D@std@@V?$allocator@D@2@@std@@CAXAAV?$allocator@D@2@QADI@Z 00400000 f   DraggingDemo.obj
 0001:fffff000       __unwindfunclet$??$?0U?$pair@V?$basic_string@DU?$char_traits@D@std@@V?$allocator@D@2@@std@@V?$shared_ptr@VRawImageData@@@2@@std@@@?$_Tree_temp_node@V?$allocator@U?$_Tree_node@U?$pair@$$CBV?$basic_string@DU?$char_traits@D@std@@V?$allocator@D@2@@std@@V?$shared_ptr@VRawImageData@@@2@@std@@PAX@std@@@std@@@std@@QAE@AAV?$allocator@U?$_Tree_node@U?$pair@$$CBV?$basic_string@DU?$char_traits@D@std@@V?$allocator@D@2@@std@@V?$shared_ptr@VRawImageData@@@2@@std@@PAX@std@@@1@PAU?$_Tree_node@U?$pair@$$CBV?$basic_string@DU?$char_traits@D@std@@V?$allocator@D@2@@std@@V?$shared_ptr@VRawImageData@@@2@@std@@PAX@1@$$QAU?$pair@V?$basic_string@DU?$char_traits@D@std@@V?$allocator@D@2@@std@@V?$shared_ptr@VRawImageData@@@2@@1@@Z$0 00400000 f   DraggingDemo.obj
 0001:fffff000       __unwindfunclet$??$?0U?$pair@V?$basic_string@DU?$char_traits@D@std@@V?$allocator@D@2@@std@@V?$weak_ptr@VRawImageData@@@2@@std@@@?$_Tree_temp_node@V?$allocator@U?$_Tree_node@U?$pair@$$CBV?$basic_string@DU?$char_traits@D@std@@V?$allocator@D@2@@std@@V?$weak_ptr@VRawImageData@@@2@@std@@PAX@std@@@std@@@std@@QAE@AAV?$allocator@U?$_Tree_node@U?$pair@$$CBV?$basic_string@DU?$char_traits@D@std@@V?$allocator@D@2@@std@@V?$weak_ptr@VRawImageData@@@2@@std@@PAX@std@@@1@PAU?$_Tree_node@U?$pair@$$CBV?$basic_string@DU?$char_traits@D@std@@V?$allocator@D@2@@std@@V?$weak_ptr@VRawImageData@@@2@@std@@PAX@1@$$QAU?$pair@V?$basic_string@DU?$char_traits@D@std@@V?$allocator@D@2@@std@@V?$weak_ptr@VRawImageData@@@2@@1@@Z$0 00400000 f   DraggingDemo.obj
 0001:fffff000       __unwindfunclet$??$?0VRawImageData@@$0A@@?$shared_ptr@VRawImageData@@@std@@QAE@PAVRawImageData@@@Z$0 00400000 f   DraggingDemo.obj
 0001:fffff000       __unwindfunclet$??$?6U?$char_traits@D@std@@@std@@YAAAV?$basic_ostream@DU?$char_traits@D@std@@@0@AAV10@PBD@Z$2 00400000 f   DraggingDemo.obj
 0001:fffff000       __unwindfunclet$??$_Construct@$00PBD@?$basic_string@DU?$char_traits@D@std@@V?$allocator@D@2@@std@@AAEXQBDI@Z$0 00400000 f   DraggingDemo.obj
 0001:fffff000       __unwindfunclet$??$_Construct@$01PBD@?$basic_string@DU?$char_traits@D@std@@V?$allocator@D@2@@std@@AAEXQBDI@Z$0 00400000 f   DraggingDemo.obj
 0001:fffff000       __unwindfunclet$??$_Insert_string@DU?$char_traits@D@std@@I@std@@YAAAV?$basic_ostream@DU?$char_traits@D@std@@@0@AAV10@QBDI@Z$2 00400000 f   DraggingDemo.obj
 0001:fffff000       __unwindfunclet$??$_Uninitialized_move@PAPAVDisplayableObject@@V?$allocator@PAVDisplayableObject@@@std@@@std@@YAPAPAVDisplayableObject@@QAPAV1@0PAPAV1@AAV?$allocator@PAVDisplayableObject@@@0@@Z$0 00400000 f   DraggingDemo.obj
 0001:fffff000       __unwindfunclet$??$_Uninitialized_value_construct_n@V?$allocator@PAVDisplayableObject@@@std@@@std@@YAPAPAVDisplayableObject@@PAPAV1@IAAV?$allocator@PAVDisplayableObject@@@0@@Z$0 00400000 f   DraggingDemo.obj
 0001:fffff000       __unwindfunclet$??0?$_Tree_temp_node_alloc@V?$allocator@U?$_Tree_node@U?$pair@$$CBV?$basic_string@DU?$char_traits@D@std@@V?$allocator@D@2@@std@@V?$shared_ptr@VRawImageData@@@2@@std@@PAX@std@@@std@@@std@@QAE@AAV?$allocator@U?$_Tree_node@U?$pair@$$CBV?$basic_string@DU?$char_traits@D@std@@V?$allocator@D@2@@std@@V?$shared_ptr@VRawImageData@@@2@@std@@PAX@std@@@1@@Z$0 00400000 f   DraggingDemo.obj
 0001:fffff000       __unwindfunclet$??0?$_Tree_temp_node_alloc@V?$allocator@U?$_Tree_node@U?$pair@$$CBV?$basic_string@DU?$char_traits@D@std@@V?$allocator@D@2@@std@@V?$weak_ptr@VRawImageData@@@2@@std@@PAX@std@@@std@@@std@@QAE@AAV?$allocator@U?$_Tree_node@U?$pair@$$CBV?$basic_string@DU?$char_traits@D@std@@V?$allocator@D@2@@std@@V?$weak_ptr@VRawImageData@@@2@@std@@PAX@std@@@1@@Z$0 00400000 f   DraggingDemo.obj
 0001:fffff000       __unwindfunclet$??0?$basic_string@DU?$char_traits@D@std@@V?$allocator@D@2@@std@@QAE@ABV01@@Z$0 00400000 f   DraggingDemo.obj
 0001:fffff000       __unwindfunclet$??0?$basic_string@DU?$char_traits@D@std@@V?$allocator@D@2@@std@@QAE@QBD@Z$0 00400000 f   DraggingDemo.obj
 0001:fffff000       __unwindfunclet$??0ImageManager@@QAE@XZ$0 00400000 f   DraggingDemo.obj
 0001:fffff000       __unwindfunclet$??0RawImageData@@QAE@V?$basic_string@DU?$char_traits@D@std@@V?$allocator@D@2@@std@@@Z$0 00400000 f   DraggingDemo.obj
 0001:fffff000       __unwindfunclet$??0sentry@?$basic_ostream@DU?$char_traits@D@std@@@std@@QAE@AAV12@@Z$0 00400000 f   DraggingDemo.obj
 0001:fffff000       __unwindfunclet$?_Alloc_sentinel_and_proxy@?$_Tree@V?$_Tmap_traits@V?$basic_string@DU?$char_traits@D@std@@V?$allocator@D@2@@std@@V?$shared_ptr@VRawImageData@@@2@U?$less@V?$basic_string@DU?$char_traits@D@std@@V?$allocator@D@2@@std@@@2@V?$allocator@U?$pair@$$CBV?$basic_string@DU?$char_traits@D@std@@V?$allocator@D@2@@std@@V?$shared_ptr@VRawImageData@@@2@@std@@@2@$0A@@std@@@std@@IAEXXZ$0 00400000 f   DraggingDemo.obj
 0001:fffff000       __unwindfunclet$?_Alloc_sentinel_and_proxy@?$_Tree@V?$_Tmap_traits@V?$basic_string@DU?$char_traits@D@std@@V?$allocator@D@2@@std@@V?$weak_ptr@VRawImageData@@@2@U?$less@V?$basic_string@DU?$char_traits@D@std@@V?$allocator@D@2@@std@@@2@V?$allocator@U?$pair@$$CBV?$basic_string@DU?$char_traits@D@std@@V?$allocator@D@2@@std@@V?$weak_ptr@VRawImageData@@@2@@std@@@2@$0A@@std@@@std@@IAEXXZ$0 00400000 f   DraggingDemo.obj
 0001:fffff000       __unwindfunclet$?_Orphan_range_locked@?$vector@PAVDisplayableObject@@V?$allocator@PAVDisplayableObject@@@std@@@std@@ABEXPAPAVDisplayableObject@@0@Z$0 00400000 f   DraggingDemo.obj
 0001:fffff000       __unwindfunclet$?get@ImageManager@@SAPAV1@XZ$0 00400000 f   DraggingDemo.obj
 0001:fffff000       __unwindfunclet$?getImagePtrbyURL@ImageManager@@QAE?AV?$shared_ptr@VRawImageData@@@std@@V?$basic_string@DU?$char_traits@D@std@@V?$allocator@D@2@@3@_N1@Z$0 00400000 f   DraggingDemo.obj
 0001:fffff000       __unwindfunclet$?getImagebyURL@ImageManager@@QAE?AVSimpleImage@@V?$basic_string@DU?$char_traits@D@std@@V?$allocator@D@2@@std@@_N1@Z$0 00400000 f   DraggingDemo.obj
 0001:fffff000       __unwindfunclet$?loadAsNew@ImageManager@@QAE?AV?$shared_ptr@VRawImageData@@@std@@V?$basic_string@DU?$char_traits@D@std@@V?$allocator@D@2@@3@@Z$0 00400000 f   DraggingDemo.obj
 0001:fffff000       __unwindfunclet$?loadImage@RawImageData@@QAE_NV?$basic_string@DU?$char_traits@D@std@@V?$allocator@D@2@@std@@HHHHH_N@Z$0 00400000 f   DraggingDemo.obj
 0002:fffbc000       __unwindtable$??$?0U?$pair@V?$basic_string@DU?$char_traits@D@std@@V?$allocator@D@2@@std@@V?$shared_ptr@VRawImageData@@@2@@std@@@?$_Tree_temp_node@V?$allocator@U?$_Tree_node@U?$pair@$$CBV?$basic_string@DU?$char_traits@D@std@@V?$allocator@D@2@@std@@V?$shared_ptr@VRawImageData@@@2@@std@@PAX@std@@@std@@@std@@QAE@AAV?$allocator@U?$_Tree_node@U?$pair@$$CBV?$basic_string@DU?$char_traits@D@std@@V?$allocator@D@2@@std@@V?$shared_ptr@VRawImageData@@@2@@std@@PAX@std@@@1@PAU?$_Tree_node@U?$pair@$$CBV?$basic_string@DU?$char_traits@D@std@@V?$allocator@D@2@@std@@V?$shared_ptr@VRawImageData@@@2@@std@@PAX@1@$$QAU?$pair@V?$basic_string@DU?$char_traits@D@std@@V?$allocator@D@2@@std@@V?$shared_ptr@VRawImageData@@@2@@1@@Z 00400000     DraggingDemo.obj
 0002:fffbc000       __unwindtable$??$?0U?$pair@V?$basic_string@DU?$char_traits@D@std@@V?$allocator@D@2@@std@@V?$weak_ptr@VRawImageData@@@2@@std@@@?$_Tree_temp_node@V?$allocator@U?$_Tree_node@U?$pair@$$CBV?$basic_string@DU?$char_traits@D@std@@V?$allocator@D@2@@std@@V?$weak_ptr@VRawImageData@@@2@@std@@PAX@std@@@std@@@std@@QAE@AAV?$allocator@U?$_Tree_node@U?$pair@$$CBV?$basic_string@DU?$char_traits@D@std@@V?$allocator@D@2@@std@@V?$weak_ptr@VRawImageData@@@2@@std@@PAX@std@@@1@PAU?$_Tree_node@U?$pair@$$CBV?$basic_string@DU?$char_traits@D@std@@V?$allocator@D@2@@std@@V?$weak_ptr@VRawImageData@@@2@@std@@PAX@1@$$QAU?$pair@V?$basic_string@DU?$char_traits@D@std@@V?$allocator@D@2@@std@@V?$weak_ptr@VRawImageData@@@2@@1@@Z 00400000     DraggingDemo.obj
 0002:fffbc000       __unwindtable$??$?0VRawImageData@@$0A@@?$shared_ptr@VRawImageData@@@std@@QAE@PAVRawImageData@@@Z 00400000     DraggingDemo.obj
 0002:fffbc000       __unwindtable$??$_Construct@$00PBD@?$basic_string@DU?$char_traits@D@std@@V?$allocator@D@2@@std@@AAEXQBDI@Z 00400000     DraggingDemo.obj
 0002:fffbc000       __unwindtable$??$_Construct@$01PBD@?$basic_string@DU?$char_traits@D@std@@V?$allocator@D@2@@std@@AAEXQBDI@Z 00400000     DraggingDemo.obj
 0002:fffbc000       __unwindtable$??$_Uninitialized_move@PAPAVDisplayableObject@@V?$allocator@PAVDisplayableObject@@@std@@@std@@YAPAPAVDisplayableObject@@QAPAV1@0PAPAV1@AAV?$allocator@PAVDisplayableObject@@@0@@Z 00400000     DraggingDemo.obj
 0002:fffbc000       __unwindtable$??$_Uninitialized_value_construct_n@V?$allocator@PAVDisplayableObject@@@std@@@std@@YAPAPAVDisplayableObject@@PAPAV1@IAAV?$allocator@PAVDisplayableObject@@@0@@Z 00400000     DraggingDemo.obj
 0002:fffbc000       __unwindtable$??0?$_Tree_temp_node_alloc@V?$allocator@U?$_Tree_node@U?$pair@$$CBV?$basic_string@DU?$char_traits@D@std@@V?$allocator@D@2@@std@@V?$shared_ptr@VRawImageData@@@2@@std@@PAX@std@@@std@@@std@@QAE@AAV?$allocator@U?$_Tree_node@U?$pair@$$CBV?$basic_string@DU?$char_traits@D@std@@V?$allocator@D@2@@std@@V?$shared_ptr@VRawImageData@@@2@@std@@PAX@std@@@1@@Z 00400000     DraggingDemo.obj
 0002:fffbc000       __unwindtable$??0?$_Tree_temp_node_alloc@V?$allocator@U?$_Tree_node@U?$pair@$$CBV?$basic_string@DU?$char_traits@D@std@@V?$allocator@D@2@@std@@V?$weak_ptr@VRawImageData@@@2@@std@@PAX@std@@@std@@@std@@QAE@AAV?$allocator@U?$_Tree_node@U?$pair@$$CBV?$basic_string@DU?$char_traits@D@std@@V?$allocator@D@2@@std@@V?$weak_ptr@VRawImageData@@@2@@std@@PAX@std@@@1@@Z 00400000     DraggingDemo.obj
 0002:fffbc000       __unwindtable$??0?$basic_string@DU?$char_traits@D@std@@V?$allocator@D@2@@std@@QAE@ABV01@@Z 00400000     DraggingDemo.obj
 0002:fffbc000       __unwindtable$??0?$basic_string@DU?$char_traits@D@std@@V?$allocator@D@2@@std@@QAE@QBD@Z 00400000     DraggingDemo.obj
 0002:fffbc000       __unwindtable$??0ImageManager@@QAE@XZ 00400000     DraggingDemo.obj
 0002:fffbc000       __unwindtable$??0RawImageData@@QAE@V?$basic_string@DU?$char_traits@D@std@@V?$allocator@D@2@@std@@@Z 00400000     DraggingDemo.obj
 0002:fffbc000       __unwindtable$??0sentry@?$basic_ostream@DU?$char_traits@D@std@@@std@@QAE@AAV12@@Z 00400000     DraggingDemo.obj
 0002:fffbc000       __unwindtable$?_Alloc_sentinel_and_proxy@?$_Tree@V?$_Tmap_traits@V?$basic_string@DU?$char_traits@D@std@@V?$allocator@D@2@@std@@V?$shared_ptr@VRawImageData@@@2@U?$less@V?$basic_string@DU?$char_traits@D@std@@V?$allocator@D@2@@std@@@2@V?$allocator@U?$pair@$$CBV?$basic_string@DU?$char_traits@D@std@@V?$allocator@D@2@@std@@V?$shared_ptr@VRawImageData@@@2@@std@@@2@$0A@@std@@@std@@IAEXXZ 00400000     DraggingDemo.obj
 0002:fffbc000       __unwindtable$?_Alloc_sentinel_and_proxy@?$_Tree@V?$_Tmap_traits@V?$basic_string@DU?$char_traits@D@std@@V?$allocator@D@2@@std@@V?$weak_ptr@VRawImageData@@@2@U?$less@V?$basic_string@DU?$char_traits@D@std@@V?$allocator@D@2@@std@@@2@V?$allocator@U?$pair@$$CBV?$basic_string@DU?$char_traits@D@std@@V?$allocator@D@2@@std@@V?$weak_ptr@VRawImageData@@@2@@std@@@2@$0A@@std@@@std@@IAEXXZ 00400000     DraggingDemo.obj
 0002:fffbc000       __unwindtable$?_Orphan_range_locked@?$vector@PAVDisplayableObject@@V?$allocator@PAVDisplayableObject@@@std@@@std@@ABEXPAPAVDisplayableObject@@0@Z 00400000     DraggingDemo.obj
 0002:fffbc000       __unwindtable$?get@ImageManager@@SAPAV1@XZ 00400000     DraggingDemo.obj
 0002:fffbc000       __unwindtable$?getImagebyURL@ImageManager@@QAE?AVSimpleImage@@V?$basic_string@DU?$char_traits@D@std@@V?$allocator@D@2@@std@@_N1@Z 00400000     DraggingDemo.obj
 0002:fffbc000       __unwindtable$?loadAsNew@ImageManager@@QAE?AV?$shared_ptr@VRawImageData@@@std@@V?$basic_string@DU?$char_traits@D@std@@V?$allocator@D@2@@3@@Z 00400000     DraggingDemo.obj
 0002:fffbc000       __unwindtable$?loadImage@RawImageData@@QAE_NV?$basic_string@DU?$char_traits@D@std@@V?$allocator@D@2@@std@@HHHHH_N@Z 00400000     DraggingDemo.obj
 0000:00000000       _volmd                     00400000     DraggingDemo.obj
 0000:00000000       _volmd                     00400000     DraggingDemo.obj
 0000:00000000       _volmd                     00400000     DraggingDemo.obj
 0000:00000000       _volmd                     00400000     DraggingDemo.obj
 0000:00000000       _volmd                     00400000     DraggingDemo.obj
 0000:00000000       _volmd                     00400000     DraggingDemo.obj
 0000:00000000       _volmd                     00400000     DraggingDemo.obj
 0000:00000000       _volmd                     00400000     DraggingDemo.obj
 0000:00000000       _volmd                     00400000     DraggingDemo.obj
 0000:00000000       _volmd                     00400000     DraggingDemo.obj
 0000:00000000       _volmd                     00400000     DraggingDemo.obj
 0000:00000000       _volmd                     00400000     DraggingDemo.obj
 0000:00000000       _volmd                     00400000     DraggingDemo.obj
 0000:00000000       _volmd                     00400000     DraggingDemo.obj
 0000:00000000       _volmd                     00400000     DraggingDemo.obj
 0000:00000000       _volmd                     00400000     DraggingDemo.obj
 0000:00000000       _volmd                     00400000     DraggingDemo.obj
 0000:00000000       _volmd                     00400000     DraggingDemo.obj
 0000:00000000       _volmd                     00400000     DraggingDemo.obj
 0000:00000000       _volmd                     00400000     DraggingDemo.obj
 0000:00000000       _volmd                     00400000     DraggingDemo.obj
 0000:00000000       _volmd                     00400000     DraggingDemo.obj
 0000:00000000       _volmd                     00400000     DraggingDemo.obj
 0000:00000000       _volmd                     00400000     DraggingDemo.obj
 0000:00000000       _volmd                     00400000     DraggingDemo.obj
 0000:00000000       _volmd                     00400000     DraggingDemo.obj
 0000:00000000       _volmd                     00400000     DraggingDemo.obj
 0000:00000000       _volmd                     00400000     DraggingDemo.obj
 0000:00000000       _volmd                     00400000     DraggingDemo.obj
 0000:00000000       _volmd                     00400000     DraggingDemo.obj
 0000:00000000       _volmd                     00400000     DraggingDemo.obj
 0000:00000000       _volmd                     00400000     DraggingDemo.obj
 0000:00000000       _volmd                     00400000     DraggingDemo.obj
 0000:00000000       _volmd                     00400000     DraggingDemo.obj
 0000:00000000       _volmd                     00400000     DraggingDemo.obj
 0000:00000000       _volmd                     00400000     DraggingDemo.obj
 0000:00000000       _volmd                     00400000     DraggingDemo.obj
 0000:00000000       _volmd                     00400000     DraggingDemo.obj
 0000:00000000       _volmd                     00400000     DraggingDemo.obj
 0000:00000000       _volmd                     00400000     DraggingDemo.obj
 0000:00000000       _volmd                     00400000     DraggingDemo.obj
 0000:00000000       _volmd                     00400000     DraggingDemo.obj
 0000:00000000       _volmd                     00400000     DraggingDemo.obj
 0000:00000000       _volmd                     00400000     DraggingDemo.obj
 0002:fffbc000       __catchsym$??$?6U?$char_traits@D@std@@@std@@YAAAV?$basic_ostream@DU?$char_traits@D@std@@@0@AAV10@PBD@Z$3 00400000     DrawingSurface.obj
 0002:fffbc000       __ehfuncinfo$??1_Sentry_base@?$basic_ostream@DU?$char_traits@D@std@@@std@@QAE@XZ 00400000     DrawingSurface.obj
 0001:fffff000       __ehhandler$??1_Sentry_base@?$basic_ostream@DU?$char_traits@D@std@@@std@@QAE@XZ 00400000 f   DrawingSurface.obj
 0001:fffff000       __unwindfunclet$??$?6U?$char_traits@D@std@@@std@@YAAAV?$basic_ostream@DU?$char_traits@D@std@@@0@AAV10@PBD@Z$2 00400000 f   DrawingSurface.obj
 0001:fffff000       __unwindfunclet$??0sentry@?$basic_ostream@DU?$char_traits@D@std@@@std@@QAE@AAV12@@Z$0 00400000 f   DrawingSurface.obj
 0002:fffbc000       __unwindtable$??0sentry@?$basic_ostream@DU?$char_traits@D@std@@@std@@QAE@AAV12@@Z 00400000     DrawingSurface.obj
 0000:00000000       _volmd                     00400000     DrawingSurface.obj
 0000:00000000       _volmd                     00400000     DrawingSurface.obj
 0000:00000000       _volmd                     00400000     DrawingSurface.obj
 0000:00000000       _volmd                     00400000     DrawingSurface.obj
 0002:fffbc000       __catchsym$??$?6U?$char_traits@D@std@@@std@@YAAAV?$basic_ostream@DU?$char_traits@D@std@@@0@AAV10@PBD@Z$3 00400000     FlashingDemo.obj
 0002:fffbc000       __ehfuncinfo$??1_Sentry_base@?$basic_ostream@DU?$char_traits@D@std@@@std@@QAE@XZ 00400000     FlashingDemo.obj
 0001:fffff000       __ehhandler$??1_Sentry_base@?$basic_ostream@DU?$char_traits@D@std@@@std@@QAE@XZ 00400000 f   FlashingDemo.obj
 0001:fffff000       __unwindfunclet$??$?6U?$char_traits@D@std@@@std@@YAAAV?$basic_ostream@DU?$char_traits@D@std@@@0@AAV10@PBD@Z$2 00400000 f   FlashingDemo.obj
 0001:fffff000       __unwindfunclet$??0sentry@?$basic_ostream@DU?$char_traits@D@std@@@std@@QAE@AAV12@@Z$0 00400000 f   FlashingDemo.obj
 0002:fffbc000       __unwindtable$??0sentry@?$basic_ostream@DU?$char_traits@D@std@@@std@@QAE@AAV12@@Z 00400000     FlashingDemo.obj
 0000:00000000       _volmd                     00400000     FlashingDemo.obj
 0000:00000000       _volmd                     00400000     FlashingDemo.obj
 0000:00000000       _volmd                     00400000     FlashingDemo.obj
 0000:00000000       _volmd                     00400000     FlashingDemo.obj
 0000:00000000       _volmd                     00400000     FlashingDemo.obj
 0000:00000000       _volmd                     00400000     FontManager.obj
 0002:fffbc000       __catchsym$??$?6U?$char_traits@D@std@@@std@@YAAAV?$basic_ostream@DU?$char_traits@D@std@@@0@AAV10@PBD@Z$3 00400000     ImageMappingDemo.obj
 0002:fffbc000       __catchsym$??$_Insert_string@DU?$char_traits@D@std@@I@std@@YAAAV?$basic_ostream@DU?$char_traits@D@std@@@0@AAV10@QBDI@Z$3 00400000     ImageMappingDemo.obj
 0002:fffbc000       __catchsym$??$_Resize_reallocate@U_Value_init_tag@std@@@?$vector@PAVDisplayableObject@@V?$allocator@PAVDisplayableObject@@@std@@@std@@AAEXIABU_Value_init_tag@1@@Z$2 00400000     ImageMappingDemo.obj
 0002:fffbc000       __ehfuncinfo$??$_Deallocate@$07$0A@@std@@YAXPAXI@Z 00400000     ImageMappingDemo.obj
 0002:fffbc000       __ehfuncinfo$??$_Deallocate_plain@V?$allocator@U_Container_proxy@std@@@std@@@std@@YAXAAV?$allocator@U_Container_proxy@std@@@0@QAU_Container_proxy@0@@Z 00400000     ImageMappingDemo.obj
 0002:fffbc000       __ehfuncinfo$??$_Freenode0@V?$allocator@U?$_Tree_node@U?$pair@$$CBV?$basic_string@DU?$char_traits@D@std@@V?$allocator@D@2@@std@@V?$weak_ptr@VRawImageData@@@2@@std@@PAX@std@@@std@@@?$_Tree_node@U?$pair@$$CBV?$basic_string@DU?$char_traits@D@std@@V?$allocator@D@2@@std@@V?$weak_ptr@VRawImageData@@@2@@std@@PAX@std@@SAXAAV?$allocator@U?$_Tree_node@U?$pair@$$CBV?$basic_string@DU?$char_traits@D@std@@V?$allocator@D@2@@std@@V?$weak_ptr@VRawImageData@@@2@@std@@PAX@std@@@1@PAU01@@Z 00400000     ImageMappingDemo.obj
 0002:fffbc000       __ehfuncinfo$??$_Freenode@V?$allocator@U?$_Tree_node@U?$pair@$$CBV?$basic_string@DU?$char_traits@D@std@@V?$allocator@D@2@@std@@V?$weak_ptr@VRawImageData@@@2@@std@@PAX@std@@@std@@@?$_Tree_node@U?$pair@$$CBV?$basic_string@DU?$char_traits@D@std@@V?$allocator@D@2@@std@@V?$weak_ptr@VRawImageData@@@2@@std@@PAX@std@@SAXAAV?$allocator@U?$_Tree_node@U?$pair@$$CBV?$basic_string@DU?$char_traits@D@std@@V?$allocator@D@2@@std@@V?$weak_ptr@VRawImageData@@@2@@std@@PAX@std@@@1@PAU01@@Z 00400000     ImageMappingDemo.obj
 0002:fffbc000       __ehfuncinfo$??0?$basic_string@DU?$char_traits@D@std@@V?$allocator@D@2@@std@@QAE@$$QAV01@@Z 00400000     ImageMappingDemo.obj
 0002:fffbc000       __ehfuncinfo$??1?$_Alloc_construct_ptr@V?$allocator@U?$_Tree_node@U?$pair@$$CBV?$basic_string@DU?$char_traits@D@std@@V?$allocator@D@2@@std@@V?$shared_ptr@VRawImageData@@@2@@std@@PAX@std@@@std@@@std@@QAE@XZ 00400000     ImageMappingDemo.obj
 0002:fffbc000       __ehfuncinfo$??1?$_Alloc_construct_ptr@V?$allocator@U?$_Tree_node@U?$pair@$$CBV?$basic_string@DU?$char_traits@D@std@@V?$allocator@D@2@@std@@V?$weak_ptr@VRawImageData@@@2@@std@@PAX@std@@@std@@@std@@QAE@XZ 00400000     ImageMappingDemo.obj
 0002:fffbc000       __ehfuncinfo$??1?$_Tree_temp_node@V?$allocator@U?$_Tree_node@U?$pair@$$CBV?$basic_string@DU?$char_traits@D@std@@V?$allocator@D@2@@std@@V?$shared_ptr@VRawImageData@@@2@@std@@PAX@std@@@std@@@std@@QAE@XZ 00400000     ImageMappingDemo.obj
 0002:fffbc000       __ehfuncinfo$??1?$_Tree_temp_node@V?$allocator@U?$_Tree_node@U?$pair@$$CBV?$basic_string@DU?$char_traits@D@std@@V?$allocator@D@2@@std@@V?$weak_ptr@VRawImageData@@@2@@std@@PAX@std@@@std@@@std@@QAE@XZ 00400000     ImageMappingDemo.obj
 0002:fffbc000       __ehfuncinfo$??1RawImageData@@QAE@XZ 00400000     ImageMappingDemo.obj
 0002:fffbc000       __ehfuncinfo$??1_Sentry_base@?$basic_ostream@DU?$char_traits@D@std@@@std@@QAE@XZ 00400000     ImageMappingDemo.obj
 0002:fffbc000       __ehfuncinfo$?_Deallocate_for_capacity@?$basic_string@DU?$char_traits@D@std@@V?$allocator@D@2@@std@@CAXAAV?$allocator@D@2@QADI@Z 00400000     ImageMappingDemo.obj
 0002:fffbc000       __ehfuncinfo$?getImagePtrbyURL@ImageManager@@QAE?AV?$shared_ptr@VRawImageData@@@std@@V?$basic_string@DU?$char_traits@D@std@@V?$allocator@D@2@@3@_N1@Z 00400000     ImageMappingDemo.obj
 0001:fffff000       __ehhandler$??$_Deallocate@$07$0A@@std@@YAXPAXI@Z 00400000 f   ImageMappingDemo.obj
 0001:fffff000       __ehhandler$??$_Deallocate_plain@V?$allocator@U_Container_proxy@std@@@std@@@std@@YAXAAV?$allocator@U_Container_proxy@std@@@0@QAU_Container_proxy@0@@Z 00400000 f   ImageMappingDemo.obj
 0001:fffff000       __ehhandler$??$_Freenode0@V?$allocator@U?$_Tree_node@U?$pair@$$CBV?$basic_string@DU?$char_traits@D@std@@V?$allocator@D@2@@std@@V?$weak_ptr@VRawImageData@@@2@@std@@PAX@std@@@std@@@?$_Tree_node@U?$pair@$$CBV?$basic_string@DU?$char_traits@D@std@@V?$allocator@D@2@@std@@V?$weak_ptr@VRawImageData@@@2@@std@@PAX@std@@SAXAAV?$allocator@U?$_Tree_node@U?$pair@$$CBV?$basic_string@DU?$char_traits@D@std@@V?$allocator@D@2@@std@@V?$weak_ptr@VRawImageData@@@2@@std@@PAX@std@@@1@PAU01@@Z 00400000 f   ImageMappingDemo.obj
 0001:fffff000       __ehhandler$??$_Freenode@V?$allocator@U?$_Tree_node@U?$pair@$$CBV?$basic_string@DU?$char_traits@D@std@@V?$allocator@D@2@@std@@V?$weak_ptr@VRawImageData@@@2@@std@@PAX@std@@@std@@@?$_Tree_node@U?$pair@$$CBV?$basic_string@DU?$char_traits@D@std@@V?$allocator@D@2@@std@@V?$weak_ptr@VRawImageData@@@2@@std@@PAX@std@@SAXAAV?$allocator@U?$_Tree_node@U?$pair@$$CBV?$basic_string@DU?$char_traits@D@std@@V?$allocator@D@2@@std@@V?$weak_ptr@VRawImageData@@@2@@std@@PAX@std@@@1@PAU01@@Z 00400000 f   ImageMappingDemo.obj
 0001:fffff000       __ehhandler$??$_Resize_reallocate@U_Value_init_tag@std@@@?$vector@PAVDisplayableObject@@V?$allocator@PAVDisplayableObject@@@std@@@std@@AAEXIABU_Value_init_tag@1@@Z 00400000 f   ImageMappingDemo.obj
 0001:fffff000       __ehhandler$??0?$basic_string@DU?$char_traits@D@std@@V?$allocator@D@2@@std@@QAE@$$QAV01@@Z 00400000 f   ImageMappingDemo.obj
 0001:fffff000       __ehhandler$??1?$_Alloc_construct_ptr@V?$allocator@U?$_Tree_node@U?$pair@$$CBV?$basic_string@DU?$char_traits@D@std@@V?$allocator@D@2@@std@@V?$shared_ptr@VRawImageData@@@2@@std@@PAX@std@@@std@@@std@@QAE@XZ 00400000 f   ImageMappingDemo.obj
 0001:fffff000       __ehhandler$??1?$_Alloc_construct_ptr@V?$allocator@U?$_Tree_node@U?$pair@$$CBV?$basic_string@DU?$char_traits@D@std@@V?$allocator@D@2@@std@@V?$weak_ptr@VRawImageData@@@2@@std@@PAX@std@@@std@@@std@@QAE@XZ 00400000 f   ImageMappingDemo.obj
 0001:fffff000       __ehhandler$??1?$_Tree_temp_node@V?$allocator@U?$_Tree_node@U?$pair@$$CBV?$basic_string@DU?$char_traits@D@std@@V?$allocator@D@2@@std@@V?$shared_ptr@VRawImageData@@@2@@std@@PAX@std@@@std@@@std@@QAE@XZ 00400000 f   ImageMappingDemo.obj
 0001:fffff000       __ehhandler$??1?$_Tree_temp_node@V?$allocator@U?$_Tree_node@U?$pair@$$CBV?$basic_string@DU?$char_traits@D@std@@V?$allocator@D@2@@std@@V?$weak_ptr@VRawImageData@@@2@@std@@PAX@std@@@std@@@std@@QAE@XZ 00400000 f   ImageMappingDemo.obj
 0001:fffff000       __ehhandler$??1RawImageData@@QAE@XZ 00400000 f   ImageMappingDemo.obj
 0001:fffff000       __ehhandler$??1_Sentry_base@?$basic_ostream@DU?$char_traits@D@std@@@std@@QAE@XZ 00400000 f   ImageMappingDemo.obj
 0001:fffff000       __ehhandler$?_Deallocate_for_capacity@?$basic_string@DU?$char_traits@D@std@@V?$allocator@D@2@@std@@CAXAAV?$allocator@D@2@QADI@Z 00400000 f   ImageMappingDemo.obj
 0001:fffff000       __unwindfunclet$??$?0U?$pair@V?$basic_string@DU?$char_traits@D@std@@V?$allocator@D@2@@std@@V?$shared_ptr@VRawImageData@@@2@@std@@@?$_Tree_temp_node@V?$allocator@U?$_Tree_node@U?$pair@$$CBV?$basic_string@DU?$char_traits@D@std@@V?$allocator@D@2@@std@@V?$shared_ptr@VRawImageData@@@2@@std@@PAX@std@@@std@@@std@@QAE@AAV?$allocator@U?$_Tree_node@U?$pair@$$CBV?$basic_string@DU?$char_traits@D@std@@V?$allocator@D@2@@std@@V?$shared_ptr@VRawImageData@@@2@@std@@PAX@std@@@1@PAU?$_Tree_node@U?$pair@$$CBV?$basic_string@DU?$char_traits@D@std@@V?$allocator@D@2@@std@@V?$shared_ptr@VRawImageData@@@2@@std@@PAX@1@$$QAU?$pair@V?$basic_string@DU?$char_traits@D@std@@V?$allocator@D@2@@std@@V?$shared_ptr@VRawImageData@@@2@@1@@Z$0 00400000 f   ImageMappingDemo.obj
 0001:fffff000       __unwindfunclet$??$?0U?$pair@V?$basic_string@DU?$char_traits@D@std@@V?$allocator@D@2@@std@@V?$weak_ptr@VRawImageData@@@2@@std@@@?$_Tree_temp_node@V?$allocator@U?$_Tree_node@U?$pair@$$CBV?$basic_string@DU?$char_traits@D@std@@V?$allocator@D@2@@std@@V?$weak_ptr@VRawImageData@@@2@@std@@PAX@std@@@std@@@std@@QAE@AAV?$allocator@U?$_Tree_node@U?$pair@$$CBV?$basic_string@DU?$char_traits@D@std@@V?$allocator@D@2@@std@@V?$weak_ptr@VRawImageData@@@2@@std@@PAX@std@@@1@PAU?$_Tree_node@U?$pair@$$CBV?$basic_string@DU?$char_traits@D@std@@V?$allocator@D@2@@std@@V?$weak_ptr@VRawImageData@@@2@@std@@PAX@1@$$QAU?$pair@V?$basic_string@DU?$char_traits@D@std@@V?$allocator@D@2@@std@@V?$weak_ptr@VRawImageData@@@2@@1@@Z$0 00400000 f   ImageMappingDemo.obj
 0001:fffff000       __unwindfunclet$??$?0VRawImageData@@$0A@@?$shared_ptr@VRawImageData@@@std@@QAE@PAVRawImageData@@@Z$0 00400000 f   ImageMappingDemo.obj
 0001:fffff000       __unwindfunclet$??$?6U?$char_traits@D@std@@@std@@YAAAV?$basic_ostream@DU?$char_traits@D@std@@@0@AAV10@PBD@Z$2 00400000 f   ImageMappingDemo.obj
 0001:fffff000       __unwindfunclet$??$_Construct@$00PBD@?$basic_string@DU?$char_traits@D@std@@V?$allocator@D@2@@std@@AAEXQBDI@Z$0 00400000 f   ImageMappingDemo.obj
 0001:fffff000       __unwindfunclet$??$_Construct@$01PBD@?$basic_string@DU?$char_traits@D@std@@V?$allocator@D@2@@std@@AAEXQBDI@Z$0 00400000 f   ImageMappingDemo.obj
 0001:fffff000       __unwindfunclet$??$_Insert_string@DU?$char_traits@D@std@@I@std@@YAAAV?$basic_ostream@DU?$char_traits@D@std@@@0@AAV10@QBDI@Z$2 00400000 f   ImageMappingDemo.obj
 0001:fffff000       __unwindfunclet$??$_Uninitialized_move@PAPAVDisplayableObject@@V?$allocator@PAVDisplayableObject@@@std@@@std@@YAPAPAVDisplayableObject@@QAPAV1@0PAPAV1@AAV?$allocator@PAVDisplayableObject@@@0@@Z$0 00400000 f   ImageMappingDemo.obj
 0001:fffff000       __unwindfunclet$??$_Uninitialized_value_construct_n@V?$allocator@PAVDisplayableObject@@@std@@@std@@YAPAPAVDisplayableObject@@PAPAV1@IAAV?$allocator@PAVDisplayableObject@@@0@@Z$0 00400000 f   ImageMappingDemo.obj
 0001:fffff000       __unwindfunclet$??0?$_Tree_temp_node_alloc@V?$allocator@U?$_Tree_node@U?$pair@$$CBV?$basic_string@DU?$char_traits@D@std@@V?$allocator@D@2@@std@@V?$shared_ptr@VRawImageData@@@2@@std@@PAX@std@@@std@@@std@@QAE@AAV?$allocator@U?$_Tree_node@U?$pair@$$CBV?$basic_string@DU?$char_traits@D@std@@V?$allocator@D@2@@std@@V?$shared_ptr@VRawImageData@@@2@@std@@PAX@std@@@1@@Z$0 00400000 f   ImageMappingDemo.obj
 0001:fffff000       __unwindfunclet$??0?$_Tree_temp_node_alloc@V?$allocator@U?$_Tree_node@U?$pair@$$CBV?$basic_string@DU?$char_traits@D@std@@V?$allocator@D@2@@std@@V?$weak_ptr@VRawImageData@@@2@@std@@PAX@std@@@std@@@std@@QAE@AAV?$allocator@U?$_Tree_node@U?$pair@$$CBV?$basic_string@DU?$char_traits@D@std@@V?$allocator@D@2@@std@@V?$weak_ptr@VRawImageData@@@2@@std@@PAX@std@@@1@@Z$0 00400000 f   ImageMappingDemo.obj
 0001:fffff000       __unwindfunclet$??0?$basic_string@DU?$char_traits@D@std@@V?$allocator@D@2@@std@@QAE@ABV01@@Z$0 00400000 f   ImageMappingDemo.obj
 0001:fffff000       __unwindfunclet$??0?$basic_string@DU?$char_traits@D@std@@V?$allocator@D@2@@std@@QAE@QBD@Z$0 00400000 f   ImageMappingDemo.obj
 0001:fffff000       __unwindfunclet$??0DragableImageObject@@QAE@HHPAVBaseEngine@@V?$basic_string@DU?$char_traits@D@std@@V?$allocator@D@2@@std@@_N2@Z$0 00400000 f   ImageMappingDemo.obj
 0001:fffff000       __unwindfunclet$??0ImageManager@@QAE@XZ$0 00400000 f   ImageMappingDemo.obj
 0001:fffff000       __unwindfunclet$??0RawImageData@@QAE@V?$basic_string@DU?$char_traits@D@std@@V?$allocator@D@2@@std@@@Z$0 00400000 f   ImageMappingDemo.obj
 0001:fffff000       __unwindfunclet$??0sentry@?$basic_ostream@DU?$char_traits@D@std@@@std@@QAE@AAV12@@Z$0 00400000 f   ImageMappingDemo.obj
 0001:fffff000       __unwindfunclet$?_Alloc_sentinel_and_proxy@?$_Tree@V?$_Tmap_traits@V?$basic_string@DU?$char_traits@D@std@@V?$allocator@D@2@@std@@V?$shared_ptr@VRawImageData@@@2@U?$less@V?$basic_string@DU?$char_traits@D@std@@V?$allocator@D@2@@std@@@2@V?$allocator@U?$pair@$$CBV?$basic_string@DU?$char_traits@D@std@@V?$allocator@D@2@@std@@V?$shared_ptr@VRawImageData@@@2@@std@@@2@$0A@@std@@@std@@IAEXXZ$0 00400000 f   ImageMappingDemo.obj
 0001:fffff000       __unwindfunclet$?_Alloc_sentinel_and_proxy@?$_Tree@V?$_Tmap_traits@V?$basic_string@DU?$char_traits@D@std@@V?$allocator@D@2@@std@@V?$weak_ptr@VRawImageData@@@2@U?$less@V?$basic_string@DU?$char_traits@D@std@@V?$allocator@D@2@@std@@@2@V?$allocator@U?$pair@$$CBV?$basic_string@DU?$char_traits@D@std@@V?$allocator@D@2@@std@@V?$weak_ptr@VRawImageData@@@2@@std@@@2@$0A@@std@@@std@@IAEXXZ$0 00400000 f   ImageMappingDemo.obj
 0001:fffff000       __unwindfunclet$?_Orphan_range_locked@?$vector@PAVDisplayableObject@@V?$allocator@PAVDisplayableObject@@@std@@@std@@ABEXPAPAVDisplayableObject@@0@Z$0 00400000 f   ImageMappingDemo.obj
 0001:fffff000       __unwindfunclet$?get@ImageManager@@SAPAV1@XZ$0 00400000 f   ImageMappingDemo.obj
 0001:fffff000       __unwindfunclet$?getImagePtrbyURL@ImageManager@@QAE?AV?$shared_ptr@VRawImageData@@@std@@V?$basic_string@DU?$char_traits@D@std@@V?$allocator@D@2@@3@_N1@Z$0 00400000 f   ImageMappingDemo.obj
 0001:fffff000       __unwindfunclet$?getImagebyURL@ImageManager@@QAE?AVSimpleImage@@V?$basic_string@DU?$char_traits@D@std@@V?$allocator@D@2@@std@@_N1@Z$0 00400000 f   ImageMappingDemo.obj
 0001:fffff000       __unwindfunclet$?loadAsNew@ImageManager@@QAE?AV?$shared_ptr@VRawImageData@@@std@@V?$basic_string@DU?$char_traits@D@std@@V?$allocator@D@2@@3@@Z$0 00400000 f   ImageMappingDemo.obj
 0001:fffff000       __unwindfunclet$?loadImage@RawImageData@@QAE_NV?$basic_string@DU?$char_traits@D@std@@V?$allocator@D@2@@std@@HHHHH_N@Z$0 00400000 f   ImageMappingDemo.obj
 0002:fffbc000       __unwindtable$??$?0U?$pair@V?$basic_string@DU?$char_traits@D@std@@V?$allocator@D@2@@std@@V?$shared_ptr@VRawImageData@@@2@@std@@@?$_Tree_temp_node@V?$allocator@U?$_Tree_node@U?$pair@$$CBV?$basic_string@DU?$char_traits@D@std@@V?$allocator@D@2@@std@@V?$shared_ptr@VRawImageData@@@2@@std@@PAX@std@@@std@@@std@@QAE@AAV?$allocator@U?$_Tree_node@U?$pair@$$CBV?$basic_string@DU?$char_traits@D@std@@V?$allocator@D@2@@std@@V?$shared_ptr@VRawImageData@@@2@@std@@PAX@std@@@1@PAU?$_Tree_node@U?$pair@$$CBV?$basic_string@DU?$char_traits@D@std@@V?$allocator@D@2@@std@@V?$shared_ptr@VRawImageData@@@2@@std@@PAX@1@$$QAU?$pair@V?$basic_string@DU?$char_traits@D@std@@V?$allocator@D@2@@std@@V?$shared_ptr@VRawImageData@@@2@@1@@Z 00400000     ImageMappingDemo.obj
 0002:fffbc000       __unwindtable$??$?0U?$pair@V?$basic_string@DU?$char_traits@D@std@@V?$allocator@D@2@@std@@V?$weak_ptr@VRawImageData@@@2@@std@@@?$_Tree_temp_node@V?$allocator@U?$_Tree_node@U?$pair@$$CBV?$basic_string@DU?$char_traits@D@std@@V?$allocator@D@2@@std@@V?$weak_ptr@VRawImageData@@@2@@std@@PAX@std@@@std@@@std@@QAE@AAV?$allocator@U?$_Tree_node@U?$pair@$$CBV?$basic_string@DU?$char_traits@D@std@@V?$allocator@D@2@@std@@V?$weak_ptr@VRawImageData@@@2@@std@@PAX@std@@@1@PAU?$_Tree_node@U?$pair@$$CBV?$basic_string@DU?$char_traits@D@std@@V?$allocator@D@2@@std@@V?$weak_ptr@VRawImageData@@@2@@std@@PAX@1@$$QAU?$pair@V?$basic_string@DU?$char_traits@D@std@@V?$allocator@D@2@@std@@V?$weak_ptr@VRawImageData@@@2@@1@@Z 00400000     ImageMappingDemo.obj
 0002:fffbc000       __unwindtable$??$?0VRawImageData@@$0A@@?$shared_ptr@VRawImageData@@@std@@QAE@PAVRawImageData@@@Z 00400000     ImageMappingDemo.obj
 0002:fffbc000       __unwindtable$??$_Construct@$00PBD@?$basic_string@DU?$char_traits@D@std@@V?$allocator@D@2@@std@@AAEXQBDI@Z 00400000     ImageMappingDemo.obj
 0002:fffbc000       __unwindtable$??$_Construct@$01PBD@?$basic_string@DU?$char_traits@D@std@@V?$allocator@D@2@@std@@AAEXQBDI@Z 00400000     ImageMappingDemo.obj
 0002:fffbc000       __unwindtable$??$_Uninitialized_move@PAPAVDisplayableObject@@V?$allocator@PAVDisplayableObject@@@std@@@std@@YAPAPAVDisplayableObject@@QAPAV1@0PAPAV1@AAV?$allocator@PAVDisplayableObject@@@0@@Z 00400000     ImageMappingDemo.obj
 0002:fffbc000       __unwindtable$??$_Uninitialized_value_construct_n@V?$allocator@PAVDisplayableObject@@@std@@@std@@YAPAPAVDisplayableObject@@PAPAV1@IAAV?$allocator@PAVDisplayableObject@@@0@@Z 00400000     ImageMappingDemo.obj
 0002:fffbc000       __unwindtable$??0?$_Tree_temp_node_alloc@V?$allocator@U?$_Tree_node@U?$pair@$$CBV?$basic_string@DU?$char_traits@D@std@@V?$allocator@D@2@@std@@V?$shared_ptr@VRawImageData@@@2@@std@@PAX@std@@@std@@@std@@QAE@AAV?$allocator@U?$_Tree_node@U?$pair@$$CBV?$basic_string@DU?$char_traits@D@std@@V?$allocator@D@2@@std@@V?$shared_ptr@VRawImageData@@@2@@std@@PAX@std@@@1@@Z 00400000     ImageMappingDemo.obj
 0002:fffbc000       __unwindtable$??0?$_Tree_temp_node_alloc@V?$allocator@U?$_Tree_node@U?$pair@$$CBV?$basic_string@DU?$char_traits@D@std@@V?$allocator@D@2@@std@@V?$weak_ptr@VRawImageData@@@2@@std@@PAX@std@@@std@@@std@@QAE@AAV?$allocator@U?$_Tree_node@U?$pair@$$CBV?$basic_string@DU?$char_traits@D@std@@V?$allocator@D@2@@std@@V?$weak_ptr@VRawImageData@@@2@@std@@PAX@std@@@1@@Z 00400000     ImageMappingDemo.obj
 0002:fffbc000       __unwindtable$??0?$basic_string@DU?$char_traits@D@std@@V?$allocator@D@2@@std@@QAE@ABV01@@Z 00400000     ImageMappingDemo.obj
 0002:fffbc000       __unwindtable$??0?$basic_string@DU?$char_traits@D@std@@V?$allocator@D@2@@std@@QAE@QBD@Z 00400000     ImageMappingDemo.obj
 0002:fffbc000       __unwindtable$??0DragableImageObject@@QAE@HHPAVBaseEngine@@V?$basic_string@DU?$char_traits@D@std@@V?$allocator@D@2@@std@@_N2@Z 00400000     ImageMappingDemo.obj
 0002:fffbc000       __unwindtable$??0ImageManager@@QAE@XZ 00400000     ImageMappingDemo.obj
 0002:fffbc000       __unwindtable$??0RawImageData@@QAE@V?$basic_string@DU?$char_traits@D@std@@V?$allocator@D@2@@std@@@Z 00400000     ImageMappingDemo.obj
 0002:fffbc000       __unwindtable$??0sentry@?$basic_ostream@DU?$char_traits@D@std@@@std@@QAE@AAV12@@Z 00400000     ImageMappingDemo.obj
 0002:fffbc000       __unwindtable$?_Alloc_sentinel_and_proxy@?$_Tree@V?$_Tmap_traits@V?$basic_string@DU?$char_traits@D@std@@V?$allocator@D@2@@std@@V?$shared_ptr@VRawImageData@@@2@U?$less@V?$basic_string@DU?$char_traits@D@std@@V?$allocator@D@2@@std@@@2@V?$allocator@U?$pair@$$CBV?$basic_string@DU?$char_traits@D@std@@V?$allocator@D@2@@std@@V?$shared_ptr@VRawImageData@@@2@@std@@@2@$0A@@std@@@std@@IAEXXZ 00400000     ImageMappingDemo.obj
 0002:fffbc000       __unwindtable$?_Alloc_sentinel_and_proxy@?$_Tree@V?$_Tmap_traits@V?$basic_string@DU?$char_traits@D@std@@V?$allocator@D@2@@std@@V?$weak_ptr@VRawImageData@@@2@U?$less@V?$basic_string@DU?$char_traits@D@std@@V?$allocator@D@2@@std@@@2@V?$allocator@U?$pair@$$CBV?$basic_string@DU?$char_traits@D@std@@V?$allocator@D@2@@std@@V?$weak_ptr@VRawImageData@@@2@@std@@@2@$0A@@std@@@std@@IAEXXZ 00400000     ImageMappingDemo.obj
 0002:fffbc000       __unwindtable$?_Orphan_range_locked@?$vector@PAVDisplayableObject@@V?$allocator@PAVDisplayableObject@@@std@@@std@@ABEXPAPAVDisplayableObject@@0@Z 00400000     ImageMappingDemo.obj
 0002:fffbc000       __unwindtable$?get@ImageManager@@SAPAV1@XZ 00400000     ImageMappingDemo.obj
 0002:fffbc000       __unwindtable$?getImagebyURL@ImageManager@@QAE?AVSimpleImage@@V?$basic_string@DU?$char_traits@D@std@@V?$allocator@D@2@@std@@_N1@Z 00400000     ImageMappingDemo.obj
 0002:fffbc000       __unwindtable$?loadAsNew@ImageManager@@QAE?AV?$shared_ptr@VRawImageData@@@std@@V?$basic_string@DU?$char_traits@D@std@@V?$allocator@D@2@@3@@Z 00400000     ImageMappingDemo.obj
 0002:fffbc000       __unwindtable$?loadImage@RawImageData@@QAE_NV?$basic_string@DU?$char_traits@D@std@@V?$allocator@D@2@@std@@HHHHH_N@Z 00400000     ImageMappingDemo.obj
 0000:00000000       _volmd                     00400000     ImageMappingDemo.obj
 0000:00000000       _volmd                     00400000     ImageMappingDemo.obj
 0000:00000000       _volmd                     00400000     ImageMappingDemo.obj
 0000:00000000       _volmd                     00400000     ImageMappingDemo.obj
 0000:00000000       _volmd                     00400000     ImageMappingDemo.obj
 0000:00000000       _volmd                     00400000     ImageMappingDemo.obj
 0000:00000000       _volmd                     00400000     ImageMappingDemo.obj
 0000:00000000       _volmd                     00400000     ImageMappingDemo.obj
 0000:00000000       _volmd                     00400000     ImageMappingDemo.obj
 0000:00000000       _volmd                     00400000     ImageMappingDemo.obj
 0000:00000000       _volmd                     00400000     ImageMappingDemo.obj
 0000:00000000       _volmd                     00400000     ImageMappingDemo.obj
 0000:00000000       _volmd                     00400000     ImageMappingDemo.obj
 0000:00000000       _volmd                     00400000     ImageMappingDemo.obj
 0000:00000000       _volmd                     00400000     ImageMappingDemo.obj
 0000:00000000       _volmd                     00400000     ImageMappingDemo.obj
 0000:00000000       _volmd                     00400000     ImageMappingDemo.obj
 0000:00000000       _volmd                     00400000     ImageMappingDemo.obj
 0000:00000000       _volmd                     00400000     ImageMappingDemo.obj
 0000:00000000       _volmd                     00400000     ImageMappingDemo.obj
 0000:00000000       _volmd                     00400000     ImageMappingDemo.obj
 0000:00000000       _volmd                     00400000     ImageMappingDemo.obj
 0000:00000000       _volmd                     00400000     ImageMappingDemo.obj
 0000:00000000       _volmd                     00400000     ImageMappingDemo.obj
 0000:00000000       _volmd                     00400000     ImageMappingDemo.obj
 0000:00000000       _volmd                     00400000     ImageMappingDemo.obj
 0000:00000000       _volmd                     00400000     ImageMappingDemo.obj
 0000:00000000       _volmd                     00400000     ImageMappingDemo.obj
 0000:00000000       _volmd                     00400000     ImageMappingDemo.obj
 0000:00000000       _volmd                     00400000     ImageMappingDemo.obj
 0000:00000000       _volmd                     00400000     ImageMappingDemo.obj
 0000:00000000       _volmd                     00400000     ImageMappingDemo.obj
 0000:00000000       _volmd                     00400000     ImageMappingDemo.obj
 0000:00000000       _volmd                     00400000     ImageMappingDemo.obj
 0000:00000000       _volmd                     00400000     ImageMappingDemo.obj
 0000:00000000       _volmd                     00400000     ImageMappingDemo.obj
 0000:00000000       _volmd                     00400000     ImageMappingDemo.obj
 0000:00000000       _volmd                     00400000     ImageMappingDemo.obj
 0000:00000000       _volmd                     00400000     ImageMappingDemo.obj
 0000:00000000       _volmd                     00400000     ImageMappingDemo.obj
 0000:00000000       _volmd                     00400000     ImageMappingDemo.obj
 0000:00000000       _volmd                     00400000     ImageMappingDemo.obj
 0002:fffbc000       __catchsym$??$_Resize_reallocate@U_Value_init_tag@std@@@?$vector@PAVDisplayableObject@@V?$allocator@PAVDisplayableObject@@@std@@@std@@AAEXIABU_Value_init_tag@1@@Z$2 00400000     MazeDemoMain.obj
 0002:fffbc000       __ehfuncinfo$??$_Deallocate@$07$0A@@std@@YAXPAXI@Z 00400000     MazeDemoMain.obj
 0001:fffff000       __ehhandler$??$_Deallocate@$07$0A@@std@@YAXPAXI@Z 00400000 f   MazeDemoMain.obj
 0001:fffff000       __ehhandler$??$_Resize_reallocate@U_Value_init_tag@std@@@?$vector@PAVDisplayableObject@@V?$allocator@PAVDisplayableObject@@@std@@@std@@AAEXIABU_Value_init_tag@1@@Z 00400000 f   MazeDemoMain.obj
 0001:fffff000       __unwindfunclet$??$_Uninitialized_move@PAPAVDisplayableObject@@V?$allocator@PAVDisplayableObject@@@std@@@std@@YAPAPAVDisplayableObject@@QAPAV1@0PAPAV1@AAV?$allocator@PAVDisplayableObject@@@0@@Z$0 00400000 f   MazeDemoMain.obj
 0001:fffff000       __unwindfunclet$??$_Uninitialized_value_construct_n@V?$allocator@PAVDisplayableObject@@@std@@@std@@YAPAPAVDisplayableObject@@PAPAV1@IAAV?$allocator@PAVDisplayableObject@@@0@@Z$0 00400000 f   MazeDemoMain.obj
 0001:fffff000       __unwindfunclet$?_Orphan_range_locked@?$vector@PAVDisplayableObject@@V?$allocator@PAVDisplayableObject@@@std@@@std@@ABEXPAPAVDisplayableObject@@0@Z$0 00400000 f   MazeDemoMain.obj
 0001:fffff000       __unwindfunclet$?setAllObjectsVisible@DisplayableObjectContainer@@QBEX_N@Z$0 00400000 f   MazeDemoMain.obj
 0002:fffbc000       __unwindtable$??$_Uninitialized_move@PAPAVDisplayableObject@@V?$allocator@PAVDisplayableObject@@@std@@@std@@YAPAPAVDisplayableObject@@QAPAV1@0PAPAV1@AAV?$allocator@PAVDisplayableObject@@@0@@Z 00400000     MazeDemoMain.obj
 0002:fffbc000       __unwindtable$??$_Uninitialized_value_construct_n@V?$allocator@PAVDisplayableObject@@@std@@@std@@YAPAPAVDisplayableObject@@PAPAV1@IAAV?$allocator@PAVDisplayableObject@@@0@@Z 00400000     MazeDemoMain.obj
 0002:fffbc000       __unwindtable$?_Orphan_range_locked@?$vector@PAVDisplayableObject@@V?$allocator@PAVDisplayableObject@@@std@@@std@@ABEXPAPAVDisplayableObject@@0@Z 00400000     MazeDemoMain.obj
 0002:fffbc000       __unwindtable$?setAllObjectsVisible@DisplayableObjectContainer@@QBEX_N@Z 00400000     MazeDemoMain.obj
 0000:00000000       _volmd                     00400000     MazeDemoMain.obj
 0000:00000000       _volmd                     00400000     MazeDemoMain.obj
 0000:00000000       _volmd                     00400000     MazeDemoMain.obj
 0000:00000000       _volmd                     00400000     MazeDemoMain.obj
 0000:00000000       _volmd                     00400000     MazeDemoMain.obj
 0000:00000000       _volmd                     00400000     MazeDemoMain.obj
 0000:00000000       _volmd                     00400000     MazeDemoMain.obj
 0000:00000000       _volmd                     00400000     MazeDemoMain.obj
 0000:00000000       _volmd                     00400000     MazeDemoObject.obj
 0002:fffbc000       __catchsym$??$?6U?$char_traits@D@std@@@std@@YAAAV?$basic_ostream@DU?$char_traits@D@std@@@0@AAV10@PBD@Z$3 00400000     MyDemoA.obj
 0002:fffbc000       __catchsym$??$_Insert_string@DU?$char_traits@D@std@@I@std@@YAAAV?$basic_ostream@DU?$char_traits@D@std@@@0@AAV10@QBDI@Z$3 00400000     MyDemoA.obj
 0002:fffbc000       __catchsym$??$_Resize_reallocate@U_Value_init_tag@std@@@?$vector@PAVDisplayableObject@@V?$allocator@PAVDisplayableObject@@@std@@@std@@AAEXIABU_Value_init_tag@1@@Z$2 00400000     MyDemoA.obj
 0002:fffbc000       __ehfuncinfo$??$_Deallocate@$07$0A@@std@@YAXPAXI@Z 00400000     MyDemoA.obj
 0002:fffbc000       __ehfuncinfo$??$_Deallocate_plain@V?$allocator@U_Container_proxy@std@@@std@@@std@@YAXAAV?$allocator@U_Container_proxy@std@@@0@QAU_Container_proxy@0@@Z 00400000     MyDemoA.obj
 0002:fffbc000       __ehfuncinfo$??$_Freenode0@V?$allocator@U?$_Tree_node@U?$pair@$$CBV?$basic_string@DU?$char_traits@D@std@@V?$allocator@D@2@@std@@V?$weak_ptr@VRawImageData@@@2@@std@@PAX@std@@@std@@@?$_Tree_node@U?$pair@$$CBV?$basic_string@DU?$char_traits@D@std@@V?$allocator@D@2@@std@@V?$weak_ptr@VRawImageData@@@2@@std@@PAX@std@@SAXAAV?$allocator@U?$_Tree_node@U?$pair@$$CBV?$basic_string@DU?$char_traits@D@std@@V?$allocator@D@2@@std@@V?$weak_ptr@VRawImageData@@@2@@std@@PAX@std@@@1@PAU01@@Z 00400000     MyDemoA.obj
 0002:fffbc000       __ehfuncinfo$??$_Freenode@V?$allocator@U?$_Tree_node@U?$pair@$$CBV?$basic_string@DU?$char_traits@D@std@@V?$allocator@D@2@@std@@V?$weak_ptr@VRawImageData@@@2@@std@@PAX@std@@@std@@@?$_Tree_node@U?$pair@$$CBV?$basic_string@DU?$char_traits@D@std@@V?$allocator@D@2@@std@@V?$weak_ptr@VRawImageData@@@2@@std@@PAX@std@@SAXAAV?$allocator@U?$_Tree_node@U?$pair@$$CBV?$basic_string@DU?$char_traits@D@std@@V?$allocator@D@2@@std@@V?$weak_ptr@VRawImageData@@@2@@std@@PAX@std@@@1@PAU01@@Z 00400000     MyDemoA.obj
 0002:fffbc000       __ehfuncinfo$??0?$basic_string@DU?$char_traits@D@std@@V?$allocator@D@2@@std@@QAE@$$QAV01@@Z 00400000     MyDemoA.obj
 0002:fffbc000       __ehfuncinfo$??1?$_Alloc_construct_ptr@V?$allocator@U?$_Tree_node@U?$pair@$$CBV?$basic_string@DU?$char_traits@D@std@@V?$allocator@D@2@@std@@V?$shared_ptr@VRawImageData@@@2@@std@@PAX@std@@@std@@@std@@QAE@XZ 00400000     MyDemoA.obj
 0002:fffbc000       __ehfuncinfo$??1?$_Alloc_construct_ptr@V?$allocator@U?$_Tree_node@U?$pair@$$CBV?$basic_string@DU?$char_traits@D@std@@V?$allocator@D@2@@std@@V?$weak_ptr@VRawImageData@@@2@@std@@PAX@std@@@std@@@std@@QAE@XZ 00400000     MyDemoA.obj
 0002:fffbc000       __ehfuncinfo$??1?$_Tree_temp_node@V?$allocator@U?$_Tree_node@U?$pair@$$CBV?$basic_string@DU?$char_traits@D@std@@V?$allocator@D@2@@std@@V?$shared_ptr@VRawImageData@@@2@@std@@PAX@std@@@std@@@std@@QAE@XZ 00400000     MyDemoA.obj
 0002:fffbc000       __ehfuncinfo$??1?$_Tree_temp_node@V?$allocator@U?$_Tree_node@U?$pair@$$CBV?$basic_string@DU?$char_traits@D@std@@V?$allocator@D@2@@std@@V?$weak_ptr@VRawImageData@@@2@@std@@PAX@std@@@std@@@std@@QAE@XZ 00400000     MyDemoA.obj
 0002:fffbc000       __ehfuncinfo$??1RawImageData@@QAE@XZ 00400000     MyDemoA.obj
 0002:fffbc000       __ehfuncinfo$??1_Sentry_base@?$basic_ostream@DU?$char_traits@D@std@@@std@@QAE@XZ 00400000     MyDemoA.obj
 0002:fffbc000       __ehfuncinfo$?_Deallocate_for_capacity@?$basic_string@DU?$char_traits@D@std@@V?$allocator@D@2@@std@@CAXAAV?$allocator@D@2@QADI@Z 00400000     MyDemoA.obj
 0002:fffbc000       __ehfuncinfo$?getImagePtrbyURL@ImageManager@@QAE?AV?$shared_ptr@VRawImageData@@@std@@V?$basic_string@DU?$char_traits@D@std@@V?$allocator@D@2@@3@_N1@Z 00400000     MyDemoA.obj
 0001:fffff000       __ehhandler$??$_Deallocate@$07$0A@@std@@YAXPAXI@Z 00400000 f   MyDemoA.obj
 0001:fffff000       __ehhandler$??$_Deallocate_plain@V?$allocator@U_Container_proxy@std@@@std@@@std@@YAXAAV?$allocator@U_Container_proxy@std@@@0@QAU_Container_proxy@0@@Z 00400000 f   MyDemoA.obj
 0001:fffff000       __ehhandler$??$_Freenode0@V?$allocator@U?$_Tree_node@U?$pair@$$CBV?$basic_string@DU?$char_traits@D@std@@V?$allocator@D@2@@std@@V?$weak_ptr@VRawImageData@@@2@@std@@PAX@std@@@std@@@?$_Tree_node@U?$pair@$$CBV?$basic_string@DU?$char_traits@D@std@@V?$allocator@D@2@@std@@V?$weak_ptr@VRawImageData@@@2@@std@@PAX@std@@SAXAAV?$allocator@U?$_Tree_node@U?$pair@$$CBV?$basic_string@DU?$char_traits@D@std@@V?$allocator@D@2@@std@@V?$weak_ptr@VRawImageData@@@2@@std@@PAX@std@@@1@PAU01@@Z 00400000 f   MyDemoA.obj
 0001:fffff000       __ehhandler$??$_Freenode@V?$allocator@U?$_Tree_node@U?$pair@$$CBV?$basic_string@DU?$char_traits@D@std@@V?$allocator@D@2@@std@@V?$weak_ptr@VRawImageData@@@2@@std@@PAX@std@@@std@@@?$_Tree_node@U?$pair@$$CBV?$basic_string@DU?$char_traits@D@std@@V?$allocator@D@2@@std@@V?$weak_ptr@VRawImageData@@@2@@std@@PAX@std@@SAXAAV?$allocator@U?$_Tree_node@U?$pair@$$CBV?$basic_string@DU?$char_traits@D@std@@V?$allocator@D@2@@std@@V?$weak_ptr@VRawImageData@@@2@@std@@PAX@std@@@1@PAU01@@Z 00400000 f   MyDemoA.obj
 0001:fffff000       __ehhandler$??$_Resize_reallocate@U_Value_init_tag@std@@@?$vector@PAVDisplayableObject@@V?$allocator@PAVDisplayableObject@@@std@@@std@@AAEXIABU_Value_init_tag@1@@Z 00400000 f   MyDemoA.obj
 0001:fffff000       __ehhandler$??0?$basic_string@DU?$char_traits@D@std@@V?$allocator@D@2@@std@@QAE@$$QAV01@@Z 00400000 f   MyDemoA.obj
 0001:fffff000       __ehhandler$??1?$_Alloc_construct_ptr@V?$allocator@U?$_Tree_node@U?$pair@$$CBV?$basic_string@DU?$char_traits@D@std@@V?$allocator@D@2@@std@@V?$shared_ptr@VRawImageData@@@2@@std@@PAX@std@@@std@@@std@@QAE@XZ 00400000 f   MyDemoA.obj
 0001:fffff000       __ehhandler$??1?$_Alloc_construct_ptr@V?$allocator@U?$_Tree_node@U?$pair@$$CBV?$basic_string@DU?$char_traits@D@std@@V?$allocator@D@2@@std@@V?$weak_ptr@VRawImageData@@@2@@std@@PAX@std@@@std@@@std@@QAE@XZ 00400000 f   MyDemoA.obj
 0001:fffff000       __ehhandler$??1?$_Tree_temp_node@V?$allocator@U?$_Tree_node@U?$pair@$$CBV?$basic_string@DU?$char_traits@D@std@@V?$allocator@D@2@@std@@V?$shared_ptr@VRawImageData@@@2@@std@@PAX@std@@@std@@@std@@QAE@XZ 00400000 f   MyDemoA.obj
 0001:fffff000       __ehhandler$??1?$_Tree_temp_node@V?$allocator@U?$_Tree_node@U?$pair@$$CBV?$basic_string@DU?$char_traits@D@std@@V?$allocator@D@2@@std@@V?$weak_ptr@VRawImageData@@@2@@std@@PAX@std@@@std@@@std@@QAE@XZ 00400000 f   MyDemoA.obj
 0001:fffff000       __ehhandler$??1RawImageData@@QAE@XZ 00400000 f   MyDemoA.obj
 0001:fffff000       __ehhandler$??1_Sentry_base@?$basic_ostream@DU?$char_traits@D@std@@@std@@QAE@XZ 00400000 f   MyDemoA.obj
 0001:fffff000       __ehhandler$?_Deallocate_for_capacity@?$basic_string@DU?$char_traits@D@std@@V?$allocator@D@2@@std@@CAXAAV?$allocator@D@2@QADI@Z 00400000 f   MyDemoA.obj
 0001:fffff000       __unwindfunclet$??$?0U?$pair@V?$basic_string@DU?$char_traits@D@std@@V?$allocator@D@2@@std@@V?$shared_ptr@VRawImageData@@@2@@std@@@?$_Tree_temp_node@V?$allocator@U?$_Tree_node@U?$pair@$$CBV?$basic_string@DU?$char_traits@D@std@@V?$allocator@D@2@@std@@V?$shared_ptr@VRawImageData@@@2@@std@@PAX@std@@@std@@@std@@QAE@AAV?$allocator@U?$_Tree_node@U?$pair@$$CBV?$basic_string@DU?$char_traits@D@std@@V?$allocator@D@2@@std@@V?$shared_ptr@VRawImageData@@@2@@std@@PAX@std@@@1@PAU?$_Tree_node@U?$pair@$$CBV?$basic_string@DU?$char_traits@D@std@@V?$allocator@D@2@@std@@V?$shared_ptr@VRawImageData@@@2@@std@@PAX@1@$$QAU?$pair@V?$basic_string@DU?$char_traits@D@std@@V?$allocator@D@2@@std@@V?$shared_ptr@VRawImageData@@@2@@1@@Z$0 00400000 f   MyDemoA.obj
 0001:fffff000       __unwindfunclet$??$?0U?$pair@V?$basic_string@DU?$char_traits@D@std@@V?$allocator@D@2@@std@@V?$weak_ptr@VRawImageData@@@2@@std@@@?$_Tree_temp_node@V?$allocator@U?$_Tree_node@U?$pair@$$CBV?$basic_string@DU?$char_traits@D@std@@V?$allocator@D@2@@std@@V?$weak_ptr@VRawImageData@@@2@@std@@PAX@std@@@std@@@std@@QAE@AAV?$allocator@U?$_Tree_node@U?$pair@$$CBV?$basic_string@DU?$char_traits@D@std@@V?$allocator@D@2@@std@@V?$weak_ptr@VRawImageData@@@2@@std@@PAX@std@@@1@PAU?$_Tree_node@U?$pair@$$CBV?$basic_string@DU?$char_traits@D@std@@V?$allocator@D@2@@std@@V?$weak_ptr@VRawImageData@@@2@@std@@PAX@1@$$QAU?$pair@V?$basic_string@DU?$char_traits@D@std@@V?$allocator@D@2@@std@@V?$weak_ptr@VRawImageData@@@2@@1@@Z$0 00400000 f   MyDemoA.obj
 0001:fffff000       __unwindfunclet$??$?0VRawImageData@@$0A@@?$shared_ptr@VRawImageData@@@std@@QAE@PAVRawImageData@@@Z$0 00400000 f   MyDemoA.obj
 0001:fffff000       __unwindfunclet$??$?6U?$char_traits@D@std@@@std@@YAAAV?$basic_ostream@DU?$char_traits@D@std@@@0@AAV10@PBD@Z$2 00400000 f   MyDemoA.obj
 0001:fffff000       __unwindfunclet$??$_Construct@$00PBD@?$basic_string@DU?$char_traits@D@std@@V?$allocator@D@2@@std@@AAEXQBDI@Z$0 00400000 f   MyDemoA.obj
 0001:fffff000       __unwindfunclet$??$_Construct@$01PBD@?$basic_string@DU?$char_traits@D@std@@V?$allocator@D@2@@std@@AAEXQBDI@Z$0 00400000 f   MyDemoA.obj
 0001:fffff000       __unwindfunclet$??$_Insert_string@DU?$char_traits@D@std@@I@std@@YAAAV?$basic_ostream@DU?$char_traits@D@std@@@0@AAV10@QBDI@Z$2 00400000 f   MyDemoA.obj
 0001:fffff000       __unwindfunclet$??$_Uninitialized_move@PAPAVDisplayableObject@@V?$allocator@PAVDisplayableObject@@@std@@@std@@YAPAPAVDisplayableObject@@QAPAV1@0PAPAV1@AAV?$allocator@PAVDisplayableObject@@@0@@Z$0 00400000 f   MyDemoA.obj
 0001:fffff000       __unwindfunclet$??$_Uninitialized_value_construct_n@V?$allocator@PAVDisplayableObject@@@std@@@std@@YAPAPAVDisplayableObject@@PAPAV1@IAAV?$allocator@PAVDisplayableObject@@@0@@Z$0 00400000 f   MyDemoA.obj
 0001:fffff000       __unwindfunclet$??0?$_Tree_temp_node_alloc@V?$allocator@U?$_Tree_node@U?$pair@$$CBV?$basic_string@DU?$char_traits@D@std@@V?$allocator@D@2@@std@@V?$shared_ptr@VRawImageData@@@2@@std@@PAX@std@@@std@@@std@@QAE@AAV?$allocator@U?$_Tree_node@U?$pair@$$CBV?$basic_string@DU?$char_traits@D@std@@V?$allocator@D@2@@std@@V?$shared_ptr@VRawImageData@@@2@@std@@PAX@std@@@1@@Z$0 00400000 f   MyDemoA.obj
 0001:fffff000       __unwindfunclet$??0?$_Tree_temp_node_alloc@V?$allocator@U?$_Tree_node@U?$pair@$$CBV?$basic_string@DU?$char_traits@D@std@@V?$allocator@D@2@@std@@V?$weak_ptr@VRawImageData@@@2@@std@@PAX@std@@@std@@@std@@QAE@AAV?$allocator@U?$_Tree_node@U?$pair@$$CBV?$basic_string@DU?$char_traits@D@std@@V?$allocator@D@2@@std@@V?$weak_ptr@VRawImageData@@@2@@std@@PAX@std@@@1@@Z$0 00400000 f   MyDemoA.obj
 0001:fffff000       __unwindfunclet$??0?$basic_string@DU?$char_traits@D@std@@V?$allocator@D@2@@std@@QAE@ABV01@@Z$0 00400000 f   MyDemoA.obj
 0001:fffff000       __unwindfunclet$??0?$basic_string@DU?$char_traits@D@std@@V?$allocator@D@2@@std@@QAE@QBD@Z$0 00400000 f   MyDemoA.obj
 0001:fffff000       __unwindfunclet$??0ImageManager@@QAE@XZ$0 00400000 f   MyDemoA.obj
 0001:fffff000       __unwindfunclet$??0RawImageData@@QAE@V?$basic_string@DU?$char_traits@D@std@@V?$allocator@D@2@@std@@@Z$0 00400000 f   MyDemoA.obj
 0001:fffff000       __unwindfunclet$??0sentry@?$basic_ostream@DU?$char_traits@D@std@@@std@@QAE@AAV12@@Z$0 00400000 f   MyDemoA.obj
 0001:fffff000       __unwindfunclet$?_Alloc_sentinel_and_proxy@?$_Tree@V?$_Tmap_traits@V?$basic_string@DU?$char_traits@D@std@@V?$allocator@D@2@@std@@V?$shared_ptr@VRawImageData@@@2@U?$less@V?$basic_string@DU?$char_traits@D@std@@V?$allocator@D@2@@std@@@2@V?$allocator@U?$pair@$$CBV?$basic_string@DU?$char_traits@D@std@@V?$allocator@D@2@@std@@V?$shared_ptr@VRawImageData@@@2@@std@@@2@$0A@@std@@@std@@IAEXXZ$0 00400000 f   MyDemoA.obj
 0001:fffff000       __unwindfunclet$?_Alloc_sentinel_and_proxy@?$_Tree@V?$_Tmap_traits@V?$basic_string@DU?$char_traits@D@std@@V?$allocator@D@2@@std@@V?$weak_ptr@VRawImageData@@@2@U?$less@V?$basic_string@DU?$char_traits@D@std@@V?$allocator@D@2@@std@@@2@V?$allocator@U?$pair@$$CBV?$basic_string@DU?$char_traits@D@std@@V?$allocator@D@2@@std@@V?$weak_ptr@VRawImageData@@@2@@std@@@2@$0A@@std@@@std@@IAEXXZ$0 00400000 f   MyDemoA.obj
 0001:fffff000       __unwindfunclet$?_Orphan_range_locked@?$vector@PAVDisplayableObject@@V?$allocator@PAVDisplayableObject@@@std@@@std@@ABEXPAPAVDisplayableObject@@0@Z$0 00400000 f   MyDemoA.obj
 0001:fffff000       __unwindfunclet$?get@ImageManager@@SAPAV1@XZ$0 00400000 f   MyDemoA.obj
 0001:fffff000       __unwindfunclet$?getImagePtrbyURL@ImageManager@@QAE?AV?$shared_ptr@VRawImageData@@@std@@V?$basic_string@DU?$char_traits@D@std@@V?$allocator@D@2@@3@_N1@Z$0 00400000 f   MyDemoA.obj
 0001:fffff000       __unwindfunclet$?getImagebyURL@ImageManager@@QAE?AVSimpleImage@@V?$basic_string@DU?$char_traits@D@std@@V?$allocator@D@2@@std@@_N1@Z$0 00400000 f   MyDemoA.obj
 0001:fffff000       __unwindfunclet$?loadAsNew@ImageManager@@QAE?AV?$shared_ptr@VRawImageData@@@std@@V?$basic_string@DU?$char_traits@D@std@@V?$allocator@D@2@@3@@Z$0 00400000 f   MyDemoA.obj
 0001:fffff000       __unwindfunclet$?loadImage@ImageManager@@SA?AVSimpleImage@@V?$basic_string@DU?$char_traits@D@std@@V?$allocator@D@2@@std@@_N@Z$0 00400000 f   MyDemoA.obj
 0001:fffff000       __unwindfunclet$?loadImage@RawImageData@@QAE_NV?$basic_string@DU?$char_traits@D@std@@V?$allocator@D@2@@std@@HHHHH_N@Z$0 00400000 f   MyDemoA.obj
 0001:fffff000       __unwindfunclet$?setAllObjectsVisible@DisplayableObjectContainer@@QBEX_N@Z$0 00400000 f   MyDemoA.obj
 0002:fffbc000       __unwindtable$??$?0U?$pair@V?$basic_string@DU?$char_traits@D@std@@V?$allocator@D@2@@std@@V?$shared_ptr@VRawImageData@@@2@@std@@@?$_Tree_temp_node@V?$allocator@U?$_Tree_node@U?$pair@$$CBV?$basic_string@DU?$char_traits@D@std@@V?$allocator@D@2@@std@@V?$shared_ptr@VRawImageData@@@2@@std@@PAX@std@@@std@@@std@@QAE@AAV?$allocator@U?$_Tree_node@U?$pair@$$CBV?$basic_string@DU?$char_traits@D@std@@V?$allocator@D@2@@std@@V?$shared_ptr@VRawImageData@@@2@@std@@PAX@std@@@1@PAU?$_Tree_node@U?$pair@$$CBV?$basic_string@DU?$char_traits@D@std@@V?$allocator@D@2@@std@@V?$shared_ptr@VRawImageData@@@2@@std@@PAX@1@$$QAU?$pair@V?$basic_string@DU?$char_traits@D@std@@V?$allocator@D@2@@std@@V?$shared_ptr@VRawImageData@@@2@@1@@Z 00400000     MyDemoA.obj
 0002:fffbc000       __unwindtable$??$?0U?$pair@V?$basic_string@DU?$char_traits@D@std@@V?$allocator@D@2@@std@@V?$weak_ptr@VRawImageData@@@2@@std@@@?$_Tree_temp_node@V?$allocator@U?$_Tree_node@U?$pair@$$CBV?$basic_string@DU?$char_traits@D@std@@V?$allocator@D@2@@std@@V?$weak_ptr@VRawImageData@@@2@@std@@PAX@std@@@std@@@std@@QAE@AAV?$allocator@U?$_Tree_node@U?$pair@$$CBV?$basic_string@DU?$char_traits@D@std@@V?$allocator@D@2@@std@@V?$weak_ptr@VRawImageData@@@2@@std@@PAX@std@@@1@PAU?$_Tree_node@U?$pair@$$CBV?$basic_string@DU?$char_traits@D@std@@V?$allocator@D@2@@std@@V?$weak_ptr@VRawImageData@@@2@@std@@PAX@1@$$QAU?$pair@V?$basic_string@DU?$char_traits@D@std@@V?$allocator@D@2@@std@@V?$weak_ptr@VRawImageData@@@2@@1@@Z 00400000     MyDemoA.obj
 0002:fffbc000       __unwindtable$??$?0VRawImageData@@$0A@@?$shared_ptr@VRawImageData@@@std@@QAE@PAVRawImageData@@@Z 00400000     MyDemoA.obj
 0002:fffbc000       __unwindtable$??$_Construct@$00PBD@?$basic_string@DU?$char_traits@D@std@@V?$allocator@D@2@@std@@AAEXQBDI@Z 00400000     MyDemoA.obj
 0002:fffbc000       __unwindtable$??$_Construct@$01PBD@?$basic_string@DU?$char_traits@D@std@@V?$allocator@D@2@@std@@AAEXQBDI@Z 00400000     MyDemoA.obj
 0002:fffbc000       __unwindtable$??$_Uninitialized_move@PAPAVDisplayableObject@@V?$allocator@PAVDisplayableObject@@@std@@@std@@YAPAPAVDisplayableObject@@QAPAV1@0PAPAV1@AAV?$allocator@PAVDisplayableObject@@@0@@Z 00400000     MyDemoA.obj
 0002:fffbc000       __unwindtable$??$_Uninitialized_value_construct_n@V?$allocator@PAVDisplayableObject@@@std@@@std@@YAPAPAVDisplayableObject@@PAPAV1@IAAV?$allocator@PAVDisplayableObject@@@0@@Z 00400000     MyDemoA.obj
 0002:fffbc000       __unwindtable$??0?$_Tree_temp_node_alloc@V?$allocator@U?$_Tree_node@U?$pair@$$CBV?$basic_string@DU?$char_traits@D@std@@V?$allocator@D@2@@std@@V?$shared_ptr@VRawImageData@@@2@@std@@PAX@std@@@std@@@std@@QAE@AAV?$allocator@U?$_Tree_node@U?$pair@$$CBV?$basic_string@DU?$char_traits@D@std@@V?$allocator@D@2@@std@@V?$shared_ptr@VRawImageData@@@2@@std@@PAX@std@@@1@@Z 00400000     MyDemoA.obj
 0002:fffbc000       __unwindtable$??0?$_Tree_temp_node_alloc@V?$allocator@U?$_Tree_node@U?$pair@$$CBV?$basic_string@DU?$char_traits@D@std@@V?$allocator@D@2@@std@@V?$weak_ptr@VRawImageData@@@2@@std@@PAX@std@@@std@@@std@@QAE@AAV?$allocator@U?$_Tree_node@U?$pair@$$CBV?$basic_string@DU?$char_traits@D@std@@V?$allocator@D@2@@std@@V?$weak_ptr@VRawImageData@@@2@@std@@PAX@std@@@1@@Z 00400000     MyDemoA.obj
 0002:fffbc000       __unwindtable$??0?$basic_string@DU?$char_traits@D@std@@V?$allocator@D@2@@std@@QAE@ABV01@@Z 00400000     MyDemoA.obj
 0002:fffbc000       __unwindtable$??0?$basic_string@DU?$char_traits@D@std@@V?$allocator@D@2@@std@@QAE@QBD@Z 00400000     MyDemoA.obj
 0002:fffbc000       __unwindtable$??0ImageManager@@QAE@XZ 00400000     MyDemoA.obj
 0002:fffbc000       __unwindtable$??0RawImageData@@QAE@V?$basic_string@DU?$char_traits@D@std@@V?$allocator@D@2@@std@@@Z 00400000     MyDemoA.obj
 0002:fffbc000       __unwindtable$??0sentry@?$basic_ostream@DU?$char_traits@D@std@@@std@@QAE@AAV12@@Z 00400000     MyDemoA.obj
 0002:fffbc000       __unwindtable$?_Alloc_sentinel_and_proxy@?$_Tree@V?$_Tmap_traits@V?$basic_string@DU?$char_traits@D@std@@V?$allocator@D@2@@std@@V?$shared_ptr@VRawImageData@@@2@U?$less@V?$basic_string@DU?$char_traits@D@std@@V?$allocator@D@2@@std@@@2@V?$allocator@U?$pair@$$CBV?$basic_string@DU?$char_traits@D@std@@V?$allocator@D@2@@std@@V?$shared_ptr@VRawImageData@@@2@@std@@@2@$0A@@std@@@std@@IAEXXZ 00400000     MyDemoA.obj
 0002:fffbc000       __unwindtable$?_Alloc_sentinel_and_proxy@?$_Tree@V?$_Tmap_traits@V?$basic_string@DU?$char_traits@D@std@@V?$allocator@D@2@@std@@V?$weak_ptr@VRawImageData@@@2@U?$less@V?$basic_string@DU?$char_traits@D@std@@V?$allocator@D@2@@std@@@2@V?$allocator@U?$pair@$$CBV?$basic_string@DU?$char_traits@D@std@@V?$allocator@D@2@@std@@V?$weak_ptr@VRawImageData@@@2@@std@@@2@$0A@@std@@@std@@IAEXXZ 00400000     MyDemoA.obj
 0002:fffbc000       __unwindtable$?_Orphan_range_locked@?$vector@PAVDisplayableObject@@V?$allocator@PAVDisplayableObject@@@std@@@std@@ABEXPAPAVDisplayableObject@@0@Z 00400000     MyDemoA.obj
 0002:fffbc000       __unwindtable$?get@ImageManager@@SAPAV1@XZ 00400000     MyDemoA.obj
 0002:fffbc000       __unwindtable$?getImagebyURL@ImageManager@@QAE?AVSimpleImage@@V?$basic_string@DU?$char_traits@D@std@@V?$allocator@D@2@@std@@_N1@Z 00400000     MyDemoA.obj
 0002:fffbc000       __unwindtable$?loadAsNew@ImageManager@@QAE?AV?$shared_ptr@VRawImageData@@@std@@V?$basic_string@DU?$char_traits@D@std@@V?$allocator@D@2@@3@@Z 00400000     MyDemoA.obj
 0002:fffbc000       __unwindtable$?loadImage@ImageManager@@SA?AVSimpleImage@@V?$basic_string@DU?$char_traits@D@std@@V?$allocator@D@2@@std@@_N@Z 00400000     MyDemoA.obj
 0002:fffbc000       __unwindtable$?loadImage@RawImageData@@QAE_NV?$basic_string@DU?$char_traits@D@std@@V?$allocator@D@2@@std@@HHHHH_N@Z 00400000     MyDemoA.obj
 0002:fffbc000       __unwindtable$?setAllObjectsVisible@DisplayableObjectContainer@@QBEX_N@Z 00400000     MyDemoA.obj
 0000:00000000       _volmd                     00400000     MyDemoA.obj
 0000:00000000       _volmd                     00400000     MyDemoA.obj
 0000:00000000       _volmd                     00400000     MyDemoA.obj
 0000:00000000       _volmd                     00400000     MyDemoA.obj
 0000:00000000       _volmd                     00400000     MyDemoA.obj
 0000:00000000       _volmd                     00400000     MyDemoA.obj
 0000:00000000       _volmd                     00400000     MyDemoA.obj
 0000:00000000       _volmd                     00400000     MyDemoA.obj
 0000:00000000       _volmd                     00400000     MyDemoA.obj
 0000:00000000       _volmd                     00400000     MyDemoA.obj
 0000:00000000       _volmd                     00400000     MyDemoA.obj
 0000:00000000       _volmd                     00400000     MyDemoA.obj
 0000:00000000       _volmd                     00400000     MyDemoA.obj
 0000:00000000       _volmd                     00400000     MyDemoA.obj
 0000:00000000       _volmd                     00400000     MyDemoA.obj
 0000:00000000       _volmd                     00400000     MyDemoA.obj
 0000:00000000       _volmd                     00400000     MyDemoA.obj
 0000:00000000       _volmd                     00400000     MyDemoA.obj
 0000:00000000       _volmd                     00400000     MyDemoA.obj
 0000:00000000       _volmd                     00400000     MyDemoA.obj
 0000:00000000       _volmd                     00400000     MyDemoA.obj
 0000:00000000       _volmd                     00400000     MyDemoA.obj
 0000:00000000       _volmd                     00400000     MyDemoA.obj
 0000:00000000       _volmd                     00400000     MyDemoA.obj
 0000:00000000       _volmd                     00400000     MyDemoA.obj
 0000:00000000       _volmd                     00400000     MyDemoA.obj
 0000:00000000       _volmd                     00400000     MyDemoA.obj
 0000:00000000       _volmd                     00400000     MyDemoA.obj
 0000:00000000       _volmd                     00400000     MyDemoA.obj
 0000:00000000       _volmd                     00400000     MyDemoA.obj
 0000:00000000       _volmd                     00400000     MyDemoA.obj
 0000:00000000       _volmd                     00400000     MyDemoA.obj
 0000:00000000       _volmd                     00400000     MyDemoA.obj
 0000:00000000       _volmd                     00400000     MyDemoA.obj
 0000:00000000       _volmd                     00400000     MyDemoA.obj
 0000:00000000       _volmd                     00400000     MyDemoA.obj
 0000:00000000       _volmd                     00400000     MyDemoA.obj
 0000:00000000       _volmd                     00400000     MyDemoA.obj
 0000:00000000       _volmd                     00400000     MyDemoA.obj
 0000:00000000       _volmd                     00400000     MyDemoA.obj
 0000:00000000       _volmd                     00400000     MyDemoA.obj
 0000:00000000       _volmd                     00400000     MyDemoA.obj
 0000:00000000       _volmd                     00400000     MyDemoA.obj
 0002:fffbc000       __catchsym$??$?6U?$char_traits@D@std@@@std@@YAAAV?$basic_ostream@DU?$char_traits@D@std@@@0@AAV10@PBD@Z$3 00400000     Psyes9Engine.obj
 0002:fffbc000       __catchsym$??$_Insert_string@DU?$char_traits@D@std@@I@std@@YAAAV?$basic_ostream@DU?$char_traits@D@std@@@0@AAV10@QBDI@Z$3 00400000     Psyes9Engine.obj
 0002:fffbc000       __catchsym$??$_Resize_reallocate@U_Value_init_tag@std@@@?$vector@PAVDisplayableObject@@V?$allocator@PAVDisplayableObject@@@std@@@std@@AAEXIABU_Value_init_tag@1@@Z$2 00400000     Psyes9Engine.obj
 0002:fffbc000       __ehfuncinfo$??$_Deallocate@$07$0A@@std@@YAXPAXI@Z 00400000     Psyes9Engine.obj
 0002:fffbc000       __ehfuncinfo$??$_Deallocate_plain@V?$allocator@U_Container_proxy@std@@@std@@@std@@YAXAAV?$allocator@U_Container_proxy@std@@@0@QAU_Container_proxy@0@@Z 00400000     Psyes9Engine.obj
 0002:fffbc000       __ehfuncinfo$??$_Freenode0@V?$allocator@U?$_Tree_node@U?$pair@$$CBV?$basic_string@DU?$char_traits@D@std@@V?$allocator@D@2@@std@@V?$weak_ptr@VRawImageData@@@2@@std@@PAX@std@@@std@@@?$_Tree_node@U?$pair@$$CBV?$basic_string@DU?$char_traits@D@std@@V?$allocator@D@2@@std@@V?$weak_ptr@VRawImageData@@@2@@std@@PAX@std@@SAXAAV?$allocator@U?$_Tree_node@U?$pair@$$CBV?$basic_string@DU?$char_traits@D@std@@V?$allocator@D@2@@std@@V?$weak_ptr@VRawImageData@@@2@@std@@PAX@std@@@1@PAU01@@Z 00400000     Psyes9Engine.obj
 0002:fffbc000       __ehfuncinfo$??$_Freenode@V?$allocator@U?$_Tree_node@U?$pair@$$CBV?$basic_string@DU?$char_traits@D@std@@V?$allocator@D@2@@std@@V?$weak_ptr@VRawImageData@@@2@@std@@PAX@std@@@std@@@?$_Tree_node@U?$pair@$$CBV?$basic_string@DU?$char_traits@D@std@@V?$allocator@D@2@@std@@V?$weak_ptr@VRawImageData@@@2@@std@@PAX@std@@SAXAAV?$allocator@U?$_Tree_node@U?$pair@$$CBV?$basic_string@DU?$char_traits@D@std@@V?$allocator@D@2@@std@@V?$weak_ptr@VRawImageData@@@2@@std@@PAX@std@@@1@PAU01@@Z 00400000     Psyes9Engine.obj
 0002:fffbc000       __ehfuncinfo$??0?$basic_string@DU?$char_traits@D@std@@V?$allocator@D@2@@std@@QAE@$$QAV01@@Z 00400000     Psyes9Engine.obj
 0002:fffbc000       __ehfuncinfo$??1?$_Alloc_construct_ptr@V?$allocator@U?$_Tree_node@U?$pair@$$CBV?$basic_string@DU?$char_traits@D@std@@V?$allocator@D@2@@std@@V?$shared_ptr@VRawImageData@@@2@@std@@PAX@std@@@std@@@std@@QAE@XZ 00400000     Psyes9Engine.obj
 0002:fffbc000       __ehfuncinfo$??1?$_Alloc_construct_ptr@V?$allocator@U?$_Tree_node@U?$pair@$$CBV?$basic_string@DU?$char_traits@D@std@@V?$allocator@D@2@@std@@V?$weak_ptr@VRawImageData@@@2@@std@@PAX@std@@@std@@@std@@QAE@XZ 00400000     Psyes9Engine.obj
 0002:fffbc000       __ehfuncinfo$??1?$_Tree_temp_node@V?$allocator@U?$_Tree_node@U?$pair@$$CBV?$basic_string@DU?$char_traits@D@std@@V?$allocator@D@2@@std@@V?$shared_ptr@VRawImageData@@@2@@std@@PAX@std@@@std@@@std@@QAE@XZ 00400000     Psyes9Engine.obj
 0002:fffbc000       __ehfuncinfo$??1?$_Tree_temp_node@V?$allocator@U?$_Tree_node@U?$pair@$$CBV?$basic_string@DU?$char_traits@D@std@@V?$allocator@D@2@@std@@V?$weak_ptr@VRawImageData@@@2@@std@@PAX@std@@@std@@@std@@QAE@XZ 00400000     Psyes9Engine.obj
 0002:fffbc000       __ehfuncinfo$??1RawImageData@@QAE@XZ 00400000     Psyes9Engine.obj
 0002:fffbc000       __ehfuncinfo$??1_Sentry_base@?$basic_ostream@DU?$char_traits@D@std@@@std@@QAE@XZ 00400000     Psyes9Engine.obj
 0002:fffbc000       __ehfuncinfo$?_Deallocate_for_capacity@?$basic_string@DU?$char_traits@D@std@@V?$allocator@D@2@@std@@CAXAAV?$allocator@D@2@QADI@Z 00400000     Psyes9Engine.obj
 0002:fffbc000       __ehfuncinfo$?getImagePtrbyURL@ImageManager@@QAE?AV?$shared_ptr@VRawImageData@@@std@@V?$basic_string@DU?$char_traits@D@std@@V?$allocator@D@2@@3@_N1@Z 00400000     Psyes9Engine.obj
 0001:fffff000       __ehhandler$??$_Deallocate@$07$0A@@std@@YAXPAXI@Z 00400000 f   Psyes9Engine.obj
 0001:fffff000       __ehhandler$??$_Deallocate_plain@V?$allocator@U_Container_proxy@std@@@std@@@std@@YAXAAV?$allocator@U_Container_proxy@std@@@0@QAU_Container_proxy@0@@Z 00400000 f   Psyes9Engine.obj
 0001:fffff000       __ehhandler$??$_Freenode0@V?$allocator@U?$_Tree_node@U?$pair@$$CBV?$basic_string@DU?$char_traits@D@std@@V?$allocator@D@2@@std@@V?$weak_ptr@VRawImageData@@@2@@std@@PAX@std@@@std@@@?$_Tree_node@U?$pair@$$CBV?$basic_string@DU?$char_traits@D@std@@V?$allocator@D@2@@std@@V?$weak_ptr@VRawImageData@@@2@@std@@PAX@std@@SAXAAV?$allocator@U?$_Tree_node@U?$pair@$$CBV?$basic_string@DU?$char_traits@D@std@@V?$allocator@D@2@@std@@V?$weak_ptr@VRawImageData@@@2@@std@@PAX@std@@@1@PAU01@@Z 00400000 f   Psyes9Engine.obj
 0001:fffff000       __ehhandler$??$_Freenode@V?$allocator@U?$_Tree_node@U?$pair@$$CBV?$basic_string@DU?$char_traits@D@std@@V?$allocator@D@2@@std@@V?$weak_ptr@VRawImageData@@@2@@std@@PAX@std@@@std@@@?$_Tree_node@U?$pair@$$CBV?$basic_string@DU?$char_traits@D@std@@V?$allocator@D@2@@std@@V?$weak_ptr@VRawImageData@@@2@@std@@PAX@std@@SAXAAV?$allocator@U?$_Tree_node@U?$pair@$$CBV?$basic_string@DU?$char_traits@D@std@@V?$allocator@D@2@@std@@V?$weak_ptr@VRawImageData@@@2@@std@@PAX@std@@@1@PAU01@@Z 00400000 f   Psyes9Engine.obj
 0001:fffff000       __ehhandler$??$_Resize_reallocate@U_Value_init_tag@std@@@?$vector@PAVDisplayableObject@@V?$allocator@PAVDisplayableObject@@@std@@@std@@AAEXIABU_Value_init_tag@1@@Z 00400000 f   Psyes9Engine.obj
 0001:fffff000       __ehhandler$??0?$basic_string@DU?$char_traits@D@std@@V?$allocator@D@2@@std@@QAE@$$QAV01@@Z 00400000 f   Psyes9Engine.obj
 0001:fffff000       __ehhandler$??1?$_Alloc_construct_ptr@V?$allocator@U?$_Tree_node@U?$pair@$$CBV?$basic_string@DU?$char_traits@D@std@@V?$allocator@D@2@@std@@V?$shared_ptr@VRawImageData@@@2@@std@@PAX@std@@@std@@@std@@QAE@XZ 00400000 f   Psyes9Engine.obj
 0001:fffff000       __ehhandler$??1?$_Alloc_construct_ptr@V?$allocator@U?$_Tree_node@U?$pair@$$CBV?$basic_string@DU?$char_traits@D@std@@V?$allocator@D@2@@std@@V?$weak_ptr@VRawImageData@@@2@@std@@PAX@std@@@std@@@std@@QAE@XZ 00400000 f   Psyes9Engine.obj
 0001:fffff000       __ehhandler$??1?$_Tree_temp_node@V?$allocator@U?$_Tree_node@U?$pair@$$CBV?$basic_string@DU?$char_traits@D@std@@V?$allocator@D@2@@std@@V?$shared_ptr@VRawImageData@@@2@@std@@PAX@std@@@std@@@std@@QAE@XZ 00400000 f   Psyes9Engine.obj
 0001:fffff000       __ehhandler$??1?$_Tree_temp_node@V?$allocator@U?$_Tree_node@U?$pair@$$CBV?$basic_string@DU?$char_traits@D@std@@V?$allocator@D@2@@std@@V?$weak_ptr@VRawImageData@@@2@@std@@PAX@std@@@std@@@std@@QAE@XZ 00400000 f   Psyes9Engine.obj
 0001:fffff000       __ehhandler$??1RawImageData@@QAE@XZ 00400000 f   Psyes9Engine.obj
 0001:fffff000       __ehhandler$??1_Sentry_base@?$basic_ostream@DU?$char_traits@D@std@@@std@@QAE@XZ 00400000 f   Psyes9Engine.obj
 0001:fffff000       __ehhandler$?_Deallocate_for_capacity@?$basic_string@DU?$char_traits@D@std@@V?$allocator@D@2@@std@@CAXAAV?$allocator@D@2@QADI@Z 00400000 f   Psyes9Engine.obj
 0001:fffff000       __unwindfunclet$??$?0U?$pair@V?$basic_string@DU?$char_traits@D@std@@V?$allocator@D@2@@std@@V?$shared_ptr@VRawImageData@@@2@@std@@@?$_Tree_temp_node@V?$allocator@U?$_Tree_node@U?$pair@$$CBV?$basic_string@DU?$char_traits@D@std@@V?$allocator@D@2@@std@@V?$shared_ptr@VRawImageData@@@2@@std@@PAX@std@@@std@@@std@@QAE@AAV?$allocator@U?$_Tree_node@U?$pair@$$CBV?$basic_string@DU?$char_traits@D@std@@V?$allocator@D@2@@std@@V?$shared_ptr@VRawImageData@@@2@@std@@PAX@std@@@1@PAU?$_Tree_node@U?$pair@$$CBV?$basic_string@DU?$char_traits@D@std@@V?$allocator@D@2@@std@@V?$shared_ptr@VRawImageData@@@2@@std@@PAX@1@$$QAU?$pair@V?$basic_string@DU?$char_traits@D@std@@V?$allocator@D@2@@std@@V?$shared_ptr@VRawImageData@@@2@@1@@Z$0 00400000 f   Psyes9Engine.obj
 0001:fffff000       __unwindfunclet$??$?0U?$pair@V?$basic_string@DU?$char_traits@D@std@@V?$allocator@D@2@@std@@V?$weak_ptr@VRawImageData@@@2@@std@@@?$_Tree_temp_node@V?$allocator@U?$_Tree_node@U?$pair@$$CBV?$basic_string@DU?$char_traits@D@std@@V?$allocator@D@2@@std@@V?$weak_ptr@VRawImageData@@@2@@std@@PAX@std@@@std@@@std@@QAE@AAV?$allocator@U?$_Tree_node@U?$pair@$$CBV?$basic_string@DU?$char_traits@D@std@@V?$allocator@D@2@@std@@V?$weak_ptr@VRawImageData@@@2@@std@@PAX@std@@@1@PAU?$_Tree_node@U?$pair@$$CBV?$basic_string@DU?$char_traits@D@std@@V?$allocator@D@2@@std@@V?$weak_ptr@VRawImageData@@@2@@std@@PAX@1@$$QAU?$pair@V?$basic_string@DU?$char_traits@D@std@@V?$allocator@D@2@@std@@V?$weak_ptr@VRawImageData@@@2@@1@@Z$0 00400000 f   Psyes9Engine.obj
 0001:fffff000       __unwindfunclet$??$?0VRawImageData@@$0A@@?$shared_ptr@VRawImageData@@@std@@QAE@PAVRawImageData@@@Z$0 00400000 f   Psyes9Engine.obj
 0001:fffff000       __unwindfunclet$??$?6U?$char_traits@D@std@@@std@@YAAAV?$basic_ostream@DU?$char_traits@D@std@@@0@AAV10@PBD@Z$2 00400000 f   Psyes9Engine.obj
 0001:fffff000       __unwindfunclet$??$_Construct@$00PBD@?$basic_string@DU?$char_traits@D@std@@V?$allocator@D@2@@std@@AAEXQBDI@Z$0 00400000 f   Psyes9Engine.obj
 0001:fffff000       __unwindfunclet$??$_Construct@$01PBD@?$basic_string@DU?$char_traits@D@std@@V?$allocator@D@2@@std@@AAEXQBDI@Z$0 00400000 f   Psyes9Engine.obj
 0001:fffff000       __unwindfunclet$??$_Insert_string@DU?$char_traits@D@std@@I@std@@YAAAV?$basic_ostream@DU?$char_traits@D@std@@@0@AAV10@QBDI@Z$2 00400000 f   Psyes9Engine.obj
 0001:fffff000       __unwindfunclet$??$_Uninitialized_move@PAPAVDisplayableObject@@V?$allocator@PAVDisplayableObject@@@std@@@std@@YAPAPAVDisplayableObject@@QAPAV1@0PAPAV1@AAV?$allocator@PAVDisplayableObject@@@0@@Z$0 00400000 f   Psyes9Engine.obj
 0001:fffff000       __unwindfunclet$??$_Uninitialized_value_construct_n@V?$allocator@PAVDisplayableObject@@@std@@@std@@YAPAPAVDisplayableObject@@PAPAV1@IAAV?$allocator@PAVDisplayableObject@@@0@@Z$0 00400000 f   Psyes9Engine.obj
 0001:fffff000       __unwindfunclet$??0?$_Tree_temp_node_alloc@V?$allocator@U?$_Tree_node@U?$pair@$$CBV?$basic_string@DU?$char_traits@D@std@@V?$allocator@D@2@@std@@V?$shared_ptr@VRawImageData@@@2@@std@@PAX@std@@@std@@@std@@QAE@AAV?$allocator@U?$_Tree_node@U?$pair@$$CBV?$basic_string@DU?$char_traits@D@std@@V?$allocator@D@2@@std@@V?$shared_ptr@VRawImageData@@@2@@std@@PAX@std@@@1@@Z$0 00400000 f   Psyes9Engine.obj
 0001:fffff000       __unwindfunclet$??0?$_Tree_temp_node_alloc@V?$allocator@U?$_Tree_node@U?$pair@$$CBV?$basic_string@DU?$char_traits@D@std@@V?$allocator@D@2@@std@@V?$weak_ptr@VRawImageData@@@2@@std@@PAX@std@@@std@@@std@@QAE@AAV?$allocator@U?$_Tree_node@U?$pair@$$CBV?$basic_string@DU?$char_traits@D@std@@V?$allocator@D@2@@std@@V?$weak_ptr@VRawImageData@@@2@@std@@PAX@std@@@1@@Z$0 00400000 f   Psyes9Engine.obj
 0001:fffff000       __unwindfunclet$??0?$basic_string@DU?$char_traits@D@std@@V?$allocator@D@2@@std@@QAE@ABV01@@Z$0 00400000 f   Psyes9Engine.obj
 0001:fffff000       __unwindfunclet$??0?$basic_string@DU?$char_traits@D@std@@V?$allocator@D@2@@std@@QAE@QBD@Z$0 00400000 f   Psyes9Engine.obj
 0001:fffff000       __unwindfunclet$??0ImageManager@@QAE@XZ$0 00400000 f   Psyes9Engine.obj
 0001:fffff000       __unwindfunclet$??0RawImageData@@QAE@V?$basic_string@DU?$char_traits@D@std@@V?$allocator@D@2@@std@@@Z$0 00400000 f   Psyes9Engine.obj
 0001:fffff000       __unwindfunclet$??0sentry@?$basic_ostream@DU?$char_traits@D@std@@@std@@QAE@AAV12@@Z$0 00400000 f   Psyes9Engine.obj
 0001:fffff000       __unwindfunclet$?_Alloc_sentinel_and_proxy@?$_Tree@V?$_Tmap_traits@V?$basic_string@DU?$char_traits@D@std@@V?$allocator@D@2@@std@@V?$shared_ptr@VRawImageData@@@2@U?$less@V?$basic_string@DU?$char_traits@D@std@@V?$allocator@D@2@@std@@@2@V?$allocator@U?$pair@$$CBV?$basic_string@DU?$char_traits@D@std@@V?$allocator@D@2@@std@@V?$shared_ptr@VRawImageData@@@2@@std@@@2@$0A@@std@@@std@@IAEXXZ$0 00400000 f   Psyes9Engine.obj
 0001:fffff000       __unwindfunclet$?_Alloc_sentinel_and_proxy@?$_Tree@V?$_Tmap_traits@V?$basic_string@DU?$char_traits@D@std@@V?$allocator@D@2@@std@@V?$weak_ptr@VRawImageData@@@2@U?$less@V?$basic_string@DU?$char_traits@D@std@@V?$allocator@D@2@@std@@@2@V?$allocator@U?$pair@$$CBV?$basic_string@DU?$char_traits@D@std@@V?$allocator@D@2@@std@@V?$weak_ptr@VRawImageData@@@2@@std@@@2@$0A@@std@@@std@@IAEXXZ$0 00400000 f   Psyes9Engine.obj
 0001:fffff000       __unwindfunclet$?_Orphan_range_locked@?$vector@PAVDisplayableObject@@V?$allocator@PAVDisplayableObject@@@std@@@std@@ABEXPAPAVDisplayableObject@@0@Z$0 00400000 f   Psyes9Engine.obj
 0001:fffff000       __unwindfunclet$?get@ImageManager@@SAPAV1@XZ$0 00400000 f   Psyes9Engine.obj
 0001:fffff000       __unwindfunclet$?getImagePtrbyURL@ImageManager@@QAE?AV?$shared_ptr@VRawImageData@@@std@@V?$basic_string@DU?$char_traits@D@std@@V?$allocator@D@2@@3@_N1@Z$0 00400000 f   Psyes9Engine.obj
 0001:fffff000       __unwindfunclet$?getImagebyURL@ImageManager@@QAE?AVSimpleImage@@V?$basic_string@DU?$char_traits@D@std@@V?$allocator@D@2@@std@@_N1@Z$0 00400000 f   Psyes9Engine.obj
 0001:fffff000       __unwindfunclet$?loadAsNew@ImageManager@@QAE?AV?$shared_ptr@VRawImageData@@@std@@V?$basic_string@DU?$char_traits@D@std@@V?$allocator@D@2@@3@@Z$0 00400000 f   Psyes9Engine.obj
 0001:fffff000       __unwindfunclet$?loadImage@ImageManager@@SA?AVSimpleImage@@V?$basic_string@DU?$char_traits@D@std@@V?$allocator@D@2@@std@@_N@Z$0 00400000 f   Psyes9Engine.obj
 0001:fffff000       __unwindfunclet$?loadImage@RawImageData@@QAE_NV?$basic_string@DU?$char_traits@D@std@@V?$allocator@D@2@@std@@HHHHH_N@Z$0 00400000 f   Psyes9Engine.obj
 0002:fffbc000       __unwindtable$??$?0U?$pair@V?$basic_string@DU?$char_traits@D@std@@V?$allocator@D@2@@std@@V?$shared_ptr@VRawImageData@@@2@@std@@@?$_Tree_temp_node@V?$allocator@U?$_Tree_node@U?$pair@$$CBV?$basic_string@DU?$char_traits@D@std@@V?$allocator@D@2@@std@@V?$shared_ptr@VRawImageData@@@2@@std@@PAX@std@@@std@@@std@@QAE@AAV?$allocator@U?$_Tree_node@U?$pair@$$CBV?$basic_string@DU?$char_traits@D@std@@V?$allocator@D@2@@std@@V?$shared_ptr@VRawImageData@@@2@@std@@PAX@std@@@1@PAU?$_Tree_node@U?$pair@$$CBV?$basic_string@DU?$char_traits@D@std@@V?$allocator@D@2@@std@@V?$shared_ptr@VRawImageData@@@2@@std@@PAX@1@$$QAU?$pair@V?$basic_string@DU?$char_traits@D@std@@V?$allocator@D@2@@std@@V?$shared_ptr@VRawImageData@@@2@@1@@Z 00400000     Psyes9Engine.obj
 0002:fffbc000       __unwindtable$??$?0U?$pair@V?$basic_string@DU?$char_traits@D@std@@V?$allocator@D@2@@std@@V?$weak_ptr@VRawImageData@@@2@@std@@@?$_Tree_temp_node@V?$allocator@U?$_Tree_node@U?$pair@$$CBV?$basic_string@DU?$char_traits@D@std@@V?$allocator@D@2@@std@@V?$weak_ptr@VRawImageData@@@2@@std@@PAX@std@@@std@@@std@@QAE@AAV?$allocator@U?$_Tree_node@U?$pair@$$CBV?$basic_string@DU?$char_traits@D@std@@V?$allocator@D@2@@std@@V?$weak_ptr@VRawImageData@@@2@@std@@PAX@std@@@1@PAU?$_Tree_node@U?$pair@$$CBV?$basic_string@DU?$char_traits@D@std@@V?$allocator@D@2@@std@@V?$weak_ptr@VRawImageData@@@2@@std@@PAX@1@$$QAU?$pair@V?$basic_string@DU?$char_traits@D@std@@V?$allocator@D@2@@std@@V?$weak_ptr@VRawImageData@@@2@@1@@Z 00400000     Psyes9Engine.obj
 0002:fffbc000       __unwindtable$??$?0VRawImageData@@$0A@@?$shared_ptr@VRawImageData@@@std@@QAE@PAVRawImageData@@@Z 00400000     Psyes9Engine.obj
 0002:fffbc000       __unwindtable$??$_Construct@$00PBD@?$basic_string@DU?$char_traits@D@std@@V?$allocator@D@2@@std@@AAEXQBDI@Z 00400000     Psyes9Engine.obj
 0002:fffbc000       __unwindtable$??$_Construct@$01PBD@?$basic_string@DU?$char_traits@D@std@@V?$allocator@D@2@@std@@AAEXQBDI@Z 00400000     Psyes9Engine.obj
 0002:fffbc000       __unwindtable$??$_Uninitialized_move@PAPAVDisplayableObject@@V?$allocator@PAVDisplayableObject@@@std@@@std@@YAPAPAVDisplayableObject@@QAPAV1@0PAPAV1@AAV?$allocator@PAVDisplayableObject@@@0@@Z 00400000     Psyes9Engine.obj
 0002:fffbc000       __unwindtable$??$_Uninitialized_value_construct_n@V?$allocator@PAVDisplayableObject@@@std@@@std@@YAPAPAVDisplayableObject@@PAPAV1@IAAV?$allocator@PAVDisplayableObject@@@0@@Z 00400000     Psyes9Engine.obj
 0002:fffbc000       __unwindtable$??0?$_Tree_temp_node_alloc@V?$allocator@U?$_Tree_node@U?$pair@$$CBV?$basic_string@DU?$char_traits@D@std@@V?$allocator@D@2@@std@@V?$shared_ptr@VRawImageData@@@2@@std@@PAX@std@@@std@@@std@@QAE@AAV?$allocator@U?$_Tree_node@U?$pair@$$CBV?$basic_string@DU?$char_traits@D@std@@V?$allocator@D@2@@std@@V?$shared_ptr@VRawImageData@@@2@@std@@PAX@std@@@1@@Z 00400000     Psyes9Engine.obj
 0002:fffbc000       __unwindtable$??0?$_Tree_temp_node_alloc@V?$allocator@U?$_Tree_node@U?$pair@$$CBV?$basic_string@DU?$char_traits@D@std@@V?$allocator@D@2@@std@@V?$weak_ptr@VRawImageData@@@2@@std@@PAX@std@@@std@@@std@@QAE@AAV?$allocator@U?$_Tree_node@U?$pair@$$CBV?$basic_string@DU?$char_traits@D@std@@V?$allocator@D@2@@std@@V?$weak_ptr@VRawImageData@@@2@@std@@PAX@std@@@1@@Z 00400000     Psyes9Engine.obj
 0002:fffbc000       __unwindtable$??0?$basic_string@DU?$char_traits@D@std@@V?$allocator@D@2@@std@@QAE@ABV01@@Z 00400000     Psyes9Engine.obj
 0002:fffbc000       __unwindtable$??0?$basic_string@DU?$char_traits@D@std@@V?$allocator@D@2@@std@@QAE@QBD@Z 00400000     Psyes9Engine.obj
 0002:fffbc000       __unwindtable$??0ImageManager@@QAE@XZ 00400000     Psyes9Engine.obj
 0002:fffbc000       __unwindtable$??0RawImageData@@QAE@V?$basic_string@DU?$char_traits@D@std@@V?$allocator@D@2@@std@@@Z 00400000     Psyes9Engine.obj
 0002:fffbc000       __unwindtable$??0sentry@?$basic_ostream@DU?$char_traits@D@std@@@std@@QAE@AAV12@@Z 00400000     Psyes9Engine.obj
 0002:fffbc000       __unwindtable$?_Alloc_sentinel_and_proxy@?$_Tree@V?$_Tmap_traits@V?$basic_string@DU?$char_traits@D@std@@V?$allocator@D@2@@std@@V?$shared_ptr@VRawImageData@@@2@U?$less@V?$basic_string@DU?$char_traits@D@std@@V?$allocator@D@2@@std@@@2@V?$allocator@U?$pair@$$CBV?$basic_string@DU?$char_traits@D@std@@V?$allocator@D@2@@std@@V?$shared_ptr@VRawImageData@@@2@@std@@@2@$0A@@std@@@std@@IAEXXZ 00400000     Psyes9Engine.obj
 0002:fffbc000       __unwindtable$?_Alloc_sentinel_and_proxy@?$_Tree@V?$_Tmap_traits@V?$basic_string@DU?$char_traits@D@std@@V?$allocator@D@2@@std@@V?$weak_ptr@VRawImageData@@@2@U?$less@V?$basic_string@DU?$char_traits@D@std@@V?$allocator@D@2@@std@@@2@V?$allocator@U?$pair@$$CBV?$basic_string@DU?$char_traits@D@std@@V?$allocator@D@2@@std@@V?$weak_ptr@VRawImageData@@@2@@std@@@2@$0A@@std@@@std@@IAEXXZ 00400000     Psyes9Engine.obj
 0002:fffbc000       __unwindtable$?_Orphan_range_locked@?$vector@PAVDisplayableObject@@V?$allocator@PAVDisplayableObject@@@std@@@std@@ABEXPAPAVDisplayableObject@@0@Z 00400000     Psyes9Engine.obj
 0002:fffbc000       __unwindtable$?get@ImageManager@@SAPAV1@XZ 00400000     Psyes9Engine.obj
 0002:fffbc000       __unwindtable$?getImagebyURL@ImageManager@@QAE?AVSimpleImage@@V?$basic_string@DU?$char_traits@D@std@@V?$allocator@D@2@@std@@_N1@Z 00400000     Psyes9Engine.obj
 0002:fffbc000       __unwindtable$?loadAsNew@ImageManager@@QAE?AV?$shared_ptr@VRawImageData@@@std@@V?$basic_string@DU?$char_traits@D@std@@V?$allocator@D@2@@3@@Z 00400000     Psyes9Engine.obj
 0002:fffbc000       __unwindtable$?loadImage@ImageManager@@SA?AVSimpleImage@@V?$basic_string@DU?$char_traits@D@std@@V?$allocator@D@2@@std@@_N@Z 00400000     Psyes9Engine.obj
 0002:fffbc000       __unwindtable$?loadImage@RawImageData@@QAE_NV?$basic_string@DU?$char_traits@D@std@@V?$allocator@D@2@@std@@HHHHH_N@Z 00400000     Psyes9Engine.obj
 0000:00000000       _volmd                     00400000     Psyes9Engine.obj
 0000:00000000       _volmd                     00400000     Psyes9Engine.obj
 0000:00000000       _volmd                     00400000     Psyes9Engine.obj
 0000:00000000       _volmd                     00400000     Psyes9Engine.obj
 0000:00000000       _volmd                     00400000     Psyes9Engine.obj
 0000:00000000       _volmd                     00400000     Psyes9Engine.obj
 0000:00000000       _volmd                     00400000     Psyes9Engine.obj
 0000:00000000       _volmd                     00400000     Psyes9Engine.obj
 0000:00000000       _volmd                     00400000     Psyes9Engine.obj
 0000:00000000       _volmd                     00400000     Psyes9Engine.obj
 0000:00000000       _volmd                     00400000     Psyes9Engine.obj
 0000:00000000       _volmd                     00400000     Psyes9Engine.obj
 0000:00000000       _volmd                     00400000     Psyes9Engine.obj
 0000:00000000       _volmd                     00400000     Psyes9Engine.obj
 0000:00000000       _volmd                     00400000     Psyes9Engine.obj
 0000:00000000       _volmd                     00400000     Psyes9Engine.obj
 0000:00000000       _volmd                     00400000     Psyes9Engine.obj
 0000:00000000       _volmd                     00400000     Psyes9Engine.obj
 0000:00000000       _volmd                     00400000     Psyes9Engine.obj
 0000:00000000       _volmd                     00400000     Psyes9Engine.obj
 0000:00000000       _volmd                     00400000     Psyes9Engine.obj
 0000:00000000       _volmd                     00400000     Psyes9Engine.obj
 0000:00000000       _volmd                     00400000     Psyes9Engine.obj
 0000:00000000       _volmd                     00400000     Psyes9Engine.obj
 0000:00000000       _volmd                     00400000     Psyes9Engine.obj
 0000:00000000       _volmd                     00400000     Psyes9Engine.obj
 0000:00000000       _volmd                     00400000     Psyes9Engine.obj
 0000:00000000       _volmd                     00400000     Psyes9Engine.obj
 0000:00000000       _volmd                     00400000     Psyes9Engine.obj
 0000:00000000       _volmd                     00400000     Psyes9Engine.obj
 0000:00000000       _volmd                     00400000     Psyes9Engine.obj
 0000:00000000       _volmd                     00400000     Psyes9Engine.obj
 0000:00000000       _volmd                     00400000     Psyes9Engine.obj
 0000:00000000       _volmd                     00400000     Psyes9Engine.obj
 0000:00000000       _volmd                     00400000     Psyes9Engine.obj
 0000:00000000       _volmd                     00400000     Psyes9Engine.obj
 0000:00000000       _volmd                     00400000     Psyes9Engine.obj
 0000:00000000       _volmd                     00400000     Psyes9Engine.obj
 0000:00000000       _volmd                     00400000     Psyes9Engine.obj
 0000:00000000       _volmd                     00400000     Psyes9Engine.obj
 0000:00000000       _volmd                     00400000     Psyes9Engine.obj
 0000:00000000       _volmd                     00400000     Psyes9Engine.obj
 0000:00000000       _volmd                     00400000     Psyes9Engine.obj
 0000:00000000       _volmd                     00400000     Psyes9Engine.obj
 0002:fffbc000       __catchsym$??$?6U?$char_traits@D@std@@@std@@YAAAV?$basic_ostream@DU?$char_traits@D@std@@@0@AAV10@PBD@Z$3 00400000     SimpleDemo.obj
 0002:fffbc000       __catchsym$??$_Resize_reallocate@U_Value_init_tag@std@@@?$vector@PAVDisplayableObject@@V?$allocator@PAVDisplayableObject@@@std@@@std@@AAEXIABU_Value_init_tag@1@@Z$2 00400000     SimpleDemo.obj
 0002:fffbc000       __ehfuncinfo$??$_Deallocate@$07$0A@@std@@YAXPAXI@Z 00400000     SimpleDemo.obj
 0002:fffbc000       __ehfuncinfo$??1_Sentry_base@?$basic_ostream@DU?$char_traits@D@std@@@std@@QAE@XZ 00400000     SimpleDemo.obj
 0001:fffff000       __ehhandler$??$_Deallocate@$07$0A@@std@@YAXPAXI@Z 00400000 f   SimpleDemo.obj
 0001:fffff000       __ehhandler$??$_Resize_reallocate@U_Value_init_tag@std@@@?$vector@PAVDisplayableObject@@V?$allocator@PAVDisplayableObject@@@std@@@std@@AAEXIABU_Value_init_tag@1@@Z 00400000 f   SimpleDemo.obj
 0001:fffff000       __ehhandler$??1_Sentry_base@?$basic_ostream@DU?$char_traits@D@std@@@std@@QAE@XZ 00400000 f   SimpleDemo.obj
 0001:fffff000       __unwindfunclet$??$?6U?$char_traits@D@std@@@std@@YAAAV?$basic_ostream@DU?$char_traits@D@std@@@0@AAV10@PBD@Z$2 00400000 f   SimpleDemo.obj
 0001:fffff000       __unwindfunclet$??$_Uninitialized_move@PAPAVDisplayableObject@@V?$allocator@PAVDisplayableObject@@@std@@@std@@YAPAPAVDisplayableObject@@QAPAV1@0PAPAV1@AAV?$allocator@PAVDisplayableObject@@@0@@Z$0 00400000 f   SimpleDemo.obj
 0001:fffff000       __unwindfunclet$??$_Uninitialized_value_construct_n@V?$allocator@PAVDisplayableObject@@@std@@@std@@YAPAPAVDisplayableObject@@PAPAV1@IAAV?$allocator@PAVDisplayableObject@@@0@@Z$0 00400000 f   SimpleDemo.obj
 0001:fffff000       __unwindfunclet$??0sentry@?$basic_ostream@DU?$char_traits@D@std@@@std@@QAE@AAV12@@Z$0 00400000 f   SimpleDemo.obj
 0001:fffff000       __unwindfunclet$?_Orphan_range_locked@?$vector@PAVDisplayableObject@@V?$allocator@PAVDisplayableObject@@@std@@@std@@ABEXPAPAVDisplayableObject@@0@Z$0 00400000 f   SimpleDemo.obj
 0002:fffbc000       __unwindtable$??$_Uninitialized_move@PAPAVDisplayableObject@@V?$allocator@PAVDisplayableObject@@@std@@@std@@YAPAPAVDisplayableObject@@QAPAV1@0PAPAV1@AAV?$allocator@PAVDisplayableObject@@@0@@Z 00400000     SimpleDemo.obj
 0002:fffbc000       __unwindtable$??$_Uninitialized_value_construct_n@V?$allocator@PAVDisplayableObject@@@std@@@std@@YAPAPAVDisplayableObject@@PAPAV1@IAAV?$allocator@PAVDisplayableObject@@@0@@Z 00400000     SimpleDemo.obj
 0002:fffbc000       __unwindtable$??0sentry@?$basic_ostream@DU?$char_traits@D@std@@@std@@QAE@AAV12@@Z 00400000     SimpleDemo.obj
 0002:fffbc000       __unwindtable$?_Orphan_range_locked@?$vector@PAVDisplayableObject@@V?$allocator@PAVDisplayableObject@@@std@@@std@@ABEXPAPAVDisplayableObject@@0@Z 00400000     SimpleDemo.obj
 0000:00000000       _volmd                     00400000     SimpleDemo.obj
 0000:00000000       _volmd                     00400000     SimpleDemo.obj
 0000:00000000       _volmd                     00400000     SimpleDemo.obj
 0000:00000000       _volmd                     00400000     SimpleDemo.obj
 0000:00000000       _volmd                     00400000     SimpleDemo.obj
 0000:00000000       _volmd                     00400000     SimpleDemo.obj
 0000:00000000       _volmd                     00400000     SimpleDemo.obj
 0000:00000000       _volmd                     00400000     SimpleDemo.obj
 0000:00000000       _volmd                     00400000     SimpleDemo.obj
 0000:00000000       _volmd                     00400000     SimpleDemo.obj
 0000:00000000       _volmd                     00400000     SimpleDemo.obj
 0002:fffbc000       __catchsym$??$?6U?$char_traits@D@std@@@std@@YAAAV?$basic_ostream@DU?$char_traits@D@std@@@0@AAV10@PBD@Z$3 00400000     SimpleImage.obj
 0002:fffbc000       __ehfuncinfo$??1_Sentry_base@?$basic_ostream@DU?$char_traits@D@std@@@std@@QAE@XZ 00400000     SimpleImage.obj
 0001:fffff000       __ehhandler$??1_Sentry_base@?$basic_ostream@DU?$char_traits@D@std@@@std@@QAE@XZ 00400000 f   SimpleImage.obj
 0001:fffff000       __unwindfunclet$??$?6U?$char_traits@D@std@@@std@@YAAAV?$basic_ostream@DU?$char_traits@D@std@@@0@AAV10@PBD@Z$2 00400000 f   SimpleImage.obj
 0001:fffff000       __unwindfunclet$??0sentry@?$basic_ostream@DU?$char_traits@D@std@@@std@@QAE@AAV12@@Z$0 00400000 f   SimpleImage.obj
 0002:fffbc000       __unwindtable$??0sentry@?$basic_ostream@DU?$char_traits@D@std@@@std@@QAE@AAV12@@Z 00400000     SimpleImage.obj
 0000:00000000       _volmd                     00400000     SimpleImage.obj
 0000:00000000       _volmd                     00400000     SimpleImage.obj
 0000:00000000       _volmd                     00400000     SimpleImage.obj
 0000:00000000       _volmd                     00400000     SimpleImage.obj
 0002:fffbc000       __catchsym$??$?6U?$char_traits@D@std@@@std@@YAAAV?$basic_ostream@DU?$char_traits@D@std@@@0@AAV10@PBD@Z$3 00400000     StarfieldDemo.obj
 0002:fffbc000       __ehfuncinfo$??1_Sentry_base@?$basic_ostream@DU?$char_traits@D@std@@@std@@QAE@XZ 00400000     StarfieldDemo.obj
 0001:fffff000       __ehhandler$??1_Sentry_base@?$basic_ostream@DU?$char_traits@D@std@@@std@@QAE@XZ 00400000 f   StarfieldDemo.obj
 0001:fffff000       __unwindfunclet$??$?6U?$char_traits@D@std@@@std@@YAAAV?$basic_ostream@DU?$char_traits@D@std@@@0@AAV10@PBD@Z$2 00400000 f   StarfieldDemo.obj
 0001:fffff000       __unwindfunclet$??0sentry@?$basic_ostream@DU?$char_traits@D@std@@@std@@QAE@AAV12@@Z$0 00400000 f   StarfieldDemo.obj
 0002:fffbc000       __unwindtable$??0sentry@?$basic_ostream@DU?$char_traits@D@std@@@std@@QAE@AAV12@@Z 00400000     StarfieldDemo.obj
 0000:00000000       _volmd                     00400000     StarfieldDemo.obj
 0000:00000000       _volmd                     00400000     StarfieldDemo.obj
 0000:00000000       _volmd                     00400000     StarfieldDemo.obj
 0000:00000000       _volmd                     00400000     StarfieldDemo.obj
 0002:fffbc000       __catchsym$??$?6U?$char_traits@D@std@@@std@@YAAAV?$basic_ostream@DU?$char_traits@D@std@@@0@AAV10@PBD@Z$3 00400000     ZoomingDemo.obj
 0002:fffbc000       __catchsym$??$_Insert_string@DU?$char_traits@D@std@@I@std@@YAAAV?$basic_ostream@DU?$char_traits@D@std@@@0@AAV10@QBDI@Z$3 00400000     ZoomingDemo.obj
 0002:fffbc000       __catchsym$??$_Resize_reallocate@U_Value_init_tag@std@@@?$vector@PAVDisplayableObject@@V?$allocator@PAVDisplayableObject@@@std@@@std@@AAEXIABU_Value_init_tag@1@@Z$2 00400000     ZoomingDemo.obj
 0002:fffbc000       __ehfuncinfo$??$_Deallocate@$07$0A@@std@@YAXPAXI@Z 00400000     ZoomingDemo.obj
 0002:fffbc000       __ehfuncinfo$??$_Deallocate_plain@V?$allocator@U_Container_proxy@std@@@std@@@std@@YAXAAV?$allocator@U_Container_proxy@std@@@0@QAU_Container_proxy@0@@Z 00400000     ZoomingDemo.obj
 0002:fffbc000       __ehfuncinfo$??$_Freenode0@V?$allocator@U?$_Tree_node@U?$pair@$$CBV?$basic_string@DU?$char_traits@D@std@@V?$allocator@D@2@@std@@V?$weak_ptr@VRawImageData@@@2@@std@@PAX@std@@@std@@@?$_Tree_node@U?$pair@$$CBV?$basic_string@DU?$char_traits@D@std@@V?$allocator@D@2@@std@@V?$weak_ptr@VRawImageData@@@2@@std@@PAX@std@@SAXAAV?$allocator@U?$_Tree_node@U?$pair@$$CBV?$basic_string@DU?$char_traits@D@std@@V?$allocator@D@2@@std@@V?$weak_ptr@VRawImageData@@@2@@std@@PAX@std@@@1@PAU01@@Z 00400000     ZoomingDemo.obj
 0002:fffbc000       __ehfuncinfo$??$_Freenode@V?$allocator@U?$_Tree_node@U?$pair@$$CBV?$basic_string@DU?$char_traits@D@std@@V?$allocator@D@2@@std@@V?$weak_ptr@VRawImageData@@@2@@std@@PAX@std@@@std@@@?$_Tree_node@U?$pair@$$CBV?$basic_string@DU?$char_traits@D@std@@V?$allocator@D@2@@std@@V?$weak_ptr@VRawImageData@@@2@@std@@PAX@std@@SAXAAV?$allocator@U?$_Tree_node@U?$pair@$$CBV?$basic_string@DU?$char_traits@D@std@@V?$allocator@D@2@@std@@V?$weak_ptr@VRawImageData@@@2@@std@@PAX@std@@@1@PAU01@@Z 00400000     ZoomingDemo.obj
 0002:fffbc000       __ehfuncinfo$??0?$basic_string@DU?$char_traits@D@std@@V?$allocator@D@2@@std@@QAE@$$QAV01@@Z 00400000     ZoomingDemo.obj
 0002:fffbc000       __ehfuncinfo$??1?$_Alloc_construct_ptr@V?$allocator@U?$_Tree_node@U?$pair@$$CBV?$basic_string@DU?$char_traits@D@std@@V?$allocator@D@2@@std@@V?$shared_ptr@VRawImageData@@@2@@std@@PAX@std@@@std@@@std@@QAE@XZ 00400000     ZoomingDemo.obj
 0002:fffbc000       __ehfuncinfo$??1?$_Alloc_construct_ptr@V?$allocator@U?$_Tree_node@U?$pair@$$CBV?$basic_string@DU?$char_traits@D@std@@V?$allocator@D@2@@std@@V?$weak_ptr@VRawImageData@@@2@@std@@PAX@std@@@std@@@std@@QAE@XZ 00400000     ZoomingDemo.obj
 0002:fffbc000       __ehfuncinfo$??1?$_Tree_temp_node@V?$allocator@U?$_Tree_node@U?$pair@$$CBV?$basic_string@DU?$char_traits@D@std@@V?$allocator@D@2@@std@@V?$shared_ptr@VRawImageData@@@2@@std@@PAX@std@@@std@@@std@@QAE@XZ 00400000     ZoomingDemo.obj
 0002:fffbc000       __ehfuncinfo$??1?$_Tree_temp_node@V?$allocator@U?$_Tree_node@U?$pair@$$CBV?$basic_string@DU?$char_traits@D@std@@V?$allocator@D@2@@std@@V?$weak_ptr@VRawImageData@@@2@@std@@PAX@std@@@std@@@std@@QAE@XZ 00400000     ZoomingDemo.obj
 0002:fffbc000       __ehfuncinfo$??1RawImageData@@QAE@XZ 00400000     ZoomingDemo.obj
 0002:fffbc000       __ehfuncinfo$??1_Sentry_base@?$basic_ostream@DU?$char_traits@D@std@@@std@@QAE@XZ 00400000     ZoomingDemo.obj
 0002:fffbc000       __ehfuncinfo$?_Deallocate_for_capacity@?$basic_string@DU?$char_traits@D@std@@V?$allocator@D@2@@std@@CAXAAV?$allocator@D@2@QADI@Z 00400000     ZoomingDemo.obj
 0002:fffbc000       __ehfuncinfo$?getImagePtrbyURL@ImageManager@@QAE?AV?$shared_ptr@VRawImageData@@@std@@V?$basic_string@DU?$char_traits@D@std@@V?$allocator@D@2@@3@_N1@Z 00400000     ZoomingDemo.obj
 0001:fffff000       __ehhandler$??$_Deallocate@$07$0A@@std@@YAXPAXI@Z 00400000 f   ZoomingDemo.obj
 0001:fffff000       __ehhandler$??$_Deallocate_plain@V?$allocator@U_Container_proxy@std@@@std@@@std@@YAXAAV?$allocator@U_Container_proxy@std@@@0@QAU_Container_proxy@0@@Z 00400000 f   ZoomingDemo.obj
 0001:fffff000       __ehhandler$??$_Freenode0@V?$allocator@U?$_Tree_node@U?$pair@$$CBV?$basic_string@DU?$char_traits@D@std@@V?$allocator@D@2@@std@@V?$weak_ptr@VRawImageData@@@2@@std@@PAX@std@@@std@@@?$_Tree_node@U?$pair@$$CBV?$basic_string@DU?$char_traits@D@std@@V?$allocator@D@2@@std@@V?$weak_ptr@VRawImageData@@@2@@std@@PAX@std@@SAXAAV?$allocator@U?$_Tree_node@U?$pair@$$CBV?$basic_string@DU?$char_traits@D@std@@V?$allocator@D@2@@std@@V?$weak_ptr@VRawImageData@@@2@@std@@PAX@std@@@1@PAU01@@Z 00400000 f   ZoomingDemo.obj
 0001:fffff000       __ehhandler$??$_Freenode@V?$allocator@U?$_Tree_node@U?$pair@$$CBV?$basic_string@DU?$char_traits@D@std@@V?$allocator@D@2@@std@@V?$weak_ptr@VRawImageData@@@2@@std@@PAX@std@@@std@@@?$_Tree_node@U?$pair@$$CBV?$basic_string@DU?$char_traits@D@std@@V?$allocator@D@2@@std@@V?$weak_ptr@VRawImageData@@@2@@std@@PAX@std@@SAXAAV?$allocator@U?$_Tree_node@U?$pair@$$CBV?$basic_string@DU?$char_traits@D@std@@V?$allocator@D@2@@std@@V?$weak_ptr@VRawImageData@@@2@@std@@PAX@std@@@1@PAU01@@Z 00400000 f   ZoomingDemo.obj
 0001:fffff000       __ehhandler$??$_Resize_reallocate@U_Value_init_tag@std@@@?$vector@PAVDisplayableObject@@V?$allocator@PAVDisplayableObject@@@std@@@std@@AAEXIABU_Value_init_tag@1@@Z 00400000 f   ZoomingDemo.obj
 0001:fffff000       __ehhandler$??0?$basic_string@DU?$char_traits@D@std@@V?$allocator@D@2@@std@@QAE@$$QAV01@@Z 00400000 f   ZoomingDemo.obj
 0001:fffff000       __ehhandler$??1?$_Alloc_construct_ptr@V?$allocator@U?$_Tree_node@U?$pair@$$CBV?$basic_string@DU?$char_traits@D@std@@V?$allocator@D@2@@std@@V?$shared_ptr@VRawImageData@@@2@@std@@PAX@std@@@std@@@std@@QAE@XZ 00400000 f   ZoomingDemo.obj
 0001:fffff000       __ehhandler$??1?$_Alloc_construct_ptr@V?$allocator@U?$_Tree_node@U?$pair@$$CBV?$basic_string@DU?$char_traits@D@std@@V?$allocator@D@2@@std@@V?$weak_ptr@VRawImageData@@@2@@std@@PAX@std@@@std@@@std@@QAE@XZ 00400000 f   ZoomingDemo.obj
 0001:fffff000       __ehhandler$??1?$_Tree_temp_node@V?$allocator@U?$_Tree_node@U?$pair@$$CBV?$basic_string@DU?$char_traits@D@std@@V?$allocator@D@2@@std@@V?$shared_ptr@VRawImageData@@@2@@std@@PAX@std@@@std@@@std@@QAE@XZ 00400000 f   ZoomingDemo.obj
 0001:fffff000       __ehhandler$??1?$_Tree_temp_node@V?$allocator@U?$_Tree_node@U?$pair@$$CBV?$basic_string@DU?$char_traits@D@std@@V?$allocator@D@2@@std@@V?$weak_ptr@VRawImageData@@@2@@std@@PAX@std@@@std@@@std@@QAE@XZ 00400000 f   ZoomingDemo.obj
 0001:fffff000       __ehhandler$??1RawImageData@@QAE@XZ 00400000 f   ZoomingDemo.obj
 0001:fffff000       __ehhandler$??1_Sentry_base@?$basic_ostream@DU?$char_traits@D@std@@@std@@QAE@XZ 00400000 f   ZoomingDemo.obj
 0001:fffff000       __ehhandler$?_Deallocate_for_capacity@?$basic_string@DU?$char_traits@D@std@@V?$allocator@D@2@@std@@CAXAAV?$allocator@D@2@QADI@Z 00400000 f   ZoomingDemo.obj
 0001:fffff000       __unwindfunclet$??$?0U?$pair@V?$basic_string@DU?$char_traits@D@std@@V?$allocator@D@2@@std@@V?$shared_ptr@VRawImageData@@@2@@std@@@?$_Tree_temp_node@V?$allocator@U?$_Tree_node@U?$pair@$$CBV?$basic_string@DU?$char_traits@D@std@@V?$allocator@D@2@@std@@V?$shared_ptr@VRawImageData@@@2@@std@@PAX@std@@@std@@@std@@QAE@AAV?$allocator@U?$_Tree_node@U?$pair@$$CBV?$basic_string@DU?$char_traits@D@std@@V?$allocator@D@2@@std@@V?$shared_ptr@VRawImageData@@@2@@std@@PAX@std@@@1@PAU?$_Tree_node@U?$pair@$$CBV?$basic_string@DU?$char_traits@D@std@@V?$allocator@D@2@@std@@V?$shared_ptr@VRawImageData@@@2@@std@@PAX@1@$$QAU?$pair@V?$basic_string@DU?$char_traits@D@std@@V?$allocator@D@2@@std@@V?$shared_ptr@VRawImageData@@@2@@1@@Z$0 00400000 f   ZoomingDemo.obj
 0001:fffff000       __unwindfunclet$??$?0U?$pair@V?$basic_string@DU?$char_traits@D@std@@V?$allocator@D@2@@std@@V?$weak_ptr@VRawImageData@@@2@@std@@@?$_Tree_temp_node@V?$allocator@U?$_Tree_node@U?$pair@$$CBV?$basic_string@DU?$char_traits@D@std@@V?$allocator@D@2@@std@@V?$weak_ptr@VRawImageData@@@2@@std@@PAX@std@@@std@@@std@@QAE@AAV?$allocator@U?$_Tree_node@U?$pair@$$CBV?$basic_string@DU?$char_traits@D@std@@V?$allocator@D@2@@std@@V?$weak_ptr@VRawImageData@@@2@@std@@PAX@std@@@1@PAU?$_Tree_node@U?$pair@$$CBV?$basic_string@DU?$char_traits@D@std@@V?$allocator@D@2@@std@@V?$weak_ptr@VRawImageData@@@2@@std@@PAX@1@$$QAU?$pair@V?$basic_string@DU?$char_traits@D@std@@V?$allocator@D@2@@std@@V?$weak_ptr@VRawImageData@@@2@@1@@Z$0 00400000 f   ZoomingDemo.obj
 0001:fffff000       __unwindfunclet$??$?0VRawImageData@@$0A@@?$shared_ptr@VRawImageData@@@std@@QAE@PAVRawImageData@@@Z$0 00400000 f   ZoomingDemo.obj
 0001:fffff000       __unwindfunclet$??$?6U?$char_traits@D@std@@@std@@YAAAV?$basic_ostream@DU?$char_traits@D@std@@@0@AAV10@PBD@Z$2 00400000 f   ZoomingDemo.obj
 0001:fffff000       __unwindfunclet$??$_Construct@$00PBD@?$basic_string@DU?$char_traits@D@std@@V?$allocator@D@2@@std@@AAEXQBDI@Z$0 00400000 f   ZoomingDemo.obj
 0001:fffff000       __unwindfunclet$??$_Construct@$01PBD@?$basic_string@DU?$char_traits@D@std@@V?$allocator@D@2@@std@@AAEXQBDI@Z$0 00400000 f   ZoomingDemo.obj
 0001:fffff000       __unwindfunclet$??$_Insert_string@DU?$char_traits@D@std@@I@std@@YAAAV?$basic_ostream@DU?$char_traits@D@std@@@0@AAV10@QBDI@Z$2 00400000 f   ZoomingDemo.obj
 0001:fffff000       __unwindfunclet$??$_Uninitialized_move@PAPAVDisplayableObject@@V?$allocator@PAVDisplayableObject@@@std@@@std@@YAPAPAVDisplayableObject@@QAPAV1@0PAPAV1@AAV?$allocator@PAVDisplayableObject@@@0@@Z$0 00400000 f   ZoomingDemo.obj
 0001:fffff000       __unwindfunclet$??$_Uninitialized_value_construct_n@V?$allocator@PAVDisplayableObject@@@std@@@std@@YAPAPAVDisplayableObject@@PAPAV1@IAAV?$allocator@PAVDisplayableObject@@@0@@Z$0 00400000 f   ZoomingDemo.obj
 0001:fffff000       __unwindfunclet$??0?$_Tree_temp_node_alloc@V?$allocator@U?$_Tree_node@U?$pair@$$CBV?$basic_string@DU?$char_traits@D@std@@V?$allocator@D@2@@std@@V?$shared_ptr@VRawImageData@@@2@@std@@PAX@std@@@std@@@std@@QAE@AAV?$allocator@U?$_Tree_node@U?$pair@$$CBV?$basic_string@DU?$char_traits@D@std@@V?$allocator@D@2@@std@@V?$shared_ptr@VRawImageData@@@2@@std@@PAX@std@@@1@@Z$0 00400000 f   ZoomingDemo.obj
 0001:fffff000       __unwindfunclet$??0?$_Tree_temp_node_alloc@V?$allocator@U?$_Tree_node@U?$pair@$$CBV?$basic_string@DU?$char_traits@D@std@@V?$allocator@D@2@@std@@V?$weak_ptr@VRawImageData@@@2@@std@@PAX@std@@@std@@@std@@QAE@AAV?$allocator@U?$_Tree_node@U?$pair@$$CBV?$basic_string@DU?$char_traits@D@std@@V?$allocator@D@2@@std@@V?$weak_ptr@VRawImageData@@@2@@std@@PAX@std@@@1@@Z$0 00400000 f   ZoomingDemo.obj
 0001:fffff000       __unwindfunclet$??0?$basic_string@DU?$char_traits@D@std@@V?$allocator@D@2@@std@@QAE@ABV01@@Z$0 00400000 f   ZoomingDemo.obj
 0001:fffff000       __unwindfunclet$??0?$basic_string@DU?$char_traits@D@std@@V?$allocator@D@2@@std@@QAE@QBD@Z$0 00400000 f   ZoomingDemo.obj
 0001:fffff000       __unwindfunclet$??0DragableImageObject@@QAE@HHPAVBaseEngine@@V?$basic_string@DU?$char_traits@D@std@@V?$allocator@D@2@@std@@_N2@Z$0 00400000 f   ZoomingDemo.obj
 0001:fffff000       __unwindfunclet$??0DragableObject@@QAE@HHPAVBaseEngine@@HH_N1@Z$0 00400000 f   ZoomingDemo.obj
 0001:fffff000       __unwindfunclet$??0ImageManager@@QAE@XZ$0 00400000 f   ZoomingDemo.obj
 0001:fffff000       __unwindfunclet$??0RawImageData@@QAE@V?$basic_string@DU?$char_traits@D@std@@V?$allocator@D@2@@std@@@Z$0 00400000 f   ZoomingDemo.obj
 0001:fffff000       __unwindfunclet$??0sentry@?$basic_ostream@DU?$char_traits@D@std@@@std@@QAE@AAV12@@Z$0 00400000 f   ZoomingDemo.obj
 0001:fffff000       __unwindfunclet$?_Alloc_sentinel_and_proxy@?$_Tree@V?$_Tmap_traits@V?$basic_string@DU?$char_traits@D@std@@V?$allocator@D@2@@std@@V?$shared_ptr@VRawImageData@@@2@U?$less@V?$basic_string@DU?$char_traits@D@std@@V?$allocator@D@2@@std@@@2@V?$allocator@U?$pair@$$CBV?$basic_string@DU?$char_traits@D@std@@V?$allocator@D@2@@std@@V?$shared_ptr@VRawImageData@@@2@@std@@@2@$0A@@std@@@std@@IAEXXZ$0 00400000 f   ZoomingDemo.obj
 0001:fffff000       __unwindfunclet$?_Alloc_sentinel_and_proxy@?$_Tree@V?$_Tmap_traits@V?$basic_string@DU?$char_traits@D@std@@V?$allocator@D@2@@std@@V?$weak_ptr@VRawImageData@@@2@U?$less@V?$basic_string@DU?$char_traits@D@std@@V?$allocator@D@2@@std@@@2@V?$allocator@U?$pair@$$CBV?$basic_string@DU?$char_traits@D@std@@V?$allocator@D@2@@std@@V?$weak_ptr@VRawImageData@@@2@@std@@@2@$0A@@std@@@std@@IAEXXZ$0 00400000 f   ZoomingDemo.obj
 0001:fffff000       __unwindfunclet$?_Orphan_range_locked@?$vector@PAVDisplayableObject@@V?$allocator@PAVDisplayableObject@@@std@@@std@@ABEXPAPAVDisplayableObject@@0@Z$0 00400000 f   ZoomingDemo.obj
 0001:fffff000       __unwindfunclet$?get@ImageManager@@SAPAV1@XZ$0 00400000 f   ZoomingDemo.obj
 0001:fffff000       __unwindfunclet$?getImagePtrbyURL@ImageManager@@QAE?AV?$shared_ptr@VRawImageData@@@std@@V?$basic_string@DU?$char_traits@D@std@@V?$allocator@D@2@@3@_N1@Z$0 00400000 f   ZoomingDemo.obj
 0001:fffff000       __unwindfunclet$?getImagebyURL@ImageManager@@QAE?AVSimpleImage@@V?$basic_string@DU?$char_traits@D@std@@V?$allocator@D@2@@std@@_N1@Z$0 00400000 f   ZoomingDemo.obj
 0001:fffff000       __unwindfunclet$?loadAsNew@ImageManager@@QAE?AV?$shared_ptr@VRawImageData@@@std@@V?$basic_string@DU?$char_traits@D@std@@V?$allocator@D@2@@3@@Z$0 00400000 f   ZoomingDemo.obj
 0001:fffff000       __unwindfunclet$?loadImage@RawImageData@@QAE_NV?$basic_string@DU?$char_traits@D@std@@V?$allocator@D@2@@std@@HHHHH_N@Z$0 00400000 f   ZoomingDemo.obj
 0002:fffbc000       __unwindtable$??$?0U?$pair@V?$basic_string@DU?$char_traits@D@std@@V?$allocator@D@2@@std@@V?$shared_ptr@VRawImageData@@@2@@std@@@?$_Tree_temp_node@V?$allocator@U?$_Tree_node@U?$pair@$$CBV?$basic_string@DU?$char_traits@D@std@@V?$allocator@D@2@@std@@V?$shared_ptr@VRawImageData@@@2@@std@@PAX@std@@@std@@@std@@QAE@AAV?$allocator@U?$_Tree_node@U?$pair@$$CBV?$basic_string@DU?$char_traits@D@std@@V?$allocator@D@2@@std@@V?$shared_ptr@VRawImageData@@@2@@std@@PAX@std@@@1@PAU?$_Tree_node@U?$pair@$$CBV?$basic_string@DU?$char_traits@D@std@@V?$allocator@D@2@@std@@V?$shared_ptr@VRawImageData@@@2@@std@@PAX@1@$$QAU?$pair@V?$basic_string@DU?$char_traits@D@std@@V?$allocator@D@2@@std@@V?$shared_ptr@VRawImageData@@@2@@1@@Z 00400000     ZoomingDemo.obj
 0002:fffbc000       __unwindtable$??$?0U?$pair@V?$basic_string@DU?$char_traits@D@std@@V?$allocator@D@2@@std@@V?$weak_ptr@VRawImageData@@@2@@std@@@?$_Tree_temp_node@V?$allocator@U?$_Tree_node@U?$pair@$$CBV?$basic_string@DU?$char_traits@D@std@@V?$allocator@D@2@@std@@V?$weak_ptr@VRawImageData@@@2@@std@@PAX@std@@@std@@@std@@QAE@AAV?$allocator@U?$_Tree_node@U?$pair@$$CBV?$basic_string@DU?$char_traits@D@std@@V?$allocator@D@2@@std@@V?$weak_ptr@VRawImageData@@@2@@std@@PAX@std@@@1@PAU?$_Tree_node@U?$pair@$$CBV?$basic_string@DU?$char_traits@D@std@@V?$allocator@D@2@@std@@V?$weak_ptr@VRawImageData@@@2@@std@@PAX@1@$$QAU?$pair@V?$basic_string@DU?$char_traits@D@std@@V?$allocator@D@2@@std@@V?$weak_ptr@VRawImageData@@@2@@1@@Z 00400000     ZoomingDemo.obj
 0002:fffbc000       __unwindtable$??$?0VRawImageData@@$0A@@?$shared_ptr@VRawImageData@@@std@@QAE@PAVRawImageData@@@Z 00400000     ZoomingDemo.obj
 0002:fffbc000       __unwindtable$??$_Construct@$00PBD@?$basic_string@DU?$char_traits@D@std@@V?$allocator@D@2@@std@@AAEXQBDI@Z 00400000     ZoomingDemo.obj
 0002:fffbc000       __unwindtable$??$_Construct@$01PBD@?$basic_string@DU?$char_traits@D@std@@V?$allocator@D@2@@std@@AAEXQBDI@Z 00400000     ZoomingDemo.obj
 0002:fffbc000       __unwindtable$??$_Uninitialized_move@PAPAVDisplayableObject@@V?$allocator@PAVDisplayableObject@@@std@@@std@@YAPAPAVDisplayableObject@@QAPAV1@0PAPAV1@AAV?$allocator@PAVDisplayableObject@@@0@@Z 00400000     ZoomingDemo.obj
 0002:fffbc000       __unwindtable$??$_Uninitialized_value_construct_n@V?$allocator@PAVDisplayableObject@@@std@@@std@@YAPAPAVDisplayableObject@@PAPAV1@IAAV?$allocator@PAVDisplayableObject@@@0@@Z 00400000     ZoomingDemo.obj
 0002:fffbc000       __unwindtable$??0?$_Tree_temp_node_alloc@V?$allocator@U?$_Tree_node@U?$pair@$$CBV?$basic_string@DU?$char_traits@D@std@@V?$allocator@D@2@@std@@V?$shared_ptr@VRawImageData@@@2@@std@@PAX@std@@@std@@@std@@QAE@AAV?$allocator@U?$_Tree_node@U?$pair@$$CBV?$basic_string@DU?$char_traits@D@std@@V?$allocator@D@2@@std@@V?$shared_ptr@VRawImageData@@@2@@std@@PAX@std@@@1@@Z 00400000     ZoomingDemo.obj
 0002:fffbc000       __unwindtable$??0?$_Tree_temp_node_alloc@V?$allocator@U?$_Tree_node@U?$pair@$$CBV?$basic_string@DU?$char_traits@D@std@@V?$allocator@D@2@@std@@V?$weak_ptr@VRawImageData@@@2@@std@@PAX@std@@@std@@@std@@QAE@AAV?$allocator@U?$_Tree_node@U?$pair@$$CBV?$basic_string@DU?$char_traits@D@std@@V?$allocator@D@2@@std@@V?$weak_ptr@VRawImageData@@@2@@std@@PAX@std@@@1@@Z 00400000     ZoomingDemo.obj
 0002:fffbc000       __unwindtable$??0?$basic_string@DU?$char_traits@D@std@@V?$allocator@D@2@@std@@QAE@ABV01@@Z 00400000     ZoomingDemo.obj
 0002:fffbc000       __unwindtable$??0?$basic_string@DU?$char_traits@D@std@@V?$allocator@D@2@@std@@QAE@QBD@Z 00400000     ZoomingDemo.obj
 0002:fffbc000       __unwindtable$??0DragableImageObject@@QAE@HHPAVBaseEngine@@V?$basic_string@DU?$char_traits@D@std@@V?$allocator@D@2@@std@@_N2@Z 00400000     ZoomingDemo.obj
 0002:fffbc000       __unwindtable$??0DragableObject@@QAE@HHPAVBaseEngine@@HH_N1@Z 00400000     ZoomingDemo.obj
 0002:fffbc000       __unwindtable$??0ImageManager@@QAE@XZ 00400000     ZoomingDemo.obj
 0002:fffbc000       __unwindtable$??0RawImageData@@QAE@V?$basic_string@DU?$char_traits@D@std@@V?$allocator@D@2@@std@@@Z 00400000     ZoomingDemo.obj
 0002:fffbc000       __unwindtable$??0sentry@?$basic_ostream@DU?$char_traits@D@std@@@std@@QAE@AAV12@@Z 00400000     ZoomingDemo.obj
 0002:fffbc000       __unwindtable$?_Alloc_sentinel_and_proxy@?$_Tree@V?$_Tmap_traits@V?$basic_string@DU?$char_traits@D@std@@V?$allocator@D@2@@std@@V?$shared_ptr@VRawImageData@@@2@U?$less@V?$basic_string@DU?$char_traits@D@std@@V?$allocator@D@2@@std@@@2@V?$allocator@U?$pair@$$CBV?$basic_string@DU?$char_traits@D@std@@V?$allocator@D@2@@std@@V?$shared_ptr@VRawImageData@@@2@@std@@@2@$0A@@std@@@std@@IAEXXZ 00400000     ZoomingDemo.obj
 0002:fffbc000       __unwindtable$?_Alloc_sentinel_and_proxy@?$_Tree@V?$_Tmap_traits@V?$basic_string@DU?$char_traits@D@std@@V?$allocator@D@2@@std@@V?$weak_ptr@VRawImageData@@@2@U?$less@V?$basic_string@DU?$char_traits@D@std@@V?$allocator@D@2@@std@@@2@V?$allocator@U?$pair@$$CBV?$basic_string@DU?$char_traits@D@std@@V?$allocator@D@2@@std@@V?$weak_ptr@VRawImageData@@@2@@std@@@2@$0A@@std@@@std@@IAEXXZ 00400000     ZoomingDemo.obj
 0002:fffbc000       __unwindtable$?_Orphan_range_locked@?$vector@PAVDisplayableObject@@V?$allocator@PAVDisplayableObject@@@std@@@std@@ABEXPAPAVDisplayableObject@@0@Z 00400000     ZoomingDemo.obj
 0002:fffbc000       __unwindtable$?get@ImageManager@@SAPAV1@XZ 00400000     ZoomingDemo.obj
 0002:fffbc000       __unwindtable$?getImagebyURL@ImageManager@@QAE?AVSimpleImage@@V?$basic_string@DU?$char_traits@D@std@@V?$allocator@D@2@@std@@_N1@Z 00400000     ZoomingDemo.obj
 0002:fffbc000       __unwindtable$?loadAsNew@ImageManager@@QAE?AV?$shared_ptr@VRawImageData@@@std@@V?$basic_string@DU?$char_traits@D@std@@V?$allocator@D@2@@3@@Z 00400000     ZoomingDemo.obj
 0002:fffbc000       __unwindtable$?loadImage@RawImageData@@QAE_NV?$basic_string@DU?$char_traits@D@std@@V?$allocator@D@2@@std@@HHHHH_N@Z 00400000     ZoomingDemo.obj
 0000:00000000       _volmd                     00400000     ZoomingDemo.obj
 0000:00000000       _volmd                     00400000     ZoomingDemo.obj
 0000:00000000       _volmd                     00400000     ZoomingDemo.obj
 0000:00000000       _volmd                     00400000     ZoomingDemo.obj
 0000:00000000       _volmd                     00400000     ZoomingDemo.obj
 0000:00000000       _volmd                     00400000     ZoomingDemo.obj
 0000:00000000       _volmd                     00400000     ZoomingDemo.obj
 0000:00000000       _volmd                     00400000     ZoomingDemo.obj
 0000:00000000       _volmd                     00400000     ZoomingDemo.obj
 0000:00000000       _volmd                     00400000     ZoomingDemo.obj
 0000:00000000       _volmd                     00400000     ZoomingDemo.obj
 0000:00000000       _volmd                     00400000     ZoomingDemo.obj
 0000:00000000       _volmd                     00400000     ZoomingDemo.obj
 0000:00000000       _volmd                     00400000     ZoomingDemo.obj
 0000:00000000       _volmd                     00400000     ZoomingDemo.obj
 0000:00000000       _volmd                     00400000     ZoomingDemo.obj
 0000:00000000       _volmd                     00400000     ZoomingDemo.obj
 0000:00000000       _volmd                     00400000     ZoomingDemo.obj
 0000:00000000       _volmd                     00400000     ZoomingDemo.obj
 0000:00000000       _volmd                     00400000     ZoomingDemo.obj
 0000:00000000       _volmd                     00400000     ZoomingDemo.obj
 0000:00000000       _volmd                     00400000     ZoomingDemo.obj
 0000:00000000       _volmd                     00400000     ZoomingDemo.obj
 0000:00000000       _volmd                     00400000     ZoomingDemo.obj
 0000:00000000       _volmd                     00400000     ZoomingDemo.obj
 0000:00000000       _volmd                     00400000     ZoomingDemo.obj
 0000:00000000       _volmd                     00400000     ZoomingDemo.obj
 0000:00000000       _volmd                     00400000     ZoomingDemo.obj
 0000:00000000       _volmd                     00400000     ZoomingDemo.obj
 0000:00000000       _volmd                     00400000     ZoomingDemo.obj
 0000:00000000       _volmd                     00400000     ZoomingDemo.obj
 0000:00000000       _volmd                     00400000     ZoomingDemo.obj
 0000:00000000       _volmd                     00400000     ZoomingDemo.obj
 0000:00000000       _volmd                     00400000     ZoomingDemo.obj
 0000:00000000       _volmd                     00400000     ZoomingDemo.obj
 0000:00000000       _volmd                     00400000     ZoomingDemo.obj
 0000:00000000       _volmd                     00400000     ZoomingDemo.obj
 0000:00000000       _volmd                     00400000     ZoomingDemo.obj
 0000:00000000       _volmd                     00400000     ZoomingDemo.obj
 0000:00000000       _volmd                     00400000     ZoomingDemo.obj
 0000:00000000       _volmd                     00400000     ZoomingDemo.obj
 0000:00000000       _volmd                     00400000     ZoomingDemo.obj
 0000:00000000       _volmd                     00400000     ZoomingDemo.obj
 0002:fffbc000       __ehfuncinfo$??$_Deallocate@$07$0A@@std@@YAXPAXI@Z 00400000     mainfunction.obj
 0002:fffbc000       __ehfuncinfo$??$_Deallocate_plain@V?$allocator@U_Container_proxy@std@@@std@@@std@@YAXAAV?$allocator@U_Container_proxy@std@@@0@QAU_Container_proxy@0@@Z 00400000     mainfunction.obj
 0002:fffbc000       __ehfuncinfo$??$_Freenode0@V?$allocator@U?$_Tree_node@U?$pair@$$CBV?$basic_string@DU?$char_traits@D@std@@V?$allocator@D@2@@std@@V?$weak_ptr@VRawImageData@@@2@@std@@PAX@std@@@std@@@?$_Tree_node@U?$pair@$$CBV?$basic_string@DU?$char_traits@D@std@@V?$allocator@D@2@@std@@V?$weak_ptr@VRawImageData@@@2@@std@@PAX@std@@SAXAAV?$allocator@U?$_Tree_node@U?$pair@$$CBV?$basic_string@DU?$char_traits@D@std@@V?$allocator@D@2@@std@@V?$weak_ptr@VRawImageData@@@2@@std@@PAX@std@@@1@PAU01@@Z 00400000     mainfunction.obj
 0002:fffbc000       __ehfuncinfo$??$_Freenode@V?$allocator@U?$_Tree_node@U?$pair@$$CBV?$basic_string@DU?$char_traits@D@std@@V?$allocator@D@2@@std@@V?$weak_ptr@VRawImageData@@@2@@std@@PAX@std@@@std@@@?$_Tree_node@U?$pair@$$CBV?$basic_string@DU?$char_traits@D@std@@V?$allocator@D@2@@std@@V?$weak_ptr@VRawImageData@@@2@@std@@PAX@std@@SAXAAV?$allocator@U?$_Tree_node@U?$pair@$$CBV?$basic_string@DU?$char_traits@D@std@@V?$allocator@D@2@@std@@V?$weak_ptr@VRawImageData@@@2@@std@@PAX@std@@@1@PAU01@@Z 00400000     mainfunction.obj
 0002:fffbc000       __ehfuncinfo$?_Deallocate_for_capacity@?$basic_string@DU?$char_traits@D@std@@V?$allocator@D@2@@std@@CAXAAV?$allocator@D@2@QADI@Z 00400000     mainfunction.obj
 0001:fffff000       __ehhandler$??$_Deallocate@$07$0A@@std@@YAXPAXI@Z 00400000 f   mainfunction.obj
 0001:fffff000       __ehhandler$??$_Deallocate_plain@V?$allocator@U_Container_proxy@std@@@std@@@std@@YAXAAV?$allocator@U_Container_proxy@std@@@0@QAU_Container_proxy@0@@Z 00400000 f   mainfunction.obj
 0001:fffff000       __ehhandler$??$_Freenode0@V?$allocator@U?$_Tree_node@U?$pair@$$CBV?$basic_string@DU?$char_traits@D@std@@V?$allocator@D@2@@std@@V?$weak_ptr@VRawImageData@@@2@@std@@PAX@std@@@std@@@?$_Tree_node@U?$pair@$$CBV?$basic_string@DU?$char_traits@D@std@@V?$allocator@D@2@@std@@V?$weak_ptr@VRawImageData@@@2@@std@@PAX@std@@SAXAAV?$allocator@U?$_Tree_node@U?$pair@$$CBV?$basic_string@DU?$char_traits@D@std@@V?$allocator@D@2@@std@@V?$weak_ptr@VRawImageData@@@2@@std@@PAX@std@@@1@PAU01@@Z 00400000 f   mainfunction.obj
 0001:fffff000       __ehhandler$??$_Freenode@V?$allocator@U?$_Tree_node@U?$pair@$$CBV?$basic_string@DU?$char_traits@D@std@@V?$allocator@D@2@@std@@V?$weak_ptr@VRawImageData@@@2@@std@@PAX@std@@@std@@@?$_Tree_node@U?$pair@$$CBV?$basic_string@DU?$char_traits@D@std@@V?$allocator@D@2@@std@@V?$weak_ptr@VRawImageData@@@2@@std@@PAX@std@@SAXAAV?$allocator@U?$_Tree_node@U?$pair@$$CBV?$basic_string@DU?$char_traits@D@std@@V?$allocator@D@2@@std@@V?$weak_ptr@VRawImageData@@@2@@std@@PAX@std@@@1@PAU01@@Z 00400000 f   mainfunction.obj
 0001:fffff000       __ehhandler$?_Deallocate_for_capacity@?$basic_string@DU?$char_traits@D@std@@V?$allocator@D@2@@std@@CAXAAV?$allocator@D@2@QADI@Z 00400000 f   mainfunction.obj
 0000:00000000       _volmd                     00400000     mainfunction.obj
 0000:00000000       _volmd                     00400000     mainfunction.obj
 0000:00000000       _volmd                     00400000     mainfunction.obj
 0000:00000000       _volmd                     00400000     mainfunction.obj
 0000:00000000       _volmd                     00400000     mainfunction.obj
 0000:00000000       _volmd                     00400000     mainfunction.obj
 0000:00000000       _volmd                     00400000     mainfunction.obj
 0000:00000000       _volmd                     00400000     mainfunction.obj
 0000:fffa8000       .debug$S                   00400000     SDL2:SDL2.dll
 0000:fffa8000       .debug$S                   00400000     SDL2:SDL2.dll
 0000:fffa8000       .debug$S                   00400000     SDL2:SDL2.dll
 0000:fffa8000       .debug$S                   00400000     SDL2:SDL2.dll
 0000:fffa8000       .debug$S                   00400000     SDL2:SDL2.dll
 0000:fffa8000       .debug$S                   00400000     SDL2:SDL2.dll
 0000:fffa8000       .debug$S                   00400000     SDL2:SDL2.dll
 0000:fffa8000       .debug$S                   00400000     SDL2:SDL2.dll
 0000:fffa8000       .debug$S                   00400000     SDL2:SDL2.dll
 0000:fffa8000       .debug$S                   00400000     SDL2:SDL2.dll
 0000:fffa8000       .debug$S                   00400000     SDL2:SDL2.dll
 0000:fffa8000       .debug$S                   00400000     SDL2:SDL2.dll
 0000:fffa8000       .debug$S                   00400000     SDL2:SDL2.dll
 0000:fffa8000       .debug$S                   00400000     SDL2:SDL2.dll
 0000:fffa8000       .debug$S                   00400000     SDL2:SDL2.dll
 0000:fffa8000       .debug$S                   00400000     SDL2:SDL2.dll
 0000:fffa8000       .debug$S                   00400000     SDL2:SDL2.dll
 0000:fffa8000       .debug$S                   00400000     SDL2:SDL2.dll
 0000:fffa8000       .debug$S                   00400000     SDL2:SDL2.dll
 0000:fffa8000       .debug$S                   00400000     SDL2:SDL2.dll
 0000:fffa8000       .debug$S                   00400000     SDL2:SDL2.dll
 0000:fffa8000       .debug$S                   00400000     SDL2:SDL2.dll
 0000:fffa8000       .debug$S                   00400000     SDL2_image:SDL2_image.dll
 0000:fffa8000       .debug$S                   00400000     SDL2_ttf:SDL2_ttf.dll
 0000:fffa8000       .debug$S                   00400000     SDL2_ttf:SDL2_ttf.dll
 0000:fffa8000       .debug$S                   00400000     SDL2_ttf:SDL2_ttf.dll
 0000:fffa8000       .debug$S                   00400000     SDL2_ttf:SDL2_ttf.dll
 0000:fffa8000       .debug$S                   00400000     SDL2_ttf:SDL2_ttf.dll
 0000:fffa8000       .debug$S                   00400000     ucrtd:ucrtbased.dll
 0000:fffa8000       .debug$S                   00400000     ucrtd:ucrtbased.dll
 0000:fffa8000       .debug$S                   00400000     ucrtd:ucrtbased.dll
 0000:fffa8000       .debug$S                   00400000     ucrtd:ucrtbased.dll
 0000:fffa8000       .debug$S                   00400000     ucrtd:ucrtbased.dll
 0000:fffa8000       .debug$S                   00400000     ucrtd:ucrtbased.dll
 0000:fffa8000       .debug$S                   00400000     ucrtd:ucrtbased.dll
 0000:fffa8000       .debug$S                   00400000     ucrtd:ucrtbased.dll
 0000:fffa8000       .debug$S                   00400000     ucrtd:ucrtbased.dll
 0000:fffa8000       .debug$S                   00400000     ucrtd:ucrtbased.dll
 0000:fffa8000       .debug$S                   00400000     ucrtd:ucrtbased.dll
 0000:fffa8000       .debug$S                   00400000     ucrtd:ucrtbased.dll
 0000:fffa8000       .debug$S                   00400000     ucrtd:ucrtbased.dll
 0000:fffa8000       .debug$S                   00400000     ucrtd:ucrtbased.dll
 0000:fffa8000       .debug$S                   00400000     ucrtd:ucrtbased.dll
 0000:fffa8000       .debug$S                   00400000     ucrtd:ucrtbased.dll
 0000:fffa8000       .debug$S                   00400000     ucrtd:ucrtbased.dll
 0000:fffa8000       .debug$S                   00400000     ucrtd:ucrtbased.dll
 0000:fffa8000       .debug$S                   00400000     ucrtd:ucrtbased.dll
 0000:fffa8000       .debug$S                   00400000     ucrtd:ucrtbased.dll
 0000:fffa8000       .debug$S                   00400000     ucrtd:ucrtbased.dll
 0000:fffa8000       .debug$S                   00400000     ucrtd:ucrtbased.dll
 0000:fffa8000       .debug$S                   00400000     ucrtd:ucrtbased.dll
 0000:fffa8000       .debug$S                   00400000     ucrtd:ucrtbased.dll
 0000:fffa8000       .debug$S                   00400000     ucrtd:ucrtbased.dll
 0000:fffa8000       .debug$S                   00400000     ucrtd:ucrtbased.dll
 0000:fffa8000       .debug$S                   00400000     ucrtd:ucrtbased.dll
 0000:fffa8000       .debug$S                   00400000     ucrtd:ucrtbased.dll
 0000:fffa8000       .debug$S                   00400000     ucrtd:ucrtbased.dll
 0000:fffa8000       .debug$S                   00400000     ucrtd:ucrtbased.dll
 0000:fffa8000       .debug$S                   00400000     ucrtd:ucrtbased.dll
 0000:fffa8000       .debug$S                   00400000     ucrtd:ucrtbased.dll
 0000:fffa8000       .debug$S                   00400000     ucrtd:ucrtbased.dll
 0000:fffa8000       .debug$S                   00400000     ucrtd:ucrtbased.dll
 0000:fffa8000       .debug$S                   00400000     ucrtd:ucrtbased.dll
 0000:fffa8000       .debug$S                   00400000     ucrtd:ucrtbased.dll
 0000:fffa8000       .debug$S                   00400000     ucrtd:ucrtbased.dll
 0000:fffa8000       .debug$S                   00400000     ucrtd:ucrtbased.dll
 0000:fffa8000       .debug$S                   00400000     ucrtd:ucrtbased.dll
 0000:fffa8000       .debug$S                   00400000     ucrtd:ucrtbased.dll
 0000:fffa8000       .debug$S                   00400000     ucrtd:ucrtbased.dll
 0000:fffa8000       .debug$S                   00400000     ucrtd:ucrtbased.dll
 0000:fffa8000       .debug$S                   00400000     ucrtd:ucrtbased.dll
 0000:fffa8000       .debug$S                   00400000     ucrtd:ucrtbased.dll
 0000:fffa8000       .debug$S                   00400000     ucrtd:ucrtbased.dll
 0000:fffa8000       .debug$S                   00400000     ucrtd:ucrtbased.dll
 0000:fffa8000       .debug$S                   00400000     ucrtd:ucrtbased.dll
 0000:fffa8000       .debug$S                   00400000     kernel32:KERNEL32.dll
 0000:fffa8000       .debug$S                   00400000     kernel32:KERNEL32.dll
 0000:fffa8000       .debug$S                   00400000     kernel32:KERNEL32.dll
 0000:fffa8000       .debug$S                   00400000     kernel32:KERNEL32.dll
 0000:fffa8000       .debug$S                   00400000     kernel32:KERNEL32.dll
 0000:fffa8000       .debug$S                   00400000     kernel32:KERNEL32.dll
 0000:fffa8000       .debug$S                   00400000     kernel32:KERNEL32.dll
 0000:fffa8000       .debug$S                   00400000     kernel32:KERNEL32.dll
 0000:fffa8000       .debug$S                   00400000     kernel32:KERNEL32.dll
 0000:fffa8000       .debug$S                   00400000     kernel32:KERNEL32.dll
 0000:fffa8000       .debug$S                   00400000     kernel32:KERNEL32.dll
 0000:fffa8000       .debug$S                   00400000     kernel32:KERNEL32.dll
 0000:fffa8000       .debug$S                   00400000     kernel32:KERNEL32.dll
 0000:fffa8000       .debug$S                   00400000     kernel32:KERNEL32.dll
 0000:fffa8000       .debug$S                   00400000     kernel32:KERNEL32.dll
 0000:fffa8000       .debug$S                   00400000     kernel32:KERNEL32.dll
 0000:fffa8000       .debug$S                   00400000     kernel32:KERNEL32.dll
 0000:fffaa000       __guard_fids___except_handler4 00400000     MSVCRTD:chandler4gs.obj
 0000:00000000       _volmd                     00400000     MSVCRTD:cpu_disp.obj
 0000:fffaa000       __guard_fids_?pre_c_initialization@@YAHXZ 00400000     MSVCRTD:exe_main.obj
 0000:fffaa000       __guard_fids__             00400000     MSVCRTD:exe_main.obj
 0000:00000000       _volmd                     00400000     MSVCRTD:gs_report.obj
 0000:fffaa000       __guard_fids__             00400000     MSVCRTD:guard_support.obj
 0000:fffaa000       __guard_fids__             00400000     MSVCRTD:guard_support.obj
 0000:fffaa000       __guard_fids___guard_icall_checks_enforced 00400000     MSVCRTD:guard_support.obj
 0000:00000000       _volmd                     00400000     MSVCRTD:guard_support.obj
 0000:fffaa000       __guard_fids__             00400000     MSVCRTD:std_type_info_static.obj
 0000:fffaa000       __guard_fids__             00400000     MSVCRTD:throw_bad_alloc.obj
 0000:fffaa000       __guard_fids__             00400000     MSVCRTD:throw_bad_alloc.obj
 0000:fffaa000       __guard_fids__             00400000     MSVCRTD:throw_bad_alloc.obj
 0000:fffaa000       __guard_fids__             00400000     MSVCRTD:throw_bad_alloc.obj
 0000:fffaa000       __guard_fids__             00400000     MSVCRTD:throw_bad_alloc.obj
 0000:fffaa000       __guard_fids__             00400000     MSVCRTD:throw_bad_alloc.obj
 0000:fffaa000       __guard_fids__             00400000     MSVCRTD:throw_bad_alloc.obj
 0000:fffaa000       __guard_fids__             00400000     MSVCRTD:throw_bad_alloc.obj
 0000:fffaa000       __guard_fids____scrt_set_unhandled_exception_filter 00400000     MSVCRTD:utility_desktop.obj
 0000:00000000       _volmd                     00400000     msvcprtd:vector_algorithms.obj
 0000:00000000       _volmd                     00400000     msvcprtd:vector_algorithms.obj
 0000:00000000       _volmd                     00400000     msvcprtd:vector_algorithms.obj
 0000:00000000       _volmd                     00400000     msvcprtd:vector_algorithms.obj
 0000:00000000       _volmd                     00400000     msvcprtd:vector_algorithms.obj
 0000:00000000       _volmd                     00400000     msvcprtd:vector_algorithms.obj
 0000:00000000       _volmd                     00400000     msvcprtd:vector_algorithms.obj
 0000:00000000       _volmd                     00400000     msvcprtd:vector_algorithms.obj
 0000:00000000       _volmd                     00400000     msvcprtd:vector_algorithms.obj
 0000:00000000       _volmd                     00400000     msvcprtd:vector_algorithms.obj
 0000:00000000       _volmd                     00400000     msvcprtd:vector_algorithms.obj
 0000:00000000       _volmd                     00400000     msvcprtd:vector_algorithms.obj
 0000:00000000       _volmd                     00400000     msvcprtd:vector_algorithms.obj
 0000:00000000       _volmd                     00400000     msvcprtd:vector_algorithms.obj
 0000:00000000       _volmd                     00400000     msvcprtd:vector_algorithms.obj
 0000:00000000       _volmd                     00400000     msvcprtd:vector_algorithms.obj
 0000:00000000       _volmd                     00400000     msvcprtd:vector_algorithms.obj
 0000:fffa8000       .debug$S                   00400000     msvcprtd:MSVCP140D.dll
 0000:fffa8000       .debug$S                   00400000     msvcprtd:MSVCP140D.dll
 0000:fffa8000       .debug$S                   00400000     msvcprtd:MSVCP140D.dll
 0000:fffa8000       .debug$S                   00400000     msvcprtd:MSVCP140D.dll
 0000:fffa8000       .debug$S                   00400000     msvcprtd:MSVCP140D.dll
 0000:fffa8000       .debug$S                   00400000     msvcprtd:MSVCP140D.dll
 0000:fffa8000       .debug$S                   00400000     msvcprtd:MSVCP140D.dll
 0000:fffa8000       .debug$S                   00400000     msvcprtd:MSVCP140D.dll
 0000:fffa8000       .debug$S                   00400000     msvcprtd:MSVCP140D.dll
 0000:fffa8000       .debug$S                   00400000     msvcprtd:MSVCP140D.dll
 0000:fffa8000       .debug$S                   00400000     msvcprtd:MSVCP140D.dll
 0000:fffa8000       .debug$S                   00400000     msvcprtd:MSVCP140D.dll
 0000:fffa8000       .debug$S                   00400000     msvcprtd:MSVCP140D.dll
 0000:fffa8000       .debug$S                   00400000     msvcprtd:MSVCP140D.dll
 0000:fffa8000       .debug$S                   00400000     msvcprtd:MSVCP140D.dll
 0000:fffa8000       .debug$S                   00400000     msvcprtd:MSVCP140D.dll
 0000:fffa8000       .debug$S                   00400000     msvcprtd:MSVCP140D.dll
 0000:fffa8000       .debug$S                   00400000     msvcprtd:MSVCP140D.dll
 0000:fffa8000       .debug$S                   00400000     msvcprtd:MSVCP140D.dll
 0000:fffa8000       .debug$S                   00400000     msvcprtd:MSVCP140D.dll
 0000:fffa8000       .debug$S                   00400000     msvcprtd:MSVCP140D.dll
 0000:fffa8000       .debug$S                   00400000     vcruntimed:VCRUNTIME140D.dll
 0000:fffa8000       .debug$S                   00400000     vcruntimed:VCRUNTIME140D.dll
 0000:fffa8000       .debug$S                   00400000     vcruntimed:VCRUNTIME140D.dll
 0000:fffa8000       .debug$S                   00400000     vcruntimed:VCRUNTIME140D.dll
 0000:fffa8000       .debug$S                   00400000     vcruntimed:VCRUNTIME140D.dll
 0000:fffa8000       .debug$S                   00400000     vcruntimed:VCRUNTIME140D.dll
 0000:fffa8000       .debug$S                   00400000     vcruntimed:VCRUNTIME140D.dll
 0000:fffa8000       .debug$S                   00400000     vcruntimed:VCRUNTIME140D.dll
 0000:fffa8000       .debug$S                   00400000     vcruntimed:VCRUNTIME140D.dll
 0000:fffa8000       .debug$S                   00400000     vcruntimed:VCRUNTIME140D.dll
 0000:fffa8000       .debug$S                   00400000     vcruntimed:VCRUNTIME140D.dll
 0000:fffa8000       .debug$S                   00400000     vcruntimed:VCRUNTIME140D.dll
 0000:fffa8000       .debug$S                   00400000     vcruntimed:VCRUNTIME140D.dll
 0000:fffa8000       .debug$S                   00400000     vcruntimed:VCRUNTIME140D.dll
 0000:fffaa004       __guard_fids__             00400004     MSVCRTD:exe_main.obj
 0002:fffbc008       __ehfuncinfo$??$_Uninitialized_value_construct_n@V?$allocator@PAVDisplayableObject@@@std@@@std@@YAPAPAVDisplayableObject@@PAPAV1@IAAV?$allocator@PAVDisplayableObject@@@0@@Z 00400008     BaseEngine.obj
 0002:fffbc008       __ehfuncinfo$??0sentry@?$basic_ostream@DU?$char_traits@D@std@@@std@@QAE@AAV12@@Z 00400008     BouncingBall.obj
 0002:fffbc008       __ehfuncinfo$??$_Uninitialized_move@PAPAVDisplayableObject@@V?$allocator@PAVDisplayableObject@@@std@@@std@@YAPAPAVDisplayableObject@@QAPAV1@0PAPAV1@AAV?$allocator@PAVDisplayableObject@@@0@@Z 00400008     BouncingBallMain.obj
 0002:fffbc008       __ehfuncinfo$??$_Uninitialized_value_construct_n@V?$allocator@PAVDisplayableObject@@@std@@@std@@YAPAPAVDisplayableObject@@PAPAV1@IAAV?$allocator@PAVDisplayableObject@@@0@@Z 00400008     BouncingBallMain.obj
 0002:fffbc008       __ehfuncinfo$??0sentry@?$basic_ostream@DU?$char_traits@D@std@@@std@@QAE@AAV12@@Z 00400008     BouncingBallMain.obj
 0002:fffbc008       __ehfuncinfo$?_Orphan_range_locked@?$vector@PAVDisplayableObject@@V?$allocator@PAVDisplayableObject@@@std@@@std@@ABEXPAPAVDisplayableObject@@0@Z 00400008     BouncingBallMain.obj
 0002:fffbc008       __ehfuncinfo$??0sentry@?$basic_ostream@DU?$char_traits@D@std@@@std@@QAE@AAV12@@Z 00400008     DisplayableObject.obj
 0002:fffbc008       __ehfuncinfo$??$?0U?$pair@V?$basic_string@DU?$char_traits@D@std@@V?$allocator@D@2@@std@@V?$shared_ptr@VRawImageData@@@2@@std@@@?$_Tree_temp_node@V?$allocator@U?$_Tree_node@U?$pair@$$CBV?$basic_string@DU?$char_traits@D@std@@V?$allocator@D@2@@std@@V?$shared_ptr@VRawImageData@@@2@@std@@PAX@std@@@std@@@std@@QAE@AAV?$allocator@U?$_Tree_node@U?$pair@$$CBV?$basic_string@DU?$char_traits@D@std@@V?$allocator@D@2@@std@@V?$shared_ptr@VRawImageData@@@2@@std@@PAX@std@@@1@PAU?$_Tree_node@U?$pair@$$CBV?$basic_string@DU?$char_traits@D@std@@V?$allocator@D@2@@std@@V?$shared_ptr@VRawImageData@@@2@@std@@PAX@1@$$QAU?$pair@V?$basic_string@DU?$char_traits@D@std@@V?$allocator@D@2@@std@@V?$shared_ptr@VRawImageData@@@2@@1@@Z 00400008     DraggingDemo.obj
 0002:fffbc008       __ehfuncinfo$??$?0U?$pair@V?$basic_string@DU?$char_traits@D@std@@V?$allocator@D@2@@std@@V?$weak_ptr@VRawImageData@@@2@@std@@@?$_Tree_temp_node@V?$allocator@U?$_Tree_node@U?$pair@$$CBV?$basic_string@DU?$char_traits@D@std@@V?$allocator@D@2@@std@@V?$weak_ptr@VRawImageData@@@2@@std@@PAX@std@@@std@@@std@@QAE@AAV?$allocator@U?$_Tree_node@U?$pair@$$CBV?$basic_string@DU?$char_traits@D@std@@V?$allocator@D@2@@std@@V?$weak_ptr@VRawImageData@@@2@@std@@PAX@std@@@1@PAU?$_Tree_node@U?$pair@$$CBV?$basic_string@DU?$char_traits@D@std@@V?$allocator@D@2@@std@@V?$weak_ptr@VRawImageData@@@2@@std@@PAX@1@$$QAU?$pair@V?$basic_string@DU?$char_traits@D@std@@V?$allocator@D@2@@std@@V?$weak_ptr@VRawImageData@@@2@@1@@Z 00400008     DraggingDemo.obj
 0002:fffbc008       __ehfuncinfo$??$_Construct@$00PBD@?$basic_string@DU?$char_traits@D@std@@V?$allocator@D@2@@std@@AAEXQBDI@Z 00400008     DraggingDemo.obj
 0002:fffbc008       __ehfuncinfo$??$_Construct@$01PBD@?$basic_string@DU?$char_traits@D@std@@V?$allocator@D@2@@std@@AAEXQBDI@Z 00400008     DraggingDemo.obj
 0002:fffbc008       __ehfuncinfo$??$_Uninitialized_move@PAPAVDisplayableObject@@V?$allocator@PAVDisplayableObject@@@std@@@std@@YAPAPAVDisplayableObject@@QAPAV1@0PAPAV1@AAV?$allocator@PAVDisplayableObject@@@0@@Z 00400008     DraggingDemo.obj
 0002:fffbc008       __ehfuncinfo$??$_Uninitialized_value_construct_n@V?$allocator@PAVDisplayableObject@@@std@@@std@@YAPAPAVDisplayableObject@@PAPAV1@IAAV?$allocator@PAVDisplayableObject@@@0@@Z 00400008     DraggingDemo.obj
 0002:fffbc008       __ehfuncinfo$??0?$_Tree_temp_node_alloc@V?$allocator@U?$_Tree_node@U?$pair@$$CBV?$basic_string@DU?$char_traits@D@std@@V?$allocator@D@2@@std@@V?$shared_ptr@VRawImageData@@@2@@std@@PAX@std@@@std@@@std@@QAE@AAV?$allocator@U?$_Tree_node@U?$pair@$$CBV?$basic_string@DU?$char_traits@D@std@@V?$allocator@D@2@@std@@V?$shared_ptr@VRawImageData@@@2@@std@@PAX@std@@@1@@Z 00400008     DraggingDemo.obj
 0002:fffbc008       __ehfuncinfo$??0?$_Tree_temp_node_alloc@V?$allocator@U?$_Tree_node@U?$pair@$$CBV?$basic_string@DU?$char_traits@D@std@@V?$allocator@D@2@@std@@V?$weak_ptr@VRawImageData@@@2@@std@@PAX@std@@@std@@@std@@QAE@AAV?$allocator@U?$_Tree_node@U?$pair@$$CBV?$basic_string@DU?$char_traits@D@std@@V?$allocator@D@2@@std@@V?$weak_ptr@VRawImageData@@@2@@std@@PAX@std@@@1@@Z 00400008     DraggingDemo.obj
 0002:fffbc008       __ehfuncinfo$??0?$basic_string@DU?$char_traits@D@std@@V?$allocator@D@2@@std@@QAE@ABV01@@Z 00400008     DraggingDemo.obj
 0002:fffbc008       __ehfuncinfo$??0?$basic_string@DU?$char_traits@D@std@@V?$allocator@D@2@@std@@QAE@QBD@Z 00400008     DraggingDemo.obj
 0002:fffbc008       __ehfuncinfo$??0ImageManager@@QAE@XZ 00400008     DraggingDemo.obj
 0002:fffbc008       __ehfuncinfo$??0RawImageData@@QAE@V?$basic_string@DU?$char_traits@D@std@@V?$allocator@D@2@@std@@@Z 00400008     DraggingDemo.obj
 0002:fffbc008       __ehfuncinfo$??0sentry@?$basic_ostream@DU?$char_traits@D@std@@@std@@QAE@AAV12@@Z 00400008     DraggingDemo.obj
 0002:fffbc008       __ehfuncinfo$?_Alloc_sentinel_and_proxy@?$_Tree@V?$_Tmap_traits@V?$basic_string@DU?$char_traits@D@std@@V?$allocator@D@2@@std@@V?$shared_ptr@VRawImageData@@@2@U?$less@V?$basic_string@DU?$char_traits@D@std@@V?$allocator@D@2@@std@@@2@V?$allocator@U?$pair@$$CBV?$basic_string@DU?$char_traits@D@std@@V?$allocator@D@2@@std@@V?$shared_ptr@VRawImageData@@@2@@std@@@2@$0A@@std@@@std@@IAEXXZ 00400008     DraggingDemo.obj
 0002:fffbc008       __ehfuncinfo$?_Alloc_sentinel_and_proxy@?$_Tree@V?$_Tmap_traits@V?$basic_string@DU?$char_traits@D@std@@V?$allocator@D@2@@std@@V?$weak_ptr@VRawImageData@@@2@U?$less@V?$basic_string@DU?$char_traits@D@std@@V?$allocator@D@2@@std@@@2@V?$allocator@U?$pair@$$CBV?$basic_string@DU?$char_traits@D@std@@V?$allocator@D@2@@std@@V?$weak_ptr@VRawImageData@@@2@@std@@@2@$0A@@std@@@std@@IAEXXZ 00400008     DraggingDemo.obj
 0002:fffbc008       __ehfuncinfo$?_Orphan_range_locked@?$vector@PAVDisplayableObject@@V?$allocator@PAVDisplayableObject@@@std@@@std@@ABEXPAPAVDisplayableObject@@0@Z 00400008     DraggingDemo.obj
 0002:fffbc008       __ehfuncinfo$?get@ImageManager@@SAPAV1@XZ 00400008     DraggingDemo.obj
 0002:fffbc008       __ehfuncinfo$?getImagebyURL@ImageManager@@QAE?AVSimpleImage@@V?$basic_string@DU?$char_traits@D@std@@V?$allocator@D@2@@std@@_N1@Z 00400008     DraggingDemo.obj
 0002:fffbc008       __ehfuncinfo$?loadImage@RawImageData@@QAE_NV?$basic_string@DU?$char_traits@D@std@@V?$allocator@D@2@@std@@HHHHH_N@Z 00400008     DraggingDemo.obj
 0001:fffff008       __unwindfunclet$??$?0VRawImageData@@$0A@@?$shared_ptr@VRawImageData@@@std@@QAE@PAVRawImageData@@@Z$1 00400008 f   DraggingDemo.obj
 0001:fffff008       __unwindfunclet$?getImagePtrbyURL@ImageManager@@QAE?AV?$shared_ptr@VRawImageData@@@std@@V?$basic_string@DU?$char_traits@D@std@@V?$allocator@D@2@@3@_N1@Z$1 00400008 f   DraggingDemo.obj
 0001:fffff008       __unwindfunclet$?loadAsNew@ImageManager@@QAE?AV?$shared_ptr@VRawImageData@@@std@@V?$basic_string@DU?$char_traits@D@std@@V?$allocator@D@2@@3@@Z$1 00400008 f   DraggingDemo.obj
 0002:fffbc008       __ehfuncinfo$??0sentry@?$basic_ostream@DU?$char_traits@D@std@@@std@@QAE@AAV12@@Z 00400008     DrawingSurface.obj
 0002:fffbc008       __ehfuncinfo$??0sentry@?$basic_ostream@DU?$char_traits@D@std@@@std@@QAE@AAV12@@Z 00400008     FlashingDemo.obj
 0002:fffbc008       __ehfuncinfo$??$?0U?$pair@V?$basic_string@DU?$char_traits@D@std@@V?$allocator@D@2@@std@@V?$shared_ptr@VRawImageData@@@2@@std@@@?$_Tree_temp_node@V?$allocator@U?$_Tree_node@U?$pair@$$CBV?$basic_string@DU?$char_traits@D@std@@V?$allocator@D@2@@std@@V?$shared_ptr@VRawImageData@@@2@@std@@PAX@std@@@std@@@std@@QAE@AAV?$allocator@U?$_Tree_node@U?$pair@$$CBV?$basic_string@DU?$char_traits@D@std@@V?$allocator@D@2@@std@@V?$shared_ptr@VRawImageData@@@2@@std@@PAX@std@@@1@PAU?$_Tree_node@U?$pair@$$CBV?$basic_string@DU?$char_traits@D@std@@V?$allocator@D@2@@std@@V?$shared_ptr@VRawImageData@@@2@@std@@PAX@1@$$QAU?$pair@V?$basic_string@DU?$char_traits@D@std@@V?$allocator@D@2@@std@@V?$shared_ptr@VRawImageData@@@2@@1@@Z 00400008     ImageMappingDemo.obj
 0002:fffbc008       __ehfuncinfo$??$?0U?$pair@V?$basic_string@DU?$char_traits@D@std@@V?$allocator@D@2@@std@@V?$weak_ptr@VRawImageData@@@2@@std@@@?$_Tree_temp_node@V?$allocator@U?$_Tree_node@U?$pair@$$CBV?$basic_string@DU?$char_traits@D@std@@V?$allocator@D@2@@std@@V?$weak_ptr@VRawImageData@@@2@@std@@PAX@std@@@std@@@std@@QAE@AAV?$allocator@U?$_Tree_node@U?$pair@$$CBV?$basic_string@DU?$char_traits@D@std@@V?$allocator@D@2@@std@@V?$weak_ptr@VRawImageData@@@2@@std@@PAX@std@@@1@PAU?$_Tree_node@U?$pair@$$CBV?$basic_string@DU?$char_traits@D@std@@V?$allocator@D@2@@std@@V?$weak_ptr@VRawImageData@@@2@@std@@PAX@1@$$QAU?$pair@V?$basic_string@DU?$char_traits@D@std@@V?$allocator@D@2@@std@@V?$weak_ptr@VRawImageData@@@2@@1@@Z 00400008     ImageMappingDemo.obj
 0002:fffbc008       __ehfuncinfo$??$_Construct@$00PBD@?$basic_string@DU?$char_traits@D@std@@V?$allocator@D@2@@std@@AAEXQBDI@Z 00400008     ImageMappingDemo.obj
 0002:fffbc008       __ehfuncinfo$??$_Construct@$01PBD@?$basic_string@DU?$char_traits@D@std@@V?$allocator@D@2@@std@@AAEXQBDI@Z 00400008     ImageMappingDemo.obj
 0002:fffbc008       __ehfuncinfo$??$_Uninitialized_move@PAPAVDisplayableObject@@V?$allocator@PAVDisplayableObject@@@std@@@std@@YAPAPAVDisplayableObject@@QAPAV1@0PAPAV1@AAV?$allocator@PAVDisplayableObject@@@0@@Z 00400008     ImageMappingDemo.obj
 0002:fffbc008       __ehfuncinfo$??$_Uninitialized_value_construct_n@V?$allocator@PAVDisplayableObject@@@std@@@std@@YAPAPAVDisplayableObject@@PAPAV1@IAAV?$allocator@PAVDisplayableObject@@@0@@Z 00400008     ImageMappingDemo.obj
 0002:fffbc008       __ehfuncinfo$??0?$_Tree_temp_node_alloc@V?$allocator@U?$_Tree_node@U?$pair@$$CBV?$basic_string@DU?$char_traits@D@std@@V?$allocator@D@2@@std@@V?$shared_ptr@VRawImageData@@@2@@std@@PAX@std@@@std@@@std@@QAE@AAV?$allocator@U?$_Tree_node@U?$pair@$$CBV?$basic_string@DU?$char_traits@D@std@@V?$allocator@D@2@@std@@V?$shared_ptr@VRawImageData@@@2@@std@@PAX@std@@@1@@Z 00400008     ImageMappingDemo.obj
 0002:fffbc008       __ehfuncinfo$??0?$_Tree_temp_node_alloc@V?$allocator@U?$_Tree_node@U?$pair@$$CBV?$basic_string@DU?$char_traits@D@std@@V?$allocator@D@2@@std@@V?$weak_ptr@VRawImageData@@@2@@std@@PAX@std@@@std@@@std@@QAE@AAV?$allocator@U?$_Tree_node@U?$pair@$$CBV?$basic_string@DU?$char_traits@D@std@@V?$allocator@D@2@@std@@V?$weak_ptr@VRawImageData@@@2@@std@@PAX@std@@@1@@Z 00400008     ImageMappingDemo.obj
 0002:fffbc008       __ehfuncinfo$??0?$basic_string@DU?$char_traits@D@std@@V?$allocator@D@2@@std@@QAE@ABV01@@Z 00400008     ImageMappingDemo.obj
 0002:fffbc008       __ehfuncinfo$??0?$basic_string@DU?$char_traits@D@std@@V?$allocator@D@2@@std@@QAE@QBD@Z 00400008     ImageMappingDemo.obj
 0002:fffbc008       __ehfuncinfo$??0ImageManager@@QAE@XZ 00400008     ImageMappingDemo.obj
 0002:fffbc008       __ehfuncinfo$??0RawImageData@@QAE@V?$basic_string@DU?$char_traits@D@std@@V?$allocator@D@2@@std@@@Z 00400008     ImageMappingDemo.obj
 0002:fffbc008       __ehfuncinfo$??0sentry@?$basic_ostream@DU?$char_traits@D@std@@@std@@QAE@AAV12@@Z 00400008     ImageMappingDemo.obj
 0002:fffbc008       __ehfuncinfo$?_Alloc_sentinel_and_proxy@?$_Tree@V?$_Tmap_traits@V?$basic_string@DU?$char_traits@D@std@@V?$allocator@D@2@@std@@V?$shared_ptr@VRawImageData@@@2@U?$less@V?$basic_string@DU?$char_traits@D@std@@V?$allocator@D@2@@std@@@2@V?$allocator@U?$pair@$$CBV?$basic_string@DU?$char_traits@D@std@@V?$allocator@D@2@@std@@V?$shared_ptr@VRawImageData@@@2@@std@@@2@$0A@@std@@@std@@IAEXXZ 00400008     ImageMappingDemo.obj
 0002:fffbc008       __ehfuncinfo$?_Alloc_sentinel_and_proxy@?$_Tree@V?$_Tmap_traits@V?$basic_string@DU?$char_traits@D@std@@V?$allocator@D@2@@std@@V?$weak_ptr@VRawImageData@@@2@U?$less@V?$basic_string@DU?$char_traits@D@std@@V?$allocator@D@2@@std@@@2@V?$allocator@U?$pair@$$CBV?$basic_string@DU?$char_traits@D@std@@V?$allocator@D@2@@std@@V?$weak_ptr@VRawImageData@@@2@@std@@@2@$0A@@std@@@std@@IAEXXZ 00400008     ImageMappingDemo.obj
 0002:fffbc008       __ehfuncinfo$?_Orphan_range_locked@?$vector@PAVDisplayableObject@@V?$allocator@PAVDisplayableObject@@@std@@@std@@ABEXPAPAVDisplayableObject@@0@Z 00400008     ImageMappingDemo.obj
 0002:fffbc008       __ehfuncinfo$?get@ImageManager@@SAPAV1@XZ 00400008     ImageMappingDemo.obj
 0002:fffbc008       __ehfuncinfo$?getImagebyURL@ImageManager@@QAE?AVSimpleImage@@V?$basic_string@DU?$char_traits@D@std@@V?$allocator@D@2@@std@@_N1@Z 00400008     ImageMappingDemo.obj
 0002:fffbc008       __ehfuncinfo$?loadImage@RawImageData@@QAE_NV?$basic_string@DU?$char_traits@D@std@@V?$allocator@D@2@@std@@HHHHH_N@Z 00400008     ImageMappingDemo.obj
 0001:fffff008       __unwindfunclet$??$?0VRawImageData@@$0A@@?$shared_ptr@VRawImageData@@@std@@QAE@PAVRawImageData@@@Z$1 00400008 f   ImageMappingDemo.obj
 0001:fffff008       __unwindfunclet$??0DragableImageObject@@QAE@HHPAVBaseEngine@@V?$basic_string@DU?$char_traits@D@std@@V?$allocator@D@2@@std@@_N2@Z$1 00400008 f   ImageMappingDemo.obj
 0001:fffff008       __unwindfunclet$?getImagePtrbyURL@ImageManager@@QAE?AV?$shared_ptr@VRawImageData@@@std@@V?$basic_string@DU?$char_traits@D@std@@V?$allocator@D@2@@3@_N1@Z$1 00400008 f   ImageMappingDemo.obj
 0001:fffff008       __unwindfunclet$?loadAsNew@ImageManager@@QAE?AV?$shared_ptr@VRawImageData@@@std@@V?$basic_string@DU?$char_traits@D@std@@V?$allocator@D@2@@3@@Z$1 00400008 f   ImageMappingDemo.obj
 0002:fffbc008       __ehfuncinfo$??$_Uninitialized_move@PAPAVDisplayableObject@@V?$allocator@PAVDisplayableObject@@@std@@@std@@YAPAPAVDisplayableObject@@QAPAV1@0PAPAV1@AAV?$allocator@PAVDisplayableObject@@@0@@Z 00400008     MazeDemoMain.obj
 0002:fffbc008       __ehfuncinfo$??$_Uninitialized_value_construct_n@V?$allocator@PAVDisplayableObject@@@std@@@std@@YAPAPAVDisplayableObject@@PAPAV1@IAAV?$allocator@PAVDisplayableObject@@@0@@Z 00400008     MazeDemoMain.obj
 0002:fffbc008       __ehfuncinfo$?_Orphan_range_locked@?$vector@PAVDisplayableObject@@V?$allocator@PAVDisplayableObject@@@std@@@std@@ABEXPAPAVDisplayableObject@@0@Z 00400008     MazeDemoMain.obj
 0002:fffbc008       __ehfuncinfo$?setAllObjectsVisible@DisplayableObjectContainer@@QBEX_N@Z 00400008     MazeDemoMain.obj
 0002:fffbc008       __ehfuncinfo$??$?0U?$pair@V?$basic_string@DU?$char_traits@D@std@@V?$allocator@D@2@@std@@V?$shared_ptr@VRawImageData@@@2@@std@@@?$_Tree_temp_node@V?$allocator@U?$_Tree_node@U?$pair@$$CBV?$basic_string@DU?$char_traits@D@std@@V?$allocator@D@2@@std@@V?$shared_ptr@VRawImageData@@@2@@std@@PAX@std@@@std@@@std@@QAE@AAV?$allocator@U?$_Tree_node@U?$pair@$$CBV?$basic_string@DU?$char_traits@D@std@@V?$allocator@D@2@@std@@V?$shared_ptr@VRawImageData@@@2@@std@@PAX@std@@@1@PAU?$_Tree_node@U?$pair@$$CBV?$basic_string@DU?$char_traits@D@std@@V?$allocator@D@2@@std@@V?$shared_ptr@VRawImageData@@@2@@std@@PAX@1@$$QAU?$pair@V?$basic_string@DU?$char_traits@D@std@@V?$allocator@D@2@@std@@V?$shared_ptr@VRawImageData@@@2@@1@@Z 00400008     MyDemoA.obj
 0002:fffbc008       __ehfuncinfo$??$?0U?$pair@V?$basic_string@DU?$char_traits@D@std@@V?$allocator@D@2@@std@@V?$weak_ptr@VRawImageData@@@2@@std@@@?$_Tree_temp_node@V?$allocator@U?$_Tree_node@U?$pair@$$CBV?$basic_string@DU?$char_traits@D@std@@V?$allocator@D@2@@std@@V?$weak_ptr@VRawImageData@@@2@@std@@PAX@std@@@std@@@std@@QAE@AAV?$allocator@U?$_Tree_node@U?$pair@$$CBV?$basic_string@DU?$char_traits@D@std@@V?$allocator@D@2@@std@@V?$weak_ptr@VRawImageData@@@2@@std@@PAX@std@@@1@PAU?$_Tree_node@U?$pair@$$CBV?$basic_string@DU?$char_traits@D@std@@V?$allocator@D@2@@std@@V?$weak_ptr@VRawImageData@@@2@@std@@PAX@1@$$QAU?$pair@V?$basic_string@DU?$char_traits@D@std@@V?$allocator@D@2@@std@@V?$weak_ptr@VRawImageData@@@2@@1@@Z 00400008     MyDemoA.obj
 0002:fffbc008       __ehfuncinfo$??$_Construct@$00PBD@?$basic_string@DU?$char_traits@D@std@@V?$allocator@D@2@@std@@AAEXQBDI@Z 00400008     MyDemoA.obj
 0002:fffbc008       __ehfuncinfo$??$_Construct@$01PBD@?$basic_string@DU?$char_traits@D@std@@V?$allocator@D@2@@std@@AAEXQBDI@Z 00400008     MyDemoA.obj
 0002:fffbc008       __ehfuncinfo$??$_Uninitialized_move@PAPAVDisplayableObject@@V?$allocator@PAVDisplayableObject@@@std@@@std@@YAPAPAVDisplayableObject@@QAPAV1@0PAPAV1@AAV?$allocator@PAVDisplayableObject@@@0@@Z 00400008     MyDemoA.obj
 0002:fffbc008       __ehfuncinfo$??$_Uninitialized_value_construct_n@V?$allocator@PAVDisplayableObject@@@std@@@std@@YAPAPAVDisplayableObject@@PAPAV1@IAAV?$allocator@PAVDisplayableObject@@@0@@Z 00400008     MyDemoA.obj
 0002:fffbc008       __ehfuncinfo$??0?$_Tree_temp_node_alloc@V?$allocator@U?$_Tree_node@U?$pair@$$CBV?$basic_string@DU?$char_traits@D@std@@V?$allocator@D@2@@std@@V?$shared_ptr@VRawImageData@@@2@@std@@PAX@std@@@std@@@std@@QAE@AAV?$allocator@U?$_Tree_node@U?$pair@$$CBV?$basic_string@DU?$char_traits@D@std@@V?$allocator@D@2@@std@@V?$shared_ptr@VRawImageData@@@2@@std@@PAX@std@@@1@@Z 00400008     MyDemoA.obj
 0002:fffbc008       __ehfuncinfo$??0?$_Tree_temp_node_alloc@V?$allocator@U?$_Tree_node@U?$pair@$$CBV?$basic_string@DU?$char_traits@D@std@@V?$allocator@D@2@@std@@V?$weak_ptr@VRawImageData@@@2@@std@@PAX@std@@@std@@@std@@QAE@AAV?$allocator@U?$_Tree_node@U?$pair@$$CBV?$basic_string@DU?$char_traits@D@std@@V?$allocator@D@2@@std@@V?$weak_ptr@VRawImageData@@@2@@std@@PAX@std@@@1@@Z 00400008     MyDemoA.obj
 0002:fffbc008       __ehfuncinfo$??0?$basic_string@DU?$char_traits@D@std@@V?$allocator@D@2@@std@@QAE@ABV01@@Z 00400008     MyDemoA.obj
 0002:fffbc008       __ehfuncinfo$??0?$basic_string@DU?$char_traits@D@std@@V?$allocator@D@2@@std@@QAE@QBD@Z 00400008     MyDemoA.obj
 0002:fffbc008       __ehfuncinfo$??0ImageManager@@QAE@XZ 00400008     MyDemoA.obj
 0002:fffbc008       __ehfuncinfo$??0RawImageData@@QAE@V?$basic_string@DU?$char_traits@D@std@@V?$allocator@D@2@@std@@@Z 00400008     MyDemoA.obj
 0002:fffbc008       __ehfuncinfo$??0sentry@?$basic_ostream@DU?$char_traits@D@std@@@std@@QAE@AAV12@@Z 00400008     MyDemoA.obj
 0002:fffbc008       __ehfuncinfo$?_Alloc_sentinel_and_proxy@?$_Tree@V?$_Tmap_traits@V?$basic_string@DU?$char_traits@D@std@@V?$allocator@D@2@@std@@V?$shared_ptr@VRawImageData@@@2@U?$less@V?$basic_string@DU?$char_traits@D@std@@V?$allocator@D@2@@std@@@2@V?$allocator@U?$pair@$$CBV?$basic_string@DU?$char_traits@D@std@@V?$allocator@D@2@@std@@V?$shared_ptr@VRawImageData@@@2@@std@@@2@$0A@@std@@@std@@IAEXXZ 00400008     MyDemoA.obj
 0002:fffbc008       __ehfuncinfo$?_Alloc_sentinel_and_proxy@?$_Tree@V?$_Tmap_traits@V?$basic_string@DU?$char_traits@D@std@@V?$allocator@D@2@@std@@V?$weak_ptr@VRawImageData@@@2@U?$less@V?$basic_string@DU?$char_traits@D@std@@V?$allocator@D@2@@std@@@2@V?$allocator@U?$pair@$$CBV?$basic_string@DU?$char_traits@D@std@@V?$allocator@D@2@@std@@V?$weak_ptr@VRawImageData@@@2@@std@@@2@$0A@@std@@@std@@IAEXXZ 00400008     MyDemoA.obj
 0002:fffbc008       __ehfuncinfo$?_Orphan_range_locked@?$vector@PAVDisplayableObject@@V?$allocator@PAVDisplayableObject@@@std@@@std@@ABEXPAPAVDisplayableObject@@0@Z 00400008     MyDemoA.obj
 0002:fffbc008       __ehfuncinfo$?get@ImageManager@@SAPAV1@XZ 00400008     MyDemoA.obj
 0002:fffbc008       __ehfuncinfo$?getImagebyURL@ImageManager@@QAE?AVSimpleImage@@V?$basic_string@DU?$char_traits@D@std@@V?$allocator@D@2@@std@@_N1@Z 00400008     MyDemoA.obj
 0002:fffbc008       __ehfuncinfo$?loadImage@RawImageData@@QAE_NV?$basic_string@DU?$char_traits@D@std@@V?$allocator@D@2@@std@@HHHHH_N@Z 00400008     MyDemoA.obj
 0002:fffbc008       __ehfuncinfo$?setAllObjectsVisible@DisplayableObjectContainer@@QBEX_N@Z 00400008     MyDemoA.obj
 0001:fffff008       __unwindfunclet$??$?0VRawImageData@@$0A@@?$shared_ptr@VRawImageData@@@std@@QAE@PAVRawImageData@@@Z$1 00400008 f   MyDemoA.obj
 0001:fffff008       __unwindfunclet$?getImagePtrbyURL@ImageManager@@QAE?AV?$shared_ptr@VRawImageData@@@std@@V?$basic_string@DU?$char_traits@D@std@@V?$allocator@D@2@@3@_N1@Z$1 00400008 f   MyDemoA.obj
 0001:fffff008       __unwindfunclet$?loadAsNew@ImageManager@@QAE?AV?$shared_ptr@VRawImageData@@@std@@V?$basic_string@DU?$char_traits@D@std@@V?$allocator@D@2@@3@@Z$1 00400008 f   MyDemoA.obj
 0001:fffff008       __unwindfunclet$?loadImage@ImageManager@@SA?AVSimpleImage@@V?$basic_string@DU?$char_traits@D@std@@V?$allocator@D@2@@std@@_N@Z$1 00400008 f   MyDemoA.obj
 0002:fffbc008       __ehfuncinfo$??$?0U?$pair@V?$basic_string@DU?$char_traits@D@std@@V?$allocator@D@2@@std@@V?$shared_ptr@VRawImageData@@@2@@std@@@?$_Tree_temp_node@V?$allocator@U?$_Tree_node@U?$pair@$$CBV?$basic_string@DU?$char_traits@D@std@@V?$allocator@D@2@@std@@V?$shared_ptr@VRawImageData@@@2@@std@@PAX@std@@@std@@@std@@QAE@AAV?$allocator@U?$_Tree_node@U?$pair@$$CBV?$basic_string@DU?$char_traits@D@std@@V?$allocator@D@2@@std@@V?$shared_ptr@VRawImageData@@@2@@std@@PAX@std@@@1@PAU?$_Tree_node@U?$pair@$$CBV?$basic_string@DU?$char_traits@D@std@@V?$allocator@D@2@@std@@V?$shared_ptr@VRawImageData@@@2@@std@@PAX@1@$$QAU?$pair@V?$basic_string@DU?$char_traits@D@std@@V?$allocator@D@2@@std@@V?$shared_ptr@VRawImageData@@@2@@1@@Z 00400008     Psyes9Engine.obj
 0002:fffbc008       __ehfuncinfo$??$?0U?$pair@V?$basic_string@DU?$char_traits@D@std@@V?$allocator@D@2@@std@@V?$weak_ptr@VRawImageData@@@2@@std@@@?$_Tree_temp_node@V?$allocator@U?$_Tree_node@U?$pair@$$CBV?$basic_string@DU?$char_traits@D@std@@V?$allocator@D@2@@std@@V?$weak_ptr@VRawImageData@@@2@@std@@PAX@std@@@std@@@std@@QAE@AAV?$allocator@U?$_Tree_node@U?$pair@$$CBV?$basic_string@DU?$char_traits@D@std@@V?$allocator@D@2@@std@@V?$weak_ptr@VRawImageData@@@2@@std@@PAX@std@@@1@PAU?$_Tree_node@U?$pair@$$CBV?$basic_string@DU?$char_traits@D@std@@V?$allocator@D@2@@std@@V?$weak_ptr@VRawImageData@@@2@@std@@PAX@1@$$QAU?$pair@V?$basic_string@DU?$char_traits@D@std@@V?$allocator@D@2@@std@@V?$weak_ptr@VRawImageData@@@2@@1@@Z 00400008     Psyes9Engine.obj
 0002:fffbc008       __ehfuncinfo$??$_Construct@$00PBD@?$basic_string@DU?$char_traits@D@std@@V?$allocator@D@2@@std@@AAEXQBDI@Z 00400008     Psyes9Engine.obj
 0002:fffbc008       __ehfuncinfo$??$_Construct@$01PBD@?$basic_string@DU?$char_traits@D@std@@V?$allocator@D@2@@std@@AAEXQBDI@Z 00400008     Psyes9Engine.obj
 0002:fffbc008       __ehfuncinfo$??$_Uninitialized_move@PAPAVDisplayableObject@@V?$allocator@PAVDisplayableObject@@@std@@@std@@YAPAPAVDisplayableObject@@QAPAV1@0PAPAV1@AAV?$allocator@PAVDisplayableObject@@@0@@Z 00400008     Psyes9Engine.obj
 0002:fffbc008       __ehfuncinfo$??$_Uninitialized_value_construct_n@V?$allocator@PAVDisplayableObject@@@std@@@std@@YAPAPAVDisplayableObject@@PAPAV1@IAAV?$allocator@PAVDisplayableObject@@@0@@Z 00400008     Psyes9Engine.obj
 0002:fffbc008       __ehfuncinfo$??0?$_Tree_temp_node_alloc@V?$allocator@U?$_Tree_node@U?$pair@$$CBV?$basic_string@DU?$char_traits@D@std@@V?$allocator@D@2@@std@@V?$shared_ptr@VRawImageData@@@2@@std@@PAX@std@@@std@@@std@@QAE@AAV?$allocator@U?$_Tree_node@U?$pair@$$CBV?$basic_string@DU?$char_traits@D@std@@V?$allocator@D@2@@std@@V?$shared_ptr@VRawImageData@@@2@@std@@PAX@std@@@1@@Z 00400008     Psyes9Engine.obj
 0002:fffbc008       __ehfuncinfo$??0?$_Tree_temp_node_alloc@V?$allocator@U?$_Tree_node@U?$pair@$$CBV?$basic_string@DU?$char_traits@D@std@@V?$allocator@D@2@@std@@V?$weak_ptr@VRawImageData@@@2@@std@@PAX@std@@@std@@@std@@QAE@AAV?$allocator@U?$_Tree_node@U?$pair@$$CBV?$basic_string@DU?$char_traits@D@std@@V?$allocator@D@2@@std@@V?$weak_ptr@VRawImageData@@@2@@std@@PAX@std@@@1@@Z 00400008     Psyes9Engine.obj
 0002:fffbc008       __ehfuncinfo$??0?$basic_string@DU?$char_traits@D@std@@V?$allocator@D@2@@std@@QAE@ABV01@@Z 00400008     Psyes9Engine.obj
 0002:fffbc008       __ehfuncinfo$??0?$basic_string@DU?$char_traits@D@std@@V?$allocator@D@2@@std@@QAE@QBD@Z 00400008     Psyes9Engine.obj
 0002:fffbc008       __ehfuncinfo$??0ImageManager@@QAE@XZ 00400008     Psyes9Engine.obj
 0002:fffbc008       __ehfuncinfo$??0RawImageData@@QAE@V?$basic_string@DU?$char_traits@D@std@@V?$allocator@D@2@@std@@@Z 00400008     Psyes9Engine.obj
 0002:fffbc008       __ehfuncinfo$??0sentry@?$basic_ostream@DU?$char_traits@D@std@@@std@@QAE@AAV12@@Z 00400008     Psyes9Engine.obj
 0002:fffbc008       __ehfuncinfo$?_Alloc_sentinel_and_proxy@?$_Tree@V?$_Tmap_traits@V?$basic_string@DU?$char_traits@D@std@@V?$allocator@D@2@@std@@V?$shared_ptr@VRawImageData@@@2@U?$less@V?$basic_string@DU?$char_traits@D@std@@V?$allocator@D@2@@std@@@2@V?$allocator@U?$pair@$$CBV?$basic_string@DU?$char_traits@D@std@@V?$allocator@D@2@@std@@V?$shared_ptr@VRawImageData@@@2@@std@@@2@$0A@@std@@@std@@IAEXXZ 00400008     Psyes9Engine.obj
 0002:fffbc008       __ehfuncinfo$?_Alloc_sentinel_and_proxy@?$_Tree@V?$_Tmap_traits@V?$basic_string@DU?$char_traits@D@std@@V?$allocator@D@2@@std@@V?$weak_ptr@VRawImageData@@@2@U?$less@V?$basic_string@DU?$char_traits@D@std@@V?$allocator@D@2@@std@@@2@V?$allocator@U?$pair@$$CBV?$basic_string@DU?$char_traits@D@std@@V?$allocator@D@2@@std@@V?$weak_ptr@VRawImageData@@@2@@std@@@2@$0A@@std@@@std@@IAEXXZ 00400008     Psyes9Engine.obj
 0002:fffbc008       __ehfuncinfo$?_Orphan_range_locked@?$vector@PAVDisplayableObject@@V?$allocator@PAVDisplayableObject@@@std@@@std@@ABEXPAPAVDisplayableObject@@0@Z 00400008     Psyes9Engine.obj
 0002:fffbc008       __ehfuncinfo$?get@ImageManager@@SAPAV1@XZ 00400008     Psyes9Engine.obj
 0002:fffbc008       __ehfuncinfo$?getImagebyURL@ImageManager@@QAE?AVSimpleImage@@V?$basic_string@DU?$char_traits@D@std@@V?$allocator@D@2@@std@@_N1@Z 00400008     Psyes9Engine.obj
 0002:fffbc008       __ehfuncinfo$?loadImage@RawImageData@@QAE_NV?$basic_string@DU?$char_traits@D@std@@V?$allocator@D@2@@std@@HHHHH_N@Z 00400008     Psyes9Engine.obj
 0001:fffff008       __unwindfunclet$??$?0VRawImageData@@$0A@@?$shared_ptr@VRawImageData@@@std@@QAE@PAVRawImageData@@@Z$1 00400008 f   Psyes9Engine.obj
 0001:fffff008       __unwindfunclet$?getImagePtrbyURL@ImageManager@@QAE?AV?$shared_ptr@VRawImageData@@@std@@V?$basic_string@DU?$char_traits@D@std@@V?$allocator@D@2@@3@_N1@Z$1 00400008 f   Psyes9Engine.obj
 0001:fffff008       __unwindfunclet$?loadAsNew@ImageManager@@QAE?AV?$shared_ptr@VRawImageData@@@std@@V?$basic_string@DU?$char_traits@D@std@@V?$allocator@D@2@@3@@Z$1 00400008 f   Psyes9Engine.obj
 0001:fffff008       __unwindfunclet$?loadImage@ImageManager@@SA?AVSimpleImage@@V?$basic_string@DU?$char_traits@D@std@@V?$allocator@D@2@@std@@_N@Z$1 00400008 f   Psyes9Engine.obj
 0002:fffbc008       __ehfuncinfo$??$_Uninitialized_move@PAPAVDisplayableObject@@V?$allocator@PAVDisplayableObject@@@std@@@std@@YAPAPAVDisplayableObject@@QAPAV1@0PAPAV1@AAV?$allocator@PAVDisplayableObject@@@0@@Z 00400008     SimpleDemo.obj
 0002:fffbc008       __ehfuncinfo$??$_Uninitialized_value_construct_n@V?$allocator@PAVDisplayableObject@@@std@@@std@@YAPAPAVDisplayableObject@@PAPAV1@IAAV?$allocator@PAVDisplayableObject@@@0@@Z 00400008     SimpleDemo.obj
 0002:fffbc008       __ehfuncinfo$??0sentry@?$basic_ostream@DU?$char_traits@D@std@@@std@@QAE@AAV12@@Z 00400008     SimpleDemo.obj
 0002:fffbc008       __ehfuncinfo$?_Orphan_range_locked@?$vector@PAVDisplayableObject@@V?$allocator@PAVDisplayableObject@@@std@@@std@@ABEXPAPAVDisplayableObject@@0@Z 00400008     SimpleDemo.obj
 0002:fffbc008       __ehfuncinfo$??0sentry@?$basic_ostream@DU?$char_traits@D@std@@@std@@QAE@AAV12@@Z 00400008     SimpleImage.obj
 0002:fffbc008       __ehfuncinfo$??0sentry@?$basic_ostream@DU?$char_traits@D@std@@@std@@QAE@AAV12@@Z 00400008     StarfieldDemo.obj
 0002:fffbc008       __ehfuncinfo$??$?0U?$pair@V?$basic_string@DU?$char_traits@D@std@@V?$allocator@D@2@@std@@V?$shared_ptr@VRawImageData@@@2@@std@@@?$_Tree_temp_node@V?$allocator@U?$_Tree_node@U?$pair@$$CBV?$basic_string@DU?$char_traits@D@std@@V?$allocator@D@2@@std@@V?$shared_ptr@VRawImageData@@@2@@std@@PAX@std@@@std@@@std@@QAE@AAV?$allocator@U?$_Tree_node@U?$pair@$$CBV?$basic_string@DU?$char_traits@D@std@@V?$allocator@D@2@@std@@V?$shared_ptr@VRawImageData@@@2@@std@@PAX@std@@@1@PAU?$_Tree_node@U?$pair@$$CBV?$basic_string@DU?$char_traits@D@std@@V?$allocator@D@2@@std@@V?$shared_ptr@VRawImageData@@@2@@std@@PAX@1@$$QAU?$pair@V?$basic_string@DU?$char_traits@D@std@@V?$allocator@D@2@@std@@V?$shared_ptr@VRawImageData@@@2@@1@@Z 00400008     ZoomingDemo.obj
 0002:fffbc008       __ehfuncinfo$??$?0U?$pair@V?$basic_string@DU?$char_traits@D@std@@V?$allocator@D@2@@std@@V?$weak_ptr@VRawImageData@@@2@@std@@@?$_Tree_temp_node@V?$allocator@U?$_Tree_node@U?$pair@$$CBV?$basic_string@DU?$char_traits@D@std@@V?$allocator@D@2@@std@@V?$weak_ptr@VRawImageData@@@2@@std@@PAX@std@@@std@@@std@@QAE@AAV?$allocator@U?$_Tree_node@U?$pair@$$CBV?$basic_string@DU?$char_traits@D@std@@V?$allocator@D@2@@std@@V?$weak_ptr@VRawImageData@@@2@@std@@PAX@std@@@1@PAU?$_Tree_node@U?$pair@$$CBV?$basic_string@DU?$char_traits@D@std@@V?$allocator@D@2@@std@@V?$weak_ptr@VRawImageData@@@2@@std@@PAX@1@$$QAU?$pair@V?$basic_string@DU?$char_traits@D@std@@V?$allocator@D@2@@std@@V?$weak_ptr@VRawImageData@@@2@@1@@Z 00400008     ZoomingDemo.obj
 0002:fffbc008       __ehfuncinfo$??$_Construct@$00PBD@?$basic_string@DU?$char_traits@D@std@@V?$allocator@D@2@@std@@AAEXQBDI@Z 00400008     ZoomingDemo.obj
 0002:fffbc008       __ehfuncinfo$??$_Construct@$01PBD@?$basic_string@DU?$char_traits@D@std@@V?$allocator@D@2@@std@@AAEXQBDI@Z 00400008     ZoomingDemo.obj
 0002:fffbc008       __ehfuncinfo$??$_Uninitialized_move@PAPAVDisplayableObject@@V?$allocator@PAVDisplayableObject@@@std@@@std@@YAPAPAVDisplayableObject@@QAPAV1@0PAPAV1@AAV?$allocator@PAVDisplayableObject@@@0@@Z 00400008     ZoomingDemo.obj
 0002:fffbc008       __ehfuncinfo$??$_Uninitialized_value_construct_n@V?$allocator@PAVDisplayableObject@@@std@@@std@@YAPAPAVDisplayableObject@@PAPAV1@IAAV?$allocator@PAVDisplayableObject@@@0@@Z 00400008     ZoomingDemo.obj
 0002:fffbc008       __ehfuncinfo$??0?$_Tree_temp_node_alloc@V?$allocator@U?$_Tree_node@U?$pair@$$CBV?$basic_string@DU?$char_traits@D@std@@V?$allocator@D@2@@std@@V?$shared_ptr@VRawImageData@@@2@@std@@PAX@std@@@std@@@std@@QAE@AAV?$allocator@U?$_Tree_node@U?$pair@$$CBV?$basic_string@DU?$char_traits@D@std@@V?$allocator@D@2@@std@@V?$shared_ptr@VRawImageData@@@2@@std@@PAX@std@@@1@@Z 00400008     ZoomingDemo.obj
 0002:fffbc008       __ehfuncinfo$??0?$_Tree_temp_node_alloc@V?$allocator@U?$_Tree_node@U?$pair@$$CBV?$basic_string@DU?$char_traits@D@std@@V?$allocator@D@2@@std@@V?$weak_ptr@VRawImageData@@@2@@std@@PAX@std@@@std@@@std@@QAE@AAV?$allocator@U?$_Tree_node@U?$pair@$$CBV?$basic_string@DU?$char_traits@D@std@@V?$allocator@D@2@@std@@V?$weak_ptr@VRawImageData@@@2@@std@@PAX@std@@@1@@Z 00400008     ZoomingDemo.obj
 0002:fffbc008       __ehfuncinfo$??0?$basic_string@DU?$char_traits@D@std@@V?$allocator@D@2@@std@@QAE@ABV01@@Z 00400008     ZoomingDemo.obj
 0002:fffbc008       __ehfuncinfo$??0?$basic_string@DU?$char_traits@D@std@@V?$allocator@D@2@@std@@QAE@QBD@Z 00400008     ZoomingDemo.obj
 0002:fffbc008       __ehfuncinfo$??0DragableObject@@QAE@HHPAVBaseEngine@@HH_N1@Z 00400008     ZoomingDemo.obj
 0002:fffbc008       __ehfuncinfo$??0ImageManager@@QAE@XZ 00400008     ZoomingDemo.obj
 0002:fffbc008       __ehfuncinfo$??0RawImageData@@QAE@V?$basic_string@DU?$char_traits@D@std@@V?$allocator@D@2@@std@@@Z 00400008     ZoomingDemo.obj
 0002:fffbc008       __ehfuncinfo$??0sentry@?$basic_ostream@DU?$char_traits@D@std@@@std@@QAE@AAV12@@Z 00400008     ZoomingDemo.obj
 0002:fffbc008       __ehfuncinfo$?_Alloc_sentinel_and_proxy@?$_Tree@V?$_Tmap_traits@V?$basic_string@DU?$char_traits@D@std@@V?$allocator@D@2@@std@@V?$shared_ptr@VRawImageData@@@2@U?$less@V?$basic_string@DU?$char_traits@D@std@@V?$allocator@D@2@@std@@@2@V?$allocator@U?$pair@$$CBV?$basic_string@DU?$char_traits@D@std@@V?$allocator@D@2@@std@@V?$shared_ptr@VRawImageData@@@2@@std@@@2@$0A@@std@@@std@@IAEXXZ 00400008     ZoomingDemo.obj
 0002:fffbc008       __ehfuncinfo$?_Alloc_sentinel_and_proxy@?$_Tree@V?$_Tmap_traits@V?$basic_string@DU?$char_traits@D@std@@V?$allocator@D@2@@std@@V?$weak_ptr@VRawImageData@@@2@U?$less@V?$basic_string@DU?$char_traits@D@std@@V?$allocator@D@2@@std@@@2@V?$allocator@U?$pair@$$CBV?$basic_string@DU?$char_traits@D@std@@V?$allocator@D@2@@std@@V?$weak_ptr@VRawImageData@@@2@@std@@@2@$0A@@std@@@std@@IAEXXZ 00400008     ZoomingDemo.obj
 0002:fffbc008       __ehfuncinfo$?_Orphan_range_locked@?$vector@PAVDisplayableObject@@V?$allocator@PAVDisplayableObject@@@std@@@std@@ABEXPAPAVDisplayableObject@@0@Z 00400008     ZoomingDemo.obj
 0002:fffbc008       __ehfuncinfo$?get@ImageManager@@SAPAV1@XZ 00400008     ZoomingDemo.obj
 0002:fffbc008       __ehfuncinfo$?getImagebyURL@ImageManager@@QAE?AVSimpleImage@@V?$basic_string@DU?$char_traits@D@std@@V?$allocator@D@2@@std@@_N1@Z 00400008     ZoomingDemo.obj
 0002:fffbc008       __ehfuncinfo$?loadImage@RawImageData@@QAE_NV?$basic_string@DU?$char_traits@D@std@@V?$allocator@D@2@@std@@HHHHH_N@Z 00400008     ZoomingDemo.obj
 0001:fffff008       __unwindfunclet$??$?0VRawImageData@@$0A@@?$shared_ptr@VRawImageData@@@std@@QAE@PAVRawImageData@@@Z$1 00400008 f   ZoomingDemo.obj
 0001:fffff008       __unwindfunclet$??0DragableImageObject@@QAE@HHPAVBaseEngine@@V?$basic_string@DU?$char_traits@D@std@@V?$allocator@D@2@@std@@_N2@Z$1 00400008 f   ZoomingDemo.obj
 0001:fffff008       __unwindfunclet$?getImagePtrbyURL@ImageManager@@QAE?AV?$shared_ptr@VRawImageData@@@std@@V?$basic_string@DU?$char_traits@D@std@@V?$allocator@D@2@@3@_N1@Z$1 00400008 f   ZoomingDemo.obj
 0001:fffff008       __unwindfunclet$?loadAsNew@ImageManager@@QAE?AV?$shared_ptr@VRawImageData@@@std@@V?$basic_string@DU?$char_traits@D@std@@V?$allocator@D@2@@3@@Z$1 00400008 f   ZoomingDemo.obj
 0000:fffaa008       __guard_fids__             00400008     MSVCRTD:exe_main.obj
 0000:0000000c       _volmd                     0040000c     BaseEngine.obj
 0000:0000000c       _volmd                     0040000c     BouncingBall.obj
 0000:0000000c       _volmd                     0040000c     CrimsonWasteland2.obj
 0000:0000000c       _volmd                     0040000c     MazeDemoMain.obj
 0000:0000000c       _volmd                     0040000c     MyDemoA.obj
 0000:0000000c       _volmd                     0040000c     Psyes9Engine.obj
 0000:0000000c       _volmd                     0040000c     SimpleDemo.obj
 0000:0000000c       _volmd                     0040000c     ZoomingDemo.obj
 0001:fffff00d       __ehhandler$??$_Uninitialized_value_construct_n@V?$allocator@PAVDisplayableObject@@@std@@@std@@YAPAPAVDisplayableObject@@PAPAV1@IAAV?$allocator@PAVDisplayableObject@@@0@@Z 0040000d f   BaseEngine.obj
 0001:fffff00d       __ehhandler$??$?6U?$char_traits@D@std@@@std@@YAAAV?$basic_ostream@DU?$char_traits@D@std@@@0@AAV10@PBD@Z 0040000d f   BouncingBall.obj
 0001:fffff00d       __ehhandler$??0sentry@?$basic_ostream@DU?$char_traits@D@std@@@std@@QAE@AAV12@@Z 0040000d f   BouncingBall.obj
 0001:fffff00d       __ehhandler$??$?6U?$char_traits@D@std@@@std@@YAAAV?$basic_ostream@DU?$char_traits@D@std@@@0@AAV10@PBD@Z 0040000d f   BouncingBallMain.obj
 0001:fffff00d       __ehhandler$??$_Uninitialized_move@PAPAVDisplayableObject@@V?$allocator@PAVDisplayableObject@@@std@@@std@@YAPAPAVDisplayableObject@@QAPAV1@0PAPAV1@AAV?$allocator@PAVDisplayableObject@@@0@@Z 0040000d f   BouncingBallMain.obj
 0001:fffff00d       __ehhandler$??$_Uninitialized_value_construct_n@V?$allocator@PAVDisplayableObject@@@std@@@std@@YAPAPAVDisplayableObject@@PAPAV1@IAAV?$allocator@PAVDisplayableObject@@@0@@Z 0040000d f   BouncingBallMain.obj
 0001:fffff00d       __ehhandler$??0sentry@?$basic_ostream@DU?$char_traits@D@std@@@std@@QAE@AAV12@@Z 0040000d f   BouncingBallMain.obj
 0001:fffff00d       __ehhandler$??$?6U?$char_traits@D@std@@@std@@YAAAV?$basic_ostream@DU?$char_traits@D@std@@@0@AAV10@PBD@Z 0040000d f   DisplayableObject.obj
 0001:fffff00d       __ehhandler$??0sentry@?$basic_ostream@DU?$char_traits@D@std@@@std@@QAE@AAV12@@Z 0040000d f   DisplayableObject.obj
 0001:fffff00d       __ehhandler$??$?0U?$pair@V?$basic_string@DU?$char_traits@D@std@@V?$allocator@D@2@@std@@V?$shared_ptr@VRawImageData@@@2@@std@@@?$_Tree_temp_node@V?$allocator@U?$_Tree_node@U?$pair@$$CBV?$basic_string@DU?$char_traits@D@std@@V?$allocator@D@2@@std@@V?$shared_ptr@VRawImageData@@@2@@std@@PAX@std@@@std@@@std@@QAE@AAV?$allocator@U?$_Tree_node@U?$pair@$$CBV?$basic_string@DU?$char_traits@D@std@@V?$allocator@D@2@@std@@V?$shared_ptr@VRawImageData@@@2@@std@@PAX@std@@@1@PAU?$_Tree_node@U?$pair@$$CBV?$basic_string@DU?$char_traits@D@std@@V?$allocator@D@2@@std@@V?$shared_ptr@VRawImageData@@@2@@std@@PAX@1@$$QAU?$pair@V?$basic_string@DU?$char_traits@D@std@@V?$allocator@D@2@@std@@V?$shared_ptr@VRawImageData@@@2@@1@@Z 0040000d f   DraggingDemo.obj
 0001:fffff00d       __ehhandler$??$?0U?$pair@V?$basic_string@DU?$char_traits@D@std@@V?$allocator@D@2@@std@@V?$weak_ptr@VRawImageData@@@2@@std@@@?$_Tree_temp_node@V?$allocator@U?$_Tree_node@U?$pair@$$CBV?$basic_string@DU?$char_traits@D@std@@V?$allocator@D@2@@std@@V?$weak_ptr@VRawImageData@@@2@@std@@PAX@std@@@std@@@std@@QAE@AAV?$allocator@U?$_Tree_node@U?$pair@$$CBV?$basic_string@DU?$char_traits@D@std@@V?$allocator@D@2@@std@@V?$weak_ptr@VRawImageData@@@2@@std@@PAX@std@@@1@PAU?$_Tree_node@U?$pair@$$CBV?$basic_string@DU?$char_traits@D@std@@V?$allocator@D@2@@std@@V?$weak_ptr@VRawImageData@@@2@@std@@PAX@1@$$QAU?$pair@V?$basic_string@DU?$char_traits@D@std@@V?$allocator@D@2@@std@@V?$weak_ptr@VRawImageData@@@2@@1@@Z 0040000d f   DraggingDemo.obj
 0001:fffff00d       __ehhandler$??$?6U?$char_traits@D@std@@@std@@YAAAV?$basic_ostream@DU?$char_traits@D@std@@@0@AAV10@PBD@Z 0040000d f   DraggingDemo.obj
 0001:fffff00d       __ehhandler$??$_Construct@$00PBD@?$basic_string@DU?$char_traits@D@std@@V?$allocator@D@2@@std@@AAEXQBDI@Z 0040000d f   DraggingDemo.obj
 0001:fffff00d       __ehhandler$??$_Construct@$01PBD@?$basic_string@DU?$char_traits@D@std@@V?$allocator@D@2@@std@@AAEXQBDI@Z 0040000d f   DraggingDemo.obj
 0001:fffff00d       __ehhandler$??$_Insert_string@DU?$char_traits@D@std@@I@std@@YAAAV?$basic_ostream@DU?$char_traits@D@std@@@0@AAV10@QBDI@Z 0040000d f   DraggingDemo.obj
 0001:fffff00d       __ehhandler$??$_Uninitialized_move@PAPAVDisplayableObject@@V?$allocator@PAVDisplayableObject@@@std@@@std@@YAPAPAVDisplayableObject@@QAPAV1@0PAPAV1@AAV?$allocator@PAVDisplayableObject@@@0@@Z 0040000d f   DraggingDemo.obj
 0001:fffff00d       __ehhandler$??$_Uninitialized_value_construct_n@V?$allocator@PAVDisplayableObject@@@std@@@std@@YAPAPAVDisplayableObject@@PAPAV1@IAAV?$allocator@PAVDisplayableObject@@@0@@Z 0040000d f   DraggingDemo.obj
 0001:fffff00d       __ehhandler$??0?$_Tree_temp_node_alloc@V?$allocator@U?$_Tree_node@U?$pair@$$CBV?$basic_string@DU?$char_traits@D@std@@V?$allocator@D@2@@std@@V?$shared_ptr@VRawImageData@@@2@@std@@PAX@std@@@std@@@std@@QAE@AAV?$allocator@U?$_Tree_node@U?$pair@$$CBV?$basic_string@DU?$char_traits@D@std@@V?$allocator@D@2@@std@@V?$shared_ptr@VRawImageData@@@2@@std@@PAX@std@@@1@@Z 0040000d f   DraggingDemo.obj
 0001:fffff00d       __ehhandler$??0?$_Tree_temp_node_alloc@V?$allocator@U?$_Tree_node@U?$pair@$$CBV?$basic_string@DU?$char_traits@D@std@@V?$allocator@D@2@@std@@V?$weak_ptr@VRawImageData@@@2@@std@@PAX@std@@@std@@@std@@QAE@AAV?$allocator@U?$_Tree_node@U?$pair@$$CBV?$basic_string@DU?$char_traits@D@std@@V?$allocator@D@2@@std@@V?$weak_ptr@VRawImageData@@@2@@std@@PAX@std@@@1@@Z 0040000d f   DraggingDemo.obj
 0001:fffff00d       __ehhandler$??0?$basic_string@DU?$char_traits@D@std@@V?$allocator@D@2@@std@@QAE@ABV01@@Z 0040000d f   DraggingDemo.obj
 0001:fffff00d       __ehhandler$??0?$basic_string@DU?$char_traits@D@std@@V?$allocator@D@2@@std@@QAE@QBD@Z 0040000d f   DraggingDemo.obj
 0001:fffff00d       __ehhandler$??0ImageManager@@QAE@XZ 0040000d f   DraggingDemo.obj
 0001:fffff00d       __ehhandler$??0RawImageData@@QAE@V?$basic_string@DU?$char_traits@D@std@@V?$allocator@D@2@@std@@@Z 0040000d f   DraggingDemo.obj
 0001:fffff00d       __ehhandler$??0sentry@?$basic_ostream@DU?$char_traits@D@std@@@std@@QAE@AAV12@@Z 0040000d f   DraggingDemo.obj
 0001:fffff00d       __ehhandler$?_Alloc_sentinel_and_proxy@?$_Tree@V?$_Tmap_traits@V?$basic_string@DU?$char_traits@D@std@@V?$allocator@D@2@@std@@V?$shared_ptr@VRawImageData@@@2@U?$less@V?$basic_string@DU?$char_traits@D@std@@V?$allocator@D@2@@std@@@2@V?$allocator@U?$pair@$$CBV?$basic_string@DU?$char_traits@D@std@@V?$allocator@D@2@@std@@V?$shared_ptr@VRawImageData@@@2@@std@@@2@$0A@@std@@@std@@IAEXXZ 0040000d f   DraggingDemo.obj
 0001:fffff00d       __ehhandler$?_Alloc_sentinel_and_proxy@?$_Tree@V?$_Tmap_traits@V?$basic_string@DU?$char_traits@D@std@@V?$allocator@D@2@@std@@V?$weak_ptr@VRawImageData@@@2@U?$less@V?$basic_string@DU?$char_traits@D@std@@V?$allocator@D@2@@std@@@2@V?$allocator@U?$pair@$$CBV?$basic_string@DU?$char_traits@D@std@@V?$allocator@D@2@@std@@V?$weak_ptr@VRawImageData@@@2@@std@@@2@$0A@@std@@@std@@IAEXXZ 0040000d f   DraggingDemo.obj
 0001:fffff00d       __ehhandler$?getImagebyURL@ImageManager@@QAE?AVSimpleImage@@V?$basic_string@DU?$char_traits@D@std@@V?$allocator@D@2@@std@@_N1@Z 0040000d f   DraggingDemo.obj
 0001:fffff00d       __ehhandler$?loadImage@RawImageData@@QAE_NV?$basic_string@DU?$char_traits@D@std@@V?$allocator@D@2@@std@@HHHHH_N@Z 0040000d f   DraggingDemo.obj
 0001:fffff00d       __ehhandler$??$?6U?$char_traits@D@std@@@std@@YAAAV?$basic_ostream@DU?$char_traits@D@std@@@0@AAV10@PBD@Z 0040000d f   DrawingSurface.obj
 0001:fffff00d       __ehhandler$??0sentry@?$basic_ostream@DU?$char_traits@D@std@@@std@@QAE@AAV12@@Z 0040000d f   DrawingSurface.obj
 0001:fffff00d       __ehhandler$??$?6U?$char_traits@D@std@@@std@@YAAAV?$basic_ostream@DU?$char_traits@D@std@@@0@AAV10@PBD@Z 0040000d f   FlashingDemo.obj
 0001:fffff00d       __ehhandler$??0sentry@?$basic_ostream@DU?$char_traits@D@std@@@std@@QAE@AAV12@@Z 0040000d f   FlashingDemo.obj
 0001:fffff00d       __ehhandler$??$?0U?$pair@V?$basic_string@DU?$char_traits@D@std@@V?$allocator@D@2@@std@@V?$shared_ptr@VRawImageData@@@2@@std@@@?$_Tree_temp_node@V?$allocator@U?$_Tree_node@U?$pair@$$CBV?$basic_string@DU?$char_traits@D@std@@V?$allocator@D@2@@std@@V?$shared_ptr@VRawImageData@@@2@@std@@PAX@std@@@std@@@std@@QAE@AAV?$allocator@U?$_Tree_node@U?$pair@$$CBV?$basic_string@DU?$char_traits@D@std@@V?$allocator@D@2@@std@@V?$shared_ptr@VRawImageData@@@2@@std@@PAX@std@@@1@PAU?$_Tree_node@U?$pair@$$CBV?$basic_string@DU?$char_traits@D@std@@V?$allocator@D@2@@std@@V?$shared_ptr@VRawImageData@@@2@@std@@PAX@1@$$QAU?$pair@V?$basic_string@DU?$char_traits@D@std@@V?$allocator@D@2@@std@@V?$shared_ptr@VRawImageData@@@2@@1@@Z 0040000d f   ImageMappingDemo.obj
 0001:fffff00d       __ehhandler$??$?0U?$pair@V?$basic_string@DU?$char_traits@D@std@@V?$allocator@D@2@@std@@V?$weak_ptr@VRawImageData@@@2@@std@@@?$_Tree_temp_node@V?$allocator@U?$_Tree_node@U?$pair@$$CBV?$basic_string@DU?$char_traits@D@std@@V?$allocator@D@2@@std@@V?$weak_ptr@VRawImageData@@@2@@std@@PAX@std@@@std@@@std@@QAE@AAV?$allocator@U?$_Tree_node@U?$pair@$$CBV?$basic_string@DU?$char_traits@D@std@@V?$allocator@D@2@@std@@V?$weak_ptr@VRawImageData@@@2@@std@@PAX@std@@@1@PAU?$_Tree_node@U?$pair@$$CBV?$basic_string@DU?$char_traits@D@std@@V?$allocator@D@2@@std@@V?$weak_ptr@VRawImageData@@@2@@std@@PAX@1@$$QAU?$pair@V?$basic_string@DU?$char_traits@D@std@@V?$allocator@D@2@@std@@V?$weak_ptr@VRawImageData@@@2@@1@@Z 0040000d f   ImageMappingDemo.obj
 0001:fffff00d       __ehhandler$??$?6U?$char_traits@D@std@@@std@@YAAAV?$basic_ostream@DU?$char_traits@D@std@@@0@AAV10@PBD@Z 0040000d f   ImageMappingDemo.obj
 0001:fffff00d       __ehhandler$??$_Construct@$00PBD@?$basic_string@DU?$char_traits@D@std@@V?$allocator@D@2@@std@@AAEXQBDI@Z 0040000d f   ImageMappingDemo.obj
 0001:fffff00d       __ehhandler$??$_Construct@$01PBD@?$basic_string@DU?$char_traits@D@std@@V?$allocator@D@2@@std@@AAEXQBDI@Z 0040000d f   ImageMappingDemo.obj
 0001:fffff00d       __ehhandler$??$_Insert_string@DU?$char_traits@D@std@@I@std@@YAAAV?$basic_ostream@DU?$char_traits@D@std@@@0@AAV10@QBDI@Z 0040000d f   ImageMappingDemo.obj
 0001:fffff00d       __ehhandler$??$_Uninitialized_move@PAPAVDisplayableObject@@V?$allocator@PAVDisplayableObject@@@std@@@std@@YAPAPAVDisplayableObject@@QAPAV1@0PAPAV1@AAV?$allocator@PAVDisplayableObject@@@0@@Z 0040000d f   ImageMappingDemo.obj
 0001:fffff00d       __ehhandler$??$_Uninitialized_value_construct_n@V?$allocator@PAVDisplayableObject@@@std@@@std@@YAPAPAVDisplayableObject@@PAPAV1@IAAV?$allocator@PAVDisplayableObject@@@0@@Z 0040000d f   ImageMappingDemo.obj
 0001:fffff00d       __ehhandler$??0?$_Tree_temp_node_alloc@V?$allocator@U?$_Tree_node@U?$pair@$$CBV?$basic_string@DU?$char_traits@D@std@@V?$allocator@D@2@@std@@V?$shared_ptr@VRawImageData@@@2@@std@@PAX@std@@@std@@@std@@QAE@AAV?$allocator@U?$_Tree_node@U?$pair@$$CBV?$basic_string@DU?$char_traits@D@std@@V?$allocator@D@2@@std@@V?$shared_ptr@VRawImageData@@@2@@std@@PAX@std@@@1@@Z 0040000d f   ImageMappingDemo.obj
 0001:fffff00d       __ehhandler$??0?$_Tree_temp_node_alloc@V?$allocator@U?$_Tree_node@U?$pair@$$CBV?$basic_string@DU?$char_traits@D@std@@V?$allocator@D@2@@std@@V?$weak_ptr@VRawImageData@@@2@@std@@PAX@std@@@std@@@std@@QAE@AAV?$allocator@U?$_Tree_node@U?$pair@$$CBV?$basic_string@DU?$char_traits@D@std@@V?$allocator@D@2@@std@@V?$weak_ptr@VRawImageData@@@2@@std@@PAX@std@@@1@@Z 0040000d f   ImageMappingDemo.obj
 0001:fffff00d       __ehhandler$??0?$basic_string@DU?$char_traits@D@std@@V?$allocator@D@2@@std@@QAE@ABV01@@Z 0040000d f   ImageMappingDemo.obj
 0001:fffff00d       __ehhandler$??0?$basic_string@DU?$char_traits@D@std@@V?$allocator@D@2@@std@@QAE@QBD@Z 0040000d f   ImageMappingDemo.obj
 0001:fffff00d       __ehhandler$??0ImageManager@@QAE@XZ 0040000d f   ImageMappingDemo.obj
 0001:fffff00d       __ehhandler$??0RawImageData@@QAE@V?$basic_string@DU?$char_traits@D@std@@V?$allocator@D@2@@std@@@Z 0040000d f   ImageMappingDemo.obj
 0001:fffff00d       __ehhandler$??0sentry@?$basic_ostream@DU?$char_traits@D@std@@@std@@QAE@AAV12@@Z 0040000d f   ImageMappingDemo.obj
 0001:fffff00d       __ehhandler$?_Alloc_sentinel_and_proxy@?$_Tree@V?$_Tmap_traits@V?$basic_string@DU?$char_traits@D@std@@V?$allocator@D@2@@std@@V?$shared_ptr@VRawImageData@@@2@U?$less@V?$basic_string@DU?$char_traits@D@std@@V?$allocator@D@2@@std@@@2@V?$allocator@U?$pair@$$CBV?$basic_string@DU?$char_traits@D@std@@V?$allocator@D@2@@std@@V?$shared_ptr@VRawImageData@@@2@@std@@@2@$0A@@std@@@std@@IAEXXZ 0040000d f   ImageMappingDemo.obj
 0001:fffff00d       __ehhandler$?_Alloc_sentinel_and_proxy@?$_Tree@V?$_Tmap_traits@V?$basic_string@DU?$char_traits@D@std@@V?$allocator@D@2@@std@@V?$weak_ptr@VRawImageData@@@2@U?$less@V?$basic_string@DU?$char_traits@D@std@@V?$allocator@D@2@@std@@@2@V?$allocator@U?$pair@$$CBV?$basic_string@DU?$char_traits@D@std@@V?$allocator@D@2@@std@@V?$weak_ptr@VRawImageData@@@2@@std@@@2@$0A@@std@@@std@@IAEXXZ 0040000d f   ImageMappingDemo.obj
 0001:fffff00d       __ehhandler$?getImagebyURL@ImageManager@@QAE?AVSimpleImage@@V?$basic_string@DU?$char_traits@D@std@@V?$allocator@D@2@@std@@_N1@Z 0040000d f   ImageMappingDemo.obj
 0001:fffff00d       __ehhandler$?loadImage@RawImageData@@QAE_NV?$basic_string@DU?$char_traits@D@std@@V?$allocator@D@2@@std@@HHHHH_N@Z 0040000d f   ImageMappingDemo.obj
 0001:fffff00d       __ehhandler$??$_Uninitialized_move@PAPAVDisplayableObject@@V?$allocator@PAVDisplayableObject@@@std@@@std@@YAPAPAVDisplayableObject@@QAPAV1@0PAPAV1@AAV?$allocator@PAVDisplayableObject@@@0@@Z 0040000d f   MazeDemoMain.obj
 0001:fffff00d       __ehhandler$??$_Uninitialized_value_construct_n@V?$allocator@PAVDisplayableObject@@@std@@@std@@YAPAPAVDisplayableObject@@PAPAV1@IAAV?$allocator@PAVDisplayableObject@@@0@@Z 0040000d f   MazeDemoMain.obj
 0001:fffff00d       __ehhandler$?setAllObjectsVisible@DisplayableObjectContainer@@QBEX_N@Z 0040000d f   MazeDemoMain.obj
 0001:fffff00d       __ehhandler$??$?0U?$pair@V?$basic_string@DU?$char_traits@D@std@@V?$allocator@D@2@@std@@V?$shared_ptr@VRawImageData@@@2@@std@@@?$_Tree_temp_node@V?$allocator@U?$_Tree_node@U?$pair@$$CBV?$basic_string@DU?$char_traits@D@std@@V?$allocator@D@2@@std@@V?$shared_ptr@VRawImageData@@@2@@std@@PAX@std@@@std@@@std@@QAE@AAV?$allocator@U?$_Tree_node@U?$pair@$$CBV?$basic_string@DU?$char_traits@D@std@@V?$allocator@D@2@@std@@V?$shared_ptr@VRawImageData@@@2@@std@@PAX@std@@@1@PAU?$_Tree_node@U?$pair@$$CBV?$basic_string@DU?$char_traits@D@std@@V?$allocator@D@2@@std@@V?$shared_ptr@VRawImageData@@@2@@std@@PAX@1@$$QAU?$pair@V?$basic_string@DU?$char_traits@D@std@@V?$allocator@D@2@@std@@V?$shared_ptr@VRawImageData@@@2@@1@@Z 0040000d f   MyDemoA.obj
 0001:fffff00d       __ehhandler$??$?0U?$pair@V?$basic_string@DU?$char_traits@D@std@@V?$allocator@D@2@@std@@V?$weak_ptr@VRawImageData@@@2@@std@@@?$_Tree_temp_node@V?$allocator@U?$_Tree_node@U?$pair@$$CBV?$basic_string@DU?$char_traits@D@std@@V?$allocator@D@2@@std@@V?$weak_ptr@VRawImageData@@@2@@std@@PAX@std@@@std@@@std@@QAE@AAV?$allocator@U?$_Tree_node@U?$pair@$$CBV?$basic_string@DU?$char_traits@D@std@@V?$allocator@D@2@@std@@V?$weak_ptr@VRawImageData@@@2@@std@@PAX@std@@@1@PAU?$_Tree_node@U?$pair@$$CBV?$basic_string@DU?$char_traits@D@std@@V?$allocator@D@2@@std@@V?$weak_ptr@VRawImageData@@@2@@std@@PAX@1@$$QAU?$pair@V?$basic_string@DU?$char_traits@D@std@@V?$allocator@D@2@@std@@V?$weak_ptr@VRawImageData@@@2@@1@@Z 0040000d f   MyDemoA.obj
 0001:fffff00d       __ehhandler$??$?6U?$char_traits@D@std@@@std@@YAAAV?$basic_ostream@DU?$char_traits@D@std@@@0@AAV10@PBD@Z 0040000d f   MyDemoA.obj
 0001:fffff00d       __ehhandler$??$_Construct@$00PBD@?$basic_string@DU?$char_traits@D@std@@V?$allocator@D@2@@std@@AAEXQBDI@Z 0040000d f   MyDemoA.obj
 0001:fffff00d       __ehhandler$??$_Construct@$01PBD@?$basic_string@DU?$char_traits@D@std@@V?$allocator@D@2@@std@@AAEXQBDI@Z 0040000d f   MyDemoA.obj
 0001:fffff00d       __ehhandler$??$_Insert_string@DU?$char_traits@D@std@@I@std@@YAAAV?$basic_ostream@DU?$char_traits@D@std@@@0@AAV10@QBDI@Z 0040000d f   MyDemoA.obj
 0001:fffff00d       __ehhandler$??$_Uninitialized_move@PAPAVDisplayableObject@@V?$allocator@PAVDisplayableObject@@@std@@@std@@YAPAPAVDisplayableObject@@QAPAV1@0PAPAV1@AAV?$allocator@PAVDisplayableObject@@@0@@Z 0040000d f   MyDemoA.obj
 0001:fffff00d       __ehhandler$??$_Uninitialized_value_construct_n@V?$allocator@PAVDisplayableObject@@@std@@@std@@YAPAPAVDisplayableObject@@PAPAV1@IAAV?$allocator@PAVDisplayableObject@@@0@@Z 0040000d f   MyDemoA.obj
 0001:fffff00d       __ehhandler$??0?$_Tree_temp_node_alloc@V?$allocator@U?$_Tree_node@U?$pair@$$CBV?$basic_string@DU?$char_traits@D@std@@V?$allocator@D@2@@std@@V?$shared_ptr@VRawImageData@@@2@@std@@PAX@std@@@std@@@std@@QAE@AAV?$allocator@U?$_Tree_node@U?$pair@$$CBV?$basic_string@DU?$char_traits@D@std@@V?$allocator@D@2@@std@@V?$shared_ptr@VRawImageData@@@2@@std@@PAX@std@@@1@@Z 0040000d f   MyDemoA.obj
 0001:fffff00d       __ehhandler$??0?$_Tree_temp_node_alloc@V?$allocator@U?$_Tree_node@U?$pair@$$CBV?$basic_string@DU?$char_traits@D@std@@V?$allocator@D@2@@std@@V?$weak_ptr@VRawImageData@@@2@@std@@PAX@std@@@std@@@std@@QAE@AAV?$allocator@U?$_Tree_node@U?$pair@$$CBV?$basic_string@DU?$char_traits@D@std@@V?$allocator@D@2@@std@@V?$weak_ptr@VRawImageData@@@2@@std@@PAX@std@@@1@@Z 0040000d f   MyDemoA.obj
 0001:fffff00d       __ehhandler$??0?$basic_string@DU?$char_traits@D@std@@V?$allocator@D@2@@std@@QAE@ABV01@@Z 0040000d f   MyDemoA.obj
 0001:fffff00d       __ehhandler$??0?$basic_string@DU?$char_traits@D@std@@V?$allocator@D@2@@std@@QAE@QBD@Z 0040000d f   MyDemoA.obj
 0001:fffff00d       __ehhandler$??0ImageManager@@QAE@XZ 0040000d f   MyDemoA.obj
 0001:fffff00d       __ehhandler$??0RawImageData@@QAE@V?$basic_string@DU?$char_traits@D@std@@V?$allocator@D@2@@std@@@Z 0040000d f   MyDemoA.obj
 0001:fffff00d       __ehhandler$??0sentry@?$basic_ostream@DU?$char_traits@D@std@@@std@@QAE@AAV12@@Z 0040000d f   MyDemoA.obj
 0001:fffff00d       __ehhandler$?_Alloc_sentinel_and_proxy@?$_Tree@V?$_Tmap_traits@V?$basic_string@DU?$char_traits@D@std@@V?$allocator@D@2@@std@@V?$shared_ptr@VRawImageData@@@2@U?$less@V?$basic_string@DU?$char_traits@D@std@@V?$allocator@D@2@@std@@@2@V?$allocator@U?$pair@$$CBV?$basic_string@DU?$char_traits@D@std@@V?$allocator@D@2@@std@@V?$shared_ptr@VRawImageData@@@2@@std@@@2@$0A@@std@@@std@@IAEXXZ 0040000d f   MyDemoA.obj
 0001:fffff00d       __ehhandler$?_Alloc_sentinel_and_proxy@?$_Tree@V?$_Tmap_traits@V?$basic_string@DU?$char_traits@D@std@@V?$allocator@D@2@@std@@V?$weak_ptr@VRawImageData@@@2@U?$less@V?$basic_string@DU?$char_traits@D@std@@V?$allocator@D@2@@std@@@2@V?$allocator@U?$pair@$$CBV?$basic_string@DU?$char_traits@D@std@@V?$allocator@D@2@@std@@V?$weak_ptr@VRawImageData@@@2@@std@@@2@$0A@@std@@@std@@IAEXXZ 0040000d f   MyDemoA.obj
 0001:fffff00d       __ehhandler$?getImagebyURL@ImageManager@@QAE?AVSimpleImage@@V?$basic_string@DU?$char_traits@D@std@@V?$allocator@D@2@@std@@_N1@Z 0040000d f   MyDemoA.obj
 0001:fffff00d       __ehhandler$?loadImage@RawImageData@@QAE_NV?$basic_string@DU?$char_traits@D@std@@V?$allocator@D@2@@std@@HHHHH_N@Z 0040000d f   MyDemoA.obj
 0001:fffff00d       __ehhandler$?setAllObjectsVisible@DisplayableObjectContainer@@QBEX_N@Z 0040000d f   MyDemoA.obj
 0001:fffff00d       __ehhandler$??$?0U?$pair@V?$basic_string@DU?$char_traits@D@std@@V?$allocator@D@2@@std@@V?$shared_ptr@VRawImageData@@@2@@std@@@?$_Tree_temp_node@V?$allocator@U?$_Tree_node@U?$pair@$$CBV?$basic_string@DU?$char_traits@D@std@@V?$allocator@D@2@@std@@V?$shared_ptr@VRawImageData@@@2@@std@@PAX@std@@@std@@@std@@QAE@AAV?$allocator@U?$_Tree_node@U?$pair@$$CBV?$basic_string@DU?$char_traits@D@std@@V?$allocator@D@2@@std@@V?$shared_ptr@VRawImageData@@@2@@std@@PAX@std@@@1@PAU?$_Tree_node@U?$pair@$$CBV?$basic_string@DU?$char_traits@D@std@@V?$allocator@D@2@@std@@V?$shared_ptr@VRawImageData@@@2@@std@@PAX@1@$$QAU?$pair@V?$basic_string@DU?$char_traits@D@std@@V?$allocator@D@2@@std@@V?$shared_ptr@VRawImageData@@@2@@1@@Z 0040000d f   Psyes9Engine.obj
 0001:fffff00d       __ehhandler$??$?0U?$pair@V?$basic_string@DU?$char_traits@D@std@@V?$allocator@D@2@@std@@V?$weak_ptr@VRawImageData@@@2@@std@@@?$_Tree_temp_node@V?$allocator@U?$_Tree_node@U?$pair@$$CBV?$basic_string@DU?$char_traits@D@std@@V?$allocator@D@2@@std@@V?$weak_ptr@VRawImageData@@@2@@std@@PAX@std@@@std@@@std@@QAE@AAV?$allocator@U?$_Tree_node@U?$pair@$$CBV?$basic_string@DU?$char_traits@D@std@@V?$allocator@D@2@@std@@V?$weak_ptr@VRawImageData@@@2@@std@@PAX@std@@@1@PAU?$_Tree_node@U?$pair@$$CBV?$basic_string@DU?$char_traits@D@std@@V?$allocator@D@2@@std@@V?$weak_ptr@VRawImageData@@@2@@std@@PAX@1@$$QAU?$pair@V?$basic_string@DU?$char_traits@D@std@@V?$allocator@D@2@@std@@V?$weak_ptr@VRawImageData@@@2@@1@@Z 0040000d f   Psyes9Engine.obj
 0001:fffff00d       __ehhandler$??$?6U?$char_traits@D@std@@@std@@YAAAV?$basic_ostream@DU?$char_traits@D@std@@@0@AAV10@PBD@Z 0040000d f   Psyes9Engine.obj
 0001:fffff00d       __ehhandler$??$_Construct@$00PBD@?$basic_string@DU?$char_traits@D@std@@V?$allocator@D@2@@std@@AAEXQBDI@Z 0040000d f   Psyes9Engine.obj
 0001:fffff00d       __ehhandler$??$_Construct@$01PBD@?$basic_string@DU?$char_traits@D@std@@V?$allocator@D@2@@std@@AAEXQBDI@Z 0040000d f   Psyes9Engine.obj
 0001:fffff00d       __ehhandler$??$_Insert_string@DU?$char_traits@D@std@@I@std@@YAAAV?$basic_ostream@DU?$char_traits@D@std@@@0@AAV10@QBDI@Z 0040000d f   Psyes9Engine.obj
 0001:fffff00d       __ehhandler$??$_Uninitialized_move@PAPAVDisplayableObject@@V?$allocator@PAVDisplayableObject@@@std@@@std@@YAPAPAVDisplayableObject@@QAPAV1@0PAPAV1@AAV?$allocator@PAVDisplayableObject@@@0@@Z 0040000d f   Psyes9Engine.obj
 0001:fffff00d       __ehhandler$??$_Uninitialized_value_construct_n@V?$allocator@PAVDisplayableObject@@@std@@@std@@YAPAPAVDisplayableObject@@PAPAV1@IAAV?$allocator@PAVDisplayableObject@@@0@@Z 0040000d f   Psyes9Engine.obj
 0001:fffff00d       __ehhandler$??0?$_Tree_temp_node_alloc@V?$allocator@U?$_Tree_node@U?$pair@$$CBV?$basic_string@DU?$char_traits@D@std@@V?$allocator@D@2@@std@@V?$shared_ptr@VRawImageData@@@2@@std@@PAX@std@@@std@@@std@@QAE@AAV?$allocator@U?$_Tree_node@U?$pair@$$CBV?$basic_string@DU?$char_traits@D@std@@V?$allocator@D@2@@std@@V?$shared_ptr@VRawImageData@@@2@@std@@PAX@std@@@1@@Z 0040000d f   Psyes9Engine.obj
 0001:fffff00d       __ehhandler$??0?$_Tree_temp_node_alloc@V?$allocator@U?$_Tree_node@U?$pair@$$CBV?$basic_string@DU?$char_traits@D@std@@V?$allocator@D@2@@std@@V?$weak_ptr@VRawImageData@@@2@@std@@PAX@std@@@std@@@std@@QAE@AAV?$allocator@U?$_Tree_node@U?$pair@$$CBV?$basic_string@DU?$char_traits@D@std@@V?$allocator@D@2@@std@@V?$weak_ptr@VRawImageData@@@2@@std@@PAX@std@@@1@@Z 0040000d f   Psyes9Engine.obj
 0001:fffff00d       __ehhandler$??0?$basic_string@DU?$char_traits@D@std@@V?$allocator@D@2@@std@@QAE@ABV01@@Z 0040000d f   Psyes9Engine.obj
 0001:fffff00d       __ehhandler$??0?$basic_string@DU?$char_traits@D@std@@V?$allocator@D@2@@std@@QAE@QBD@Z 0040000d f   Psyes9Engine.obj
 0001:fffff00d       __ehhandler$??0ImageManager@@QAE@XZ 0040000d f   Psyes9Engine.obj
 0001:fffff00d       __ehhandler$??0RawImageData@@QAE@V?$basic_string@DU?$char_traits@D@std@@V?$allocator@D@2@@std@@@Z 0040000d f   Psyes9Engine.obj
 0001:fffff00d       __ehhandler$??0sentry@?$basic_ostream@DU?$char_traits@D@std@@@std@@QAE@AAV12@@Z 0040000d f   Psyes9Engine.obj
 0001:fffff00d       __ehhandler$?_Alloc_sentinel_and_proxy@?$_Tree@V?$_Tmap_traits@V?$basic_string@DU?$char_traits@D@std@@V?$allocator@D@2@@std@@V?$shared_ptr@VRawImageData@@@2@U?$less@V?$basic_string@DU?$char_traits@D@std@@V?$allocator@D@2@@std@@@2@V?$allocator@U?$pair@$$CBV?$basic_string@DU?$char_traits@D@std@@V?$allocator@D@2@@std@@V?$shared_ptr@VRawImageData@@@2@@std@@@2@$0A@@std@@@std@@IAEXXZ 0040000d f   Psyes9Engine.obj
 0001:fffff00d       __ehhandler$?_Alloc_sentinel_and_proxy@?$_Tree@V?$_Tmap_traits@V?$basic_string@DU?$char_traits@D@std@@V?$allocator@D@2@@std@@V?$weak_ptr@VRawImageData@@@2@U?$less@V?$basic_string@DU?$char_traits@D@std@@V?$allocator@D@2@@std@@@2@V?$allocator@U?$pair@$$CBV?$basic_string@DU?$char_traits@D@std@@V?$allocator@D@2@@std@@V?$weak_ptr@VRawImageData@@@2@@std@@@2@$0A@@std@@@std@@IAEXXZ 0040000d f   Psyes9Engine.obj
 0001:fffff00d       __ehhandler$?getImagebyURL@ImageManager@@QAE?AVSimpleImage@@V?$basic_string@DU?$char_traits@D@std@@V?$allocator@D@2@@std@@_N1@Z 0040000d f   Psyes9Engine.obj
 0001:fffff00d       __ehhandler$?loadImage@RawImageData@@QAE_NV?$basic_string@DU?$char_traits@D@std@@V?$allocator@D@2@@std@@HHHHH_N@Z 0040000d f   Psyes9Engine.obj
 0001:fffff00d       __ehhandler$??$?6U?$char_traits@D@std@@@std@@YAAAV?$basic_ostream@DU?$char_traits@D@std@@@0@AAV10@PBD@Z 0040000d f   SimpleDemo.obj
 0001:fffff00d       __ehhandler$??$_Uninitialized_move@PAPAVDisplayableObject@@V?$allocator@PAVDisplayableObject@@@std@@@std@@YAPAPAVDisplayableObject@@QAPAV1@0PAPAV1@AAV?$allocator@PAVDisplayableObject@@@0@@Z 0040000d f   SimpleDemo.obj
 0001:fffff00d       __ehhandler$??$_Uninitialized_value_construct_n@V?$allocator@PAVDisplayableObject@@@std@@@std@@YAPAPAVDisplayableObject@@PAPAV1@IAAV?$allocator@PAVDisplayableObject@@@0@@Z 0040000d f   SimpleDemo.obj
 0001:fffff00d       __ehhandler$??0sentry@?$basic_ostream@DU?$char_traits@D@std@@@std@@QAE@AAV12@@Z 0040000d f   SimpleDemo.obj
 0001:fffff00d       __ehhandler$??$?6U?$char_traits@D@std@@@std@@YAAAV?$basic_ostream@DU?$char_traits@D@std@@@0@AAV10@PBD@Z 0040000d f   SimpleImage.obj
 0001:fffff00d       __ehhandler$??0sentry@?$basic_ostream@DU?$char_traits@D@std@@@std@@QAE@AAV12@@Z 0040000d f   SimpleImage.obj
 0001:fffff00d       __ehhandler$??$?6U?$char_traits@D@std@@@std@@YAAAV?$basic_ostream@DU?$char_traits@D@std@@@0@AAV10@PBD@Z 0040000d f   StarfieldDemo.obj
 0001:fffff00d       __ehhandler$??0sentry@?$basic_ostream@DU?$char_traits@D@std@@@std@@QAE@AAV12@@Z 0040000d f   StarfieldDemo.obj
 0001:fffff00d       __ehhandler$??$?0U?$pair@V?$basic_string@DU?$char_traits@D@std@@V?$allocator@D@2@@std@@V?$shared_ptr@VRawImageData@@@2@@std@@@?$_Tree_temp_node@V?$allocator@U?$_Tree_node@U?$pair@$$CBV?$basic_string@DU?$char_traits@D@std@@V?$allocator@D@2@@std@@V?$shared_ptr@VRawImageData@@@2@@std@@PAX@std@@@std@@@std@@QAE@AAV?$allocator@U?$_Tree_node@U?$pair@$$CBV?$basic_string@DU?$char_traits@D@std@@V?$allocator@D@2@@std@@V?$shared_ptr@VRawImageData@@@2@@std@@PAX@std@@@1@PAU?$_Tree_node@U?$pair@$$CBV?$basic_string@DU?$char_traits@D@std@@V?$allocator@D@2@@std@@V?$shared_ptr@VRawImageData@@@2@@std@@PAX@1@$$QAU?$pair@V?$basic_string@DU?$char_traits@D@std@@V?$allocator@D@2@@std@@V?$shared_ptr@VRawImageData@@@2@@1@@Z 0040000d f   ZoomingDemo.obj
 0001:fffff00d       __ehhandler$??$?0U?$pair@V?$basic_string@DU?$char_traits@D@std@@V?$allocator@D@2@@std@@V?$weak_ptr@VRawImageData@@@2@@std@@@?$_Tree_temp_node@V?$allocator@U?$_Tree_node@U?$pair@$$CBV?$basic_string@DU?$char_traits@D@std@@V?$allocator@D@2@@std@@V?$weak_ptr@VRawImageData@@@2@@std@@PAX@std@@@std@@@std@@QAE@AAV?$allocator@U?$_Tree_node@U?$pair@$$CBV?$basic_string@DU?$char_traits@D@std@@V?$allocator@D@2@@std@@V?$weak_ptr@VRawImageData@@@2@@std@@PAX@std@@@1@PAU?$_Tree_node@U?$pair@$$CBV?$basic_string@DU?$char_traits@D@std@@V?$allocator@D@2@@std@@V?$weak_ptr@VRawImageData@@@2@@std@@PAX@1@$$QAU?$pair@V?$basic_string@DU?$char_traits@D@std@@V?$allocator@D@2@@std@@V?$weak_ptr@VRawImageData@@@2@@1@@Z 0040000d f   ZoomingDemo.obj
 0001:fffff00d       __ehhandler$??$?6U?$char_traits@D@std@@@std@@YAAAV?$basic_ostream@DU?$char_traits@D@std@@@0@AAV10@PBD@Z 0040000d f   ZoomingDemo.obj
 0001:fffff00d       __ehhandler$??$_Construct@$00PBD@?$basic_string@DU?$char_traits@D@std@@V?$allocator@D@2@@std@@AAEXQBDI@Z 0040000d f   ZoomingDemo.obj
 0001:fffff00d       __ehhandler$??$_Construct@$01PBD@?$basic_string@DU?$char_traits@D@std@@V?$allocator@D@2@@std@@AAEXQBDI@Z 0040000d f   ZoomingDemo.obj
 0001:fffff00d       __ehhandler$??$_Insert_string@DU?$char_traits@D@std@@I@std@@YAAAV?$basic_ostream@DU?$char_traits@D@std@@@0@AAV10@QBDI@Z 0040000d f   ZoomingDemo.obj
 0001:fffff00d       __ehhandler$??$_Uninitialized_move@PAPAVDisplayableObject@@V?$allocator@PAVDisplayableObject@@@std@@@std@@YAPAPAVDisplayableObject@@QAPAV1@0PAPAV1@AAV?$allocator@PAVDisplayableObject@@@0@@Z 0040000d f   ZoomingDemo.obj
 0001:fffff00d       __ehhandler$??$_Uninitialized_value_construct_n@V?$allocator@PAVDisplayableObject@@@std@@@std@@YAPAPAVDisplayableObject@@PAPAV1@IAAV?$allocator@PAVDisplayableObject@@@0@@Z 0040000d f   ZoomingDemo.obj
 0001:fffff00d       __ehhandler$??0?$_Tree_temp_node_alloc@V?$allocator@U?$_Tree_node@U?$pair@$$CBV?$basic_string@DU?$char_traits@D@std@@V?$allocator@D@2@@std@@V?$shared_ptr@VRawImageData@@@2@@std@@PAX@std@@@std@@@std@@QAE@AAV?$allocator@U?$_Tree_node@U?$pair@$$CBV?$basic_string@DU?$char_traits@D@std@@V?$allocator@D@2@@std@@V?$shared_ptr@VRawImageData@@@2@@std@@PAX@std@@@1@@Z 0040000d f   ZoomingDemo.obj
 0001:fffff00d       __ehhandler$??0?$_Tree_temp_node_alloc@V?$allocator@U?$_Tree_node@U?$pair@$$CBV?$basic_string@DU?$char_traits@D@std@@V?$allocator@D@2@@std@@V?$weak_ptr@VRawImageData@@@2@@std@@PAX@std@@@std@@@std@@QAE@AAV?$allocator@U?$_Tree_node@U?$pair@$$CBV?$basic_string@DU?$char_traits@D@std@@V?$allocator@D@2@@std@@V?$weak_ptr@VRawImageData@@@2@@std@@PAX@std@@@1@@Z 0040000d f   ZoomingDemo.obj
 0001:fffff00d       __ehhandler$??0?$basic_string@DU?$char_traits@D@std@@V?$allocator@D@2@@std@@QAE@ABV01@@Z 0040000d f   ZoomingDemo.obj
 0001:fffff00d       __ehhandler$??0?$basic_string@DU?$char_traits@D@std@@V?$allocator@D@2@@std@@QAE@QBD@Z 0040000d f   ZoomingDemo.obj
 0001:fffff00d       __ehhandler$??0DragableObject@@QAE@HHPAVBaseEngine@@HH_N1@Z 0040000d f   ZoomingDemo.obj
 0001:fffff00d       __ehhandler$??0ImageManager@@QAE@XZ 0040000d f   ZoomingDemo.obj
 0001:fffff00d       __ehhandler$??0RawImageData@@QAE@V?$basic_string@DU?$char_traits@D@std@@V?$allocator@D@2@@std@@@Z 0040000d f   ZoomingDemo.obj
 0001:fffff00d       __ehhandler$??0sentry@?$basic_ostream@DU?$char_traits@D@std@@@std@@QAE@AAV12@@Z 0040000d f   ZoomingDemo.obj
 0001:fffff00d       __ehhandler$?_Alloc_sentinel_and_proxy@?$_Tree@V?$_Tmap_traits@V?$basic_string@DU?$char_traits@D@std@@V?$allocator@D@2@@std@@V?$shared_ptr@VRawImageData@@@2@U?$less@V?$basic_string@DU?$char_traits@D@std@@V?$allocator@D@2@@std@@@2@V?$allocator@U?$pair@$$CBV?$basic_string@DU?$char_traits@D@std@@V?$allocator@D@2@@std@@V?$shared_ptr@VRawImageData@@@2@@std@@@2@$0A@@std@@@std@@IAEXXZ 0040000d f   ZoomingDemo.obj
 0001:fffff00d       __ehhandler$?_Alloc_sentinel_and_proxy@?$_Tree@V?$_Tmap_traits@V?$basic_string@DU?$char_traits@D@std@@V?$allocator@D@2@@std@@V?$weak_ptr@VRawImageData@@@2@U?$less@V?$basic_string@DU?$char_traits@D@std@@V?$allocator@D@2@@std@@@2@V?$allocator@U?$pair@$$CBV?$basic_string@DU?$char_traits@D@std@@V?$allocator@D@2@@std@@V?$weak_ptr@VRawImageData@@@2@@std@@@2@$0A@@std@@@std@@IAEXXZ 0040000d f   ZoomingDemo.obj
 0001:fffff00d       __ehhandler$?getImagebyURL@ImageManager@@QAE?AVSimpleImage@@V?$basic_string@DU?$char_traits@D@std@@V?$allocator@D@2@@std@@_N1@Z 0040000d f   ZoomingDemo.obj
 0001:fffff00d       __ehhandler$?loadImage@RawImageData@@QAE_NV?$basic_string@DU?$char_traits@D@std@@V?$allocator@D@2@@std@@HHHHH_N@Z 0040000d f   ZoomingDemo.obj
 0001:fffff00e       __ehhandler$?_Orphan_range_locked@?$vector@PAVDisplayableObject@@V?$allocator@PAVDisplayableObject@@@std@@@std@@ABEXPAPAVDisplayableObject@@0@Z 0040000e f   BouncingBallMain.obj
 0001:fffff00e       __ehhandler$?_Orphan_range_locked@?$vector@PAVDisplayableObject@@V?$allocator@PAVDisplayableObject@@@std@@@std@@ABEXPAPAVDisplayableObject@@0@Z 0040000e f   DraggingDemo.obj
 0001:fffff00e       __ehhandler$?_Orphan_range_locked@?$vector@PAVDisplayableObject@@V?$allocator@PAVDisplayableObject@@@std@@@std@@ABEXPAPAVDisplayableObject@@0@Z 0040000e f   ImageMappingDemo.obj
 0001:fffff00e       __ehhandler$?_Orphan_range_locked@?$vector@PAVDisplayableObject@@V?$allocator@PAVDisplayableObject@@@std@@@std@@ABEXPAPAVDisplayableObject@@0@Z 0040000e f   MazeDemoMain.obj
 0001:fffff00e       __ehhandler$?_Orphan_range_locked@?$vector@PAVDisplayableObject@@V?$allocator@PAVDisplayableObject@@@std@@@std@@ABEXPAPAVDisplayableObject@@0@Z 0040000e f   MyDemoA.obj
 0001:fffff00e       __ehhandler$?_Orphan_range_locked@?$vector@PAVDisplayableObject@@V?$allocator@PAVDisplayableObject@@@std@@@std@@ABEXPAPAVDisplayableObject@@0@Z 0040000e f   Psyes9Engine.obj
 0001:fffff00e       __ehhandler$?_Orphan_range_locked@?$vector@PAVDisplayableObject@@V?$allocator@PAVDisplayableObject@@@std@@@std@@ABEXPAPAVDisplayableObject@@0@Z 0040000e f   SimpleDemo.obj
 0001:fffff00e       __ehhandler$?_Orphan_range_locked@?$vector@PAVDisplayableObject@@V?$allocator@PAVDisplayableObject@@@std@@@std@@ABEXPAPAVDisplayableObject@@0@Z 0040000e f   ZoomingDemo.obj
 0002:fffbc010       __tryblocktable$??$?6U?$char_traits@D@std@@@std@@YAAAV?$basic_ostream@DU?$char_traits@D@std@@@0@AAV10@PBD@Z 00400010     BouncingBall.obj
 0002:fffbc010       __tryblocktable$??$?6U?$char_traits@D@std@@@std@@YAAAV?$basic_ostream@DU?$char_traits@D@std@@@0@AAV10@PBD@Z 00400010     BouncingBallMain.obj
 0002:fffbc010       __unwindtable$??$_Resize_reallocate@U_Value_init_tag@std@@@?$vector@PAVDisplayableObject@@V?$allocator@PAVDisplayableObject@@@std@@@std@@AAEXIABU_Value_init_tag@1@@Z 00400010     BouncingBallMain.obj
 0002:fffbc010       __tryblocktable$??$?6U?$char_traits@D@std@@@std@@YAAAV?$basic_ostream@DU?$char_traits@D@std@@@0@AAV10@PBD@Z 00400010     DisplayableObject.obj
 0002:fffbc010       __ehfuncinfo$??$?0VRawImageData@@$0A@@?$shared_ptr@VRawImageData@@@std@@QAE@PAVRawImageData@@@Z 00400010     DraggingDemo.obj
 0002:fffbc010       __ehfuncinfo$?loadAsNew@ImageManager@@QAE?AV?$shared_ptr@VRawImageData@@@std@@V?$basic_string@DU?$char_traits@D@std@@V?$allocator@D@2@@3@@Z 00400010     DraggingDemo.obj
 0002:fffbc010       __tryblocktable$??$?6U?$char_traits@D@std@@@std@@YAAAV?$basic_ostream@DU?$char_traits@D@std@@@0@AAV10@PBD@Z 00400010     DraggingDemo.obj
 0002:fffbc010       __tryblocktable$??$_Insert_string@DU?$char_traits@D@std@@I@std@@YAAAV?$basic_ostream@DU?$char_traits@D@std@@@0@AAV10@QBDI@Z 00400010     DraggingDemo.obj
 0001:fffff010       __unwindfunclet$?getImagePtrbyURL@ImageManager@@QAE?AV?$shared_ptr@VRawImageData@@@std@@V?$basic_string@DU?$char_traits@D@std@@V?$allocator@D@2@@3@_N1@Z$9 00400010 f   DraggingDemo.obj
 0002:fffbc010       __unwindtable$??$_Resize_reallocate@U_Value_init_tag@std@@@?$vector@PAVDisplayableObject@@V?$allocator@PAVDisplayableObject@@@std@@@std@@AAEXIABU_Value_init_tag@1@@Z 00400010     DraggingDemo.obj
 0002:fffbc010       __tryblocktable$??$?6U?$char_traits@D@std@@@std@@YAAAV?$basic_ostream@DU?$char_traits@D@std@@@0@AAV10@PBD@Z 00400010     DrawingSurface.obj
 0000:00000010       _volmd                     00400010     DrawingSurface.obj
 0002:fffbc010       __tryblocktable$??$?6U?$char_traits@D@std@@@std@@YAAAV?$basic_ostream@DU?$char_traits@D@std@@@0@AAV10@PBD@Z 00400010     FlashingDemo.obj
 0002:fffbc010       __ehfuncinfo$??$?0VRawImageData@@$0A@@?$shared_ptr@VRawImageData@@@std@@QAE@PAVRawImageData@@@Z 00400010     ImageMappingDemo.obj
 0002:fffbc010       __ehfuncinfo$?loadAsNew@ImageManager@@QAE?AV?$shared_ptr@VRawImageData@@@std@@V?$basic_string@DU?$char_traits@D@std@@V?$allocator@D@2@@3@@Z 00400010     ImageMappingDemo.obj
 0002:fffbc010       __tryblocktable$??$?6U?$char_traits@D@std@@@std@@YAAAV?$basic_ostream@DU?$char_traits@D@std@@@0@AAV10@PBD@Z 00400010     ImageMappingDemo.obj
 0002:fffbc010       __tryblocktable$??$_Insert_string@DU?$char_traits@D@std@@I@std@@YAAAV?$basic_ostream@DU?$char_traits@D@std@@@0@AAV10@QBDI@Z 00400010     ImageMappingDemo.obj
 0001:fffff010       __unwindfunclet$??0DragableImageObject@@QAE@HHPAVBaseEngine@@V?$basic_string@DU?$char_traits@D@std@@V?$allocator@D@2@@std@@_N2@Z$2 00400010 f   ImageMappingDemo.obj
 0001:fffff010       __unwindfunclet$?getImagePtrbyURL@ImageManager@@QAE?AV?$shared_ptr@VRawImageData@@@std@@V?$basic_string@DU?$char_traits@D@std@@V?$allocator@D@2@@3@_N1@Z$9 00400010 f   ImageMappingDemo.obj
 0002:fffbc010       __unwindtable$??$_Resize_reallocate@U_Value_init_tag@std@@@?$vector@PAVDisplayableObject@@V?$allocator@PAVDisplayableObject@@@std@@@std@@AAEXIABU_Value_init_tag@1@@Z 00400010     ImageMappingDemo.obj
 0002:fffbc010       __unwindtable$??$_Resize_reallocate@U_Value_init_tag@std@@@?$vector@PAVDisplayableObject@@V?$allocator@PAVDisplayableObject@@@std@@@std@@AAEXIABU_Value_init_tag@1@@Z 00400010     MazeDemoMain.obj
 0002:fffbc010       __ehfuncinfo$??$?0VRawImageData@@$0A@@?$shared_ptr@VRawImageData@@@std@@QAE@PAVRawImageData@@@Z 00400010     MyDemoA.obj
 0002:fffbc010       __ehfuncinfo$?loadAsNew@ImageManager@@QAE?AV?$shared_ptr@VRawImageData@@@std@@V?$basic_string@DU?$char_traits@D@std@@V?$allocator@D@2@@3@@Z 00400010     MyDemoA.obj
 0002:fffbc010       __ehfuncinfo$?loadImage@ImageManager@@SA?AVSimpleImage@@V?$basic_string@DU?$char_traits@D@std@@V?$allocator@D@2@@std@@_N@Z 00400010     MyDemoA.obj
 0002:fffbc010       __tryblocktable$??$?6U?$char_traits@D@std@@@std@@YAAAV?$basic_ostream@DU?$char_traits@D@std@@@0@AAV10@PBD@Z 00400010     MyDemoA.obj
 0002:fffbc010       __tryblocktable$??$_Insert_string@DU?$char_traits@D@std@@I@std@@YAAAV?$basic_ostream@DU?$char_traits@D@std@@@0@AAV10@QBDI@Z 00400010     MyDemoA.obj
 0001:fffff010       __unwindfunclet$?getImagePtrbyURL@ImageManager@@QAE?AV?$shared_ptr@VRawImageData@@@std@@V?$basic_string@DU?$char_traits@D@std@@V?$allocator@D@2@@3@_N1@Z$9 00400010 f   MyDemoA.obj
 0002:fffbc010       __unwindtable$??$_Resize_reallocate@U_Value_init_tag@std@@@?$vector@PAVDisplayableObject@@V?$allocator@PAVDisplayableObject@@@std@@@std@@AAEXIABU_Value_init_tag@1@@Z 00400010     MyDemoA.obj
 0002:fffbc010       __ehfuncinfo$??$?0VRawImageData@@$0A@@?$shared_ptr@VRawImageData@@@std@@QAE@PAVRawImageData@@@Z 00400010     Psyes9Engine.obj
 0002:fffbc010       __ehfuncinfo$?loadAsNew@ImageManager@@QAE?AV?$shared_ptr@VRawImageData@@@std@@V?$basic_string@DU?$char_traits@D@std@@V?$allocator@D@2@@3@@Z 00400010     Psyes9Engine.obj
 0002:fffbc010       __ehfuncinfo$?loadImage@ImageManager@@SA?AVSimpleImage@@V?$basic_string@DU?$char_traits@D@std@@V?$allocator@D@2@@std@@_N@Z 00400010     Psyes9Engine.obj
 0002:fffbc010       __tryblocktable$??$?6U?$char_traits@D@std@@@std@@YAAAV?$basic_ostream@DU?$char_traits@D@std@@@0@AAV10@PBD@Z 00400010     Psyes9Engine.obj
 0002:fffbc010       __tryblocktable$??$_Insert_string@DU?$char_traits@D@std@@I@std@@YAAAV?$basic_ostream@DU?$char_traits@D@std@@@0@AAV10@QBDI@Z 00400010     Psyes9Engine.obj
 0001:fffff010       __unwindfunclet$?getImagePtrbyURL@ImageManager@@QAE?AV?$shared_ptr@VRawImageData@@@std@@V?$basic_string@DU?$char_traits@D@std@@V?$allocator@D@2@@3@_N1@Z$9 00400010 f   Psyes9Engine.obj
 0002:fffbc010       __unwindtable$??$_Resize_reallocate@U_Value_init_tag@std@@@?$vector@PAVDisplayableObject@@V?$allocator@PAVDisplayableObject@@@std@@@std@@AAEXIABU_Value_init_tag@1@@Z 00400010     Psyes9Engine.obj
 0002:fffbc010       __tryblocktable$??$?6U?$char_traits@D@std@@@std@@YAAAV?$basic_ostream@DU?$char_traits@D@std@@@0@AAV10@PBD@Z 00400010     SimpleDemo.obj
 0002:fffbc010       __unwindtable$??$_Resize_reallocate@U_Value_init_tag@std@@@?$vector@PAVDisplayableObject@@V?$allocator@PAVDisplayableObject@@@std@@@std@@AAEXIABU_Value_init_tag@1@@Z 00400010     SimpleDemo.obj
 0002:fffbc010       __tryblocktable$??$?6U?$char_traits@D@std@@@std@@YAAAV?$basic_ostream@DU?$char_traits@D@std@@@0@AAV10@PBD@Z 00400010     SimpleImage.obj
 0002:fffbc010       __tryblocktable$??$?6U?$char_traits@D@std@@@std@@YAAAV?$basic_ostream@DU?$char_traits@D@std@@@0@AAV10@PBD@Z 00400010     StarfieldDemo.obj
 0002:fffbc010       __ehfuncinfo$??$?0VRawImageData@@$0A@@?$shared_ptr@VRawImageData@@@std@@QAE@PAVRawImageData@@@Z 00400010     ZoomingDemo.obj
 0002:fffbc010       __ehfuncinfo$?loadAsNew@ImageManager@@QAE?AV?$shared_ptr@VRawImageData@@@std@@V?$basic_string@DU?$char_traits@D@std@@V?$allocator@D@2@@3@@Z 00400010     ZoomingDemo.obj
 0002:fffbc010       __tryblocktable$??$?6U?$char_traits@D@std@@@std@@YAAAV?$basic_ostream@DU?$char_traits@D@std@@@0@AAV10@PBD@Z 00400010     ZoomingDemo.obj
 0002:fffbc010       __tryblocktable$??$_Insert_string@DU?$char_traits@D@std@@I@std@@YAAAV?$basic_ostream@DU?$char_traits@D@std@@@0@AAV10@QBDI@Z 00400010     ZoomingDemo.obj
 0001:fffff010       __unwindfunclet$??0DragableImageObject@@QAE@HHPAVBaseEngine@@V?$basic_string@DU?$char_traits@D@std@@V?$allocator@D@2@@std@@_N2@Z$2 00400010 f   ZoomingDemo.obj
 0001:fffff010       __unwindfunclet$?getImagePtrbyURL@ImageManager@@QAE?AV?$shared_ptr@VRawImageData@@@std@@V?$basic_string@DU?$char_traits@D@std@@V?$allocator@D@2@@3@_N1@Z$9 00400010 f   ZoomingDemo.obj
 0002:fffbc010       __unwindtable$??$_Resize_reallocate@U_Value_init_tag@std@@@?$vector@PAVDisplayableObject@@V?$allocator@PAVDisplayableObject@@@std@@@std@@AAEXIABU_Value_init_tag@1@@Z 00400010     ZoomingDemo.obj
 0000:00000010       _volmd                     00400010     mainfunction.obj
 0001:fffff014       __ehhandler$?get@ImageManager@@SAPAV1@XZ 00400014 f   DraggingDemo.obj
 0001:fffff014       __ehhandler$?get@ImageManager@@SAPAV1@XZ 00400014 f   ImageMappingDemo.obj
 0001:fffff014       __ehhandler$?get@ImageManager@@SAPAV1@XZ 00400014 f   MyDemoA.obj
 0001:fffff014       __ehhandler$?get@ImageManager@@SAPAV1@XZ 00400014 f   Psyes9Engine.obj
 0001:fffff014       __ehhandler$?get@ImageManager@@SAPAV1@XZ 00400014 f   ZoomingDemo.obj
 0001:fffff015       __ehhandler$?loadImage@ImageManager@@SA?AVSimpleImage@@V?$basic_string@DU?$char_traits@D@std@@V?$allocator@D@2@@std@@_N@Z 00400015 f   MyDemoA.obj
 0001:fffff015       __ehhandler$?loadImage@ImageManager@@SA?AVSimpleImage@@V?$basic_string@DU?$char_traits@D@std@@V?$allocator@D@2@@std@@_N@Z 00400015 f   Psyes9Engine.obj
 0000:00000018       _volmd                     00400018     BaseEngine.obj
 0000:00000018       _volmd                     00400018     CrimsonWasteland2.obj
 0001:fffff018       __unwindfunclet$?getImagePtrbyURL@ImageManager@@QAE?AV?$shared_ptr@VRawImageData@@@std@@V?$basic_string@DU?$char_traits@D@std@@V?$allocator@D@2@@3@_N1@Z$10 00400018 f   DraggingDemo.obj
 0001:fffff018       __unwindfunclet$??0DragableImageObject@@QAE@HHPAVBaseEngine@@V?$basic_string@DU?$char_traits@D@std@@V?$allocator@D@2@@std@@_N2@Z$3 00400018 f   ImageMappingDemo.obj
 0001:fffff018       __unwindfunclet$?getImagePtrbyURL@ImageManager@@QAE?AV?$shared_ptr@VRawImageData@@@std@@V?$basic_string@DU?$char_traits@D@std@@V?$allocator@D@2@@3@_N1@Z$10 00400018 f   ImageMappingDemo.obj
 0000:00000018       _volmd                     00400018     MazeDemoMain.obj
 0001:fffff018       __unwindfunclet$?getImagePtrbyURL@ImageManager@@QAE?AV?$shared_ptr@VRawImageData@@@std@@V?$basic_string@DU?$char_traits@D@std@@V?$allocator@D@2@@3@_N1@Z$10 00400018 f   MyDemoA.obj
 0000:00000018       _volmd                     00400018     MyDemoA.obj
 0001:fffff018       __unwindfunclet$?getImagePtrbyURL@ImageManager@@QAE?AV?$shared_ptr@VRawImageData@@@std@@V?$basic_string@DU?$char_traits@D@std@@V?$allocator@D@2@@3@_N1@Z$10 00400018 f   Psyes9Engine.obj
 0001:fffff018       __unwindfunclet$??0DragableImageObject@@QAE@HHPAVBaseEngine@@V?$basic_string@DU?$char_traits@D@std@@V?$allocator@D@2@@std@@_N2@Z$3 00400018 f   ZoomingDemo.obj
 0001:fffff018       __unwindfunclet$?getImagePtrbyURL@ImageManager@@QAE?AV?$shared_ptr@VRawImageData@@@std@@V?$basic_string@DU?$char_traits@D@std@@V?$allocator@D@2@@3@_N1@Z$10 00400018 f   ZoomingDemo.obj
 0001:fffff01c       __ehhandler$??$?0VRawImageData@@$0A@@?$shared_ptr@VRawImageData@@@std@@QAE@PAVRawImageData@@@Z 0040001c f   DraggingDemo.obj
 0001:fffff01c       __ehhandler$?loadAsNew@ImageManager@@QAE?AV?$shared_ptr@VRawImageData@@@std@@V?$basic_string@DU?$char_traits@D@std@@V?$allocator@D@2@@3@@Z 0040001c f   DraggingDemo.obj
 0001:fffff01c       __ehhandler$??$?0VRawImageData@@$0A@@?$shared_ptr@VRawImageData@@@std@@QAE@PAVRawImageData@@@Z 0040001c f   ImageMappingDemo.obj
 0001:fffff01c       __ehhandler$?loadAsNew@ImageManager@@QAE?AV?$shared_ptr@VRawImageData@@@std@@V?$basic_string@DU?$char_traits@D@std@@V?$allocator@D@2@@3@@Z 0040001c f   ImageMappingDemo.obj
 0001:fffff01c       __ehhandler$??$?0VRawImageData@@$0A@@?$shared_ptr@VRawImageData@@@std@@QAE@PAVRawImageData@@@Z 0040001c f   MyDemoA.obj
 0001:fffff01c       __ehhandler$?loadAsNew@ImageManager@@QAE?AV?$shared_ptr@VRawImageData@@@std@@V?$basic_string@DU?$char_traits@D@std@@V?$allocator@D@2@@3@@Z 0040001c f   MyDemoA.obj
 0001:fffff01c       __ehhandler$??$?0VRawImageData@@$0A@@?$shared_ptr@VRawImageData@@@std@@QAE@PAVRawImageData@@@Z 0040001c f   Psyes9Engine.obj
 0001:fffff01c       __ehhandler$?loadAsNew@ImageManager@@QAE?AV?$shared_ptr@VRawImageData@@@std@@V?$basic_string@DU?$char_traits@D@std@@V?$allocator@D@2@@3@@Z 0040001c f   Psyes9Engine.obj
 0000:0000001c       _volmd                     0040001c     Psyes9Engine.obj
 0000:0000001c       _volmd                     0040001c     SimpleDemo.obj
 0001:fffff01c       __ehhandler$??$?0VRawImageData@@$0A@@?$shared_ptr@VRawImageData@@@std@@QAE@PAVRawImageData@@@Z 0040001c f   ZoomingDemo.obj
 0001:fffff01c       __ehhandler$?loadAsNew@ImageManager@@QAE?AV?$shared_ptr@VRawImageData@@@std@@V?$basic_string@DU?$char_traits@D@std@@V?$allocator@D@2@@3@@Z 0040001c f   ZoomingDemo.obj
 0000:0000001c       _volmd                     0040001c     ZoomingDemo.obj
 0002:fffbc020       __tryblocktable$??$_Resize_reallocate@U_Value_init_tag@std@@@?$vector@PAVDisplayableObject@@V?$allocator@PAVDisplayableObject@@@std@@@std@@AAEXIABU_Value_init_tag@1@@Z 00400020     BouncingBallMain.obj
 0002:fffbc020       __tryblocktable$??$_Resize_reallocate@U_Value_init_tag@std@@@?$vector@PAVDisplayableObject@@V?$allocator@PAVDisplayableObject@@@std@@@std@@AAEXIABU_Value_init_tag@1@@Z 00400020     DraggingDemo.obj
 0000:00000020       _volmd                     00400020     DrawingSurface.obj
 0002:fffbc020       __ehfuncinfo$??0DragableImageObject@@QAE@HHPAVBaseEngine@@V?$basic_string@DU?$char_traits@D@std@@V?$allocator@D@2@@std@@_N2@Z 00400020     ImageMappingDemo.obj
 0002:fffbc020       __tryblocktable$??$_Resize_reallocate@U_Value_init_tag@std@@@?$vector@PAVDisplayableObject@@V?$allocator@PAVDisplayableObject@@@std@@@std@@AAEXIABU_Value_init_tag@1@@Z 00400020     ImageMappingDemo.obj
 0002:fffbc020       __tryblocktable$??$_Resize_reallocate@U_Value_init_tag@std@@@?$vector@PAVDisplayableObject@@V?$allocator@PAVDisplayableObject@@@std@@@std@@AAEXIABU_Value_init_tag@1@@Z 00400020     MazeDemoMain.obj
 0002:fffbc020       __tryblocktable$??$_Resize_reallocate@U_Value_init_tag@std@@@?$vector@PAVDisplayableObject@@V?$allocator@PAVDisplayableObject@@@std@@@std@@AAEXIABU_Value_init_tag@1@@Z 00400020     MyDemoA.obj
 0002:fffbc020       __tryblocktable$??$_Resize_reallocate@U_Value_init_tag@std@@@?$vector@PAVDisplayableObject@@V?$allocator@PAVDisplayableObject@@@std@@@std@@AAEXIABU_Value_init_tag@1@@Z 00400020     Psyes9Engine.obj
 0002:fffbc020       __tryblocktable$??$_Resize_reallocate@U_Value_init_tag@std@@@?$vector@PAVDisplayableObject@@V?$allocator@PAVDisplayableObject@@@std@@@std@@AAEXIABU_Value_init_tag@1@@Z 00400020     SimpleDemo.obj
 0002:fffbc020       __ehfuncinfo$??0DragableImageObject@@QAE@HHPAVBaseEngine@@V?$basic_string@DU?$char_traits@D@std@@V?$allocator@D@2@@std@@_N2@Z 00400020     ZoomingDemo.obj
 0002:fffbc020       __tryblocktable$??$_Resize_reallocate@U_Value_init_tag@std@@@?$vector@PAVDisplayableObject@@V?$allocator@PAVDisplayableObject@@@std@@@std@@AAEXIABU_Value_init_tag@1@@Z 00400020     ZoomingDemo.obj
 0001:fffff023       __unwindfunclet$?getImagePtrbyURL@ImageManager@@QAE?AV?$shared_ptr@VRawImageData@@@std@@V?$basic_string@DU?$char_traits@D@std@@V?$allocator@D@2@@3@_N1@Z$11 00400023 f   DraggingDemo.obj
 0001:fffff023       __unwindfunclet$?getImagePtrbyURL@ImageManager@@QAE?AV?$shared_ptr@VRawImageData@@@std@@V?$basic_string@DU?$char_traits@D@std@@V?$allocator@D@2@@3@_N1@Z$11 00400023 f   ImageMappingDemo.obj
 0001:fffff023       __unwindfunclet$?getImagePtrbyURL@ImageManager@@QAE?AV?$shared_ptr@VRawImageData@@@std@@V?$basic_string@DU?$char_traits@D@std@@V?$allocator@D@2@@3@_N1@Z$11 00400023 f   MyDemoA.obj
 0001:fffff023       __unwindfunclet$?getImagePtrbyURL@ImageManager@@QAE?AV?$shared_ptr@VRawImageData@@@std@@V?$basic_string@DU?$char_traits@D@std@@V?$allocator@D@2@@3@_N1@Z$11 00400023 f   Psyes9Engine.obj
 0001:fffff023       __unwindfunclet$?getImagePtrbyURL@ImageManager@@QAE?AV?$shared_ptr@VRawImageData@@@std@@V?$basic_string@DU?$char_traits@D@std@@V?$allocator@D@2@@3@_N1@Z$11 00400023 f   ZoomingDemo.obj
 0000:00000024       _volmd                     00400024     BaseEngine.obj
 0002:fffbc024       __unwindtable$??$?6U?$char_traits@D@std@@@std@@YAAAV?$basic_ostream@DU?$char_traits@D@std@@@0@AAV10@PBD@Z 00400024     BouncingBall.obj
 0002:fffbc024       __unwindtable$??$?6U?$char_traits@D@std@@@std@@YAAAV?$basic_ostream@DU?$char_traits@D@std@@@0@AAV10@PBD@Z 00400024     BouncingBallMain.obj
 0002:fffbc024       __unwindtable$??$?6U?$char_traits@D@std@@@std@@YAAAV?$basic_ostream@DU?$char_traits@D@std@@@0@AAV10@PBD@Z 00400024     DisplayableObject.obj
 0002:fffbc024       __unwindtable$??$?6U?$char_traits@D@std@@@std@@YAAAV?$basic_ostream@DU?$char_traits@D@std@@@0@AAV10@PBD@Z 00400024     DraggingDemo.obj
 0002:fffbc024       __unwindtable$??$_Insert_string@DU?$char_traits@D@std@@I@std@@YAAAV?$basic_ostream@DU?$char_traits@D@std@@@0@AAV10@QBDI@Z 00400024     DraggingDemo.obj
 0002:fffbc024       __unwindtable$?getImagePtrbyURL@ImageManager@@QAE?AV?$shared_ptr@VRawImageData@@@std@@V?$basic_string@DU?$char_traits@D@std@@V?$allocator@D@2@@3@_N1@Z 00400024     DraggingDemo.obj
 0002:fffbc024       __unwindtable$??$?6U?$char_traits@D@std@@@std@@YAAAV?$basic_ostream@DU?$char_traits@D@std@@@0@AAV10@PBD@Z 00400024     DrawingSurface.obj
 0002:fffbc024       __unwindtable$??$?6U?$char_traits@D@std@@@std@@YAAAV?$basic_ostream@DU?$char_traits@D@std@@@0@AAV10@PBD@Z 00400024     FlashingDemo.obj
 0002:fffbc024       __unwindtable$??$?6U?$char_traits@D@std@@@std@@YAAAV?$basic_ostream@DU?$char_traits@D@std@@@0@AAV10@PBD@Z 00400024     ImageMappingDemo.obj
 0002:fffbc024       __unwindtable$??$_Insert_string@DU?$char_traits@D@std@@I@std@@YAAAV?$basic_ostream@DU?$char_traits@D@std@@@0@AAV10@QBDI@Z 00400024     ImageMappingDemo.obj
 0002:fffbc024       __unwindtable$?getImagePtrbyURL@ImageManager@@QAE?AV?$shared_ptr@VRawImageData@@@std@@V?$basic_string@DU?$char_traits@D@std@@V?$allocator@D@2@@3@_N1@Z 00400024     ImageMappingDemo.obj
 0002:fffbc024       __unwindtable$??$?6U?$char_traits@D@std@@@std@@YAAAV?$basic_ostream@DU?$char_traits@D@std@@@0@AAV10@PBD@Z 00400024     MyDemoA.obj
 0002:fffbc024       __unwindtable$??$_Insert_string@DU?$char_traits@D@std@@I@std@@YAAAV?$basic_ostream@DU?$char_traits@D@std@@@0@AAV10@QBDI@Z 00400024     MyDemoA.obj
 0002:fffbc024       __unwindtable$?getImagePtrbyURL@ImageManager@@QAE?AV?$shared_ptr@VRawImageData@@@std@@V?$basic_string@DU?$char_traits@D@std@@V?$allocator@D@2@@3@_N1@Z 00400024     MyDemoA.obj
 0002:fffbc024       __unwindtable$??$?6U?$char_traits@D@std@@@std@@YAAAV?$basic_ostream@DU?$char_traits@D@std@@@0@AAV10@PBD@Z 00400024     Psyes9Engine.obj
 0002:fffbc024       __unwindtable$??$_Insert_string@DU?$char_traits@D@std@@I@std@@YAAAV?$basic_ostream@DU?$char_traits@D@std@@@0@AAV10@QBDI@Z 00400024     Psyes9Engine.obj
 0002:fffbc024       __unwindtable$?getImagePtrbyURL@ImageManager@@QAE?AV?$shared_ptr@VRawImageData@@@std@@V?$basic_string@DU?$char_traits@D@std@@V?$allocator@D@2@@3@_N1@Z 00400024     Psyes9Engine.obj
 0002:fffbc024       __unwindtable$??$?6U?$char_traits@D@std@@@std@@YAAAV?$basic_ostream@DU?$char_traits@D@std@@@0@AAV10@PBD@Z 00400024     SimpleDemo.obj
 0002:fffbc024       __unwindtable$??$?6U?$char_traits@D@std@@@std@@YAAAV?$basic_ostream@DU?$char_traits@D@std@@@0@AAV10@PBD@Z 00400024     SimpleImage.obj
 0002:fffbc024       __unwindtable$??$?6U?$char_traits@D@std@@@std@@YAAAV?$basic_ostream@DU?$char_traits@D@std@@@0@AAV10@PBD@Z 00400024     StarfieldDemo.obj
 0002:fffbc024       __unwindtable$??$?6U?$char_traits@D@std@@@std@@YAAAV?$basic_ostream@DU?$char_traits@D@std@@@0@AAV10@PBD@Z 00400024     ZoomingDemo.obj
 0002:fffbc024       __unwindtable$??$_Insert_string@DU?$char_traits@D@std@@I@std@@YAAAV?$basic_ostream@DU?$char_traits@D@std@@@0@AAV10@QBDI@Z 00400024     ZoomingDemo.obj
 0002:fffbc024       __unwindtable$?getImagePtrbyURL@ImageManager@@QAE?AV?$shared_ptr@VRawImageData@@@std@@V?$basic_string@DU?$char_traits@D@std@@V?$allocator@D@2@@3@_N1@Z 00400024     ZoomingDemo.obj
 0000:00000028       _volmd                     00400028     CrimsonWasteland2.obj
 0001:fffff028       __ehhandler$??0DragableImageObject@@QAE@HHPAVBaseEngine@@V?$basic_string@DU?$char_traits@D@std@@V?$allocator@D@2@@std@@_N2@Z 00400028 f   ImageMappingDemo.obj
 0001:fffff028       __ehhandler$??0DragableImageObject@@QAE@HHPAVBaseEngine@@V?$basic_string@DU?$char_traits@D@std@@V?$allocator@D@2@@std@@_N2@Z 00400028 f   ZoomingDemo.obj
 0001:fffff02b       __unwindfunclet$?getImagePtrbyURL@ImageManager@@QAE?AV?$shared_ptr@VRawImageData@@@std@@V?$basic_string@DU?$char_traits@D@std@@V?$allocator@D@2@@3@_N1@Z$13 0040002b f   DraggingDemo.obj
 0001:fffff02b       __unwindfunclet$?getImagePtrbyURL@ImageManager@@QAE?AV?$shared_ptr@VRawImageData@@@std@@V?$basic_string@DU?$char_traits@D@std@@V?$allocator@D@2@@3@_N1@Z$13 0040002b f   ImageMappingDemo.obj
 0001:fffff02b       __unwindfunclet$?getImagePtrbyURL@ImageManager@@QAE?AV?$shared_ptr@VRawImageData@@@std@@V?$basic_string@DU?$char_traits@D@std@@V?$allocator@D@2@@3@_N1@Z$13 0040002b f   MyDemoA.obj
 0001:fffff02b       __unwindfunclet$?getImagePtrbyURL@ImageManager@@QAE?AV?$shared_ptr@VRawImageData@@@std@@V?$basic_string@DU?$char_traits@D@std@@V?$allocator@D@2@@3@_N1@Z$13 0040002b f   Psyes9Engine.obj
 0001:fffff02b       __unwindfunclet$?getImagePtrbyURL@ImageManager@@QAE?AV?$shared_ptr@VRawImageData@@@std@@V?$basic_string@DU?$char_traits@D@std@@V?$allocator@D@2@@3@_N1@Z$13 0040002b f   ZoomingDemo.obj
 0000:0000002c       _volmd                     0040002c     Psyes9Engine.obj
 0002:fffbc034       __ehfuncinfo$??$_Resize_reallocate@U_Value_init_tag@std@@@?$vector@PAVDisplayableObject@@V?$allocator@PAVDisplayableObject@@@std@@@std@@AAEXIABU_Value_init_tag@1@@Z 00400034     BouncingBallMain.obj
 0002:fffbc034       __ehfuncinfo$??$_Resize_reallocate@U_Value_init_tag@std@@@?$vector@PAVDisplayableObject@@V?$allocator@PAVDisplayableObject@@@std@@@std@@AAEXIABU_Value_init_tag@1@@Z 00400034     DraggingDemo.obj
 0002:fffbc034       __ehfuncinfo$??$_Resize_reallocate@U_Value_init_tag@std@@@?$vector@PAVDisplayableObject@@V?$allocator@PAVDisplayableObject@@@std@@@std@@AAEXIABU_Value_init_tag@1@@Z 00400034     ImageMappingDemo.obj
 0002:fffbc034       __ehfuncinfo$??$_Resize_reallocate@U_Value_init_tag@std@@@?$vector@PAVDisplayableObject@@V?$allocator@PAVDisplayableObject@@@std@@@std@@AAEXIABU_Value_init_tag@1@@Z 00400034     MazeDemoMain.obj
 0002:fffbc034       __ehfuncinfo$??$_Resize_reallocate@U_Value_init_tag@std@@@?$vector@PAVDisplayableObject@@V?$allocator@PAVDisplayableObject@@@std@@@std@@AAEXIABU_Value_init_tag@1@@Z 00400034     MyDemoA.obj
 0002:fffbc034       __ehfuncinfo$??$_Resize_reallocate@U_Value_init_tag@std@@@?$vector@PAVDisplayableObject@@V?$allocator@PAVDisplayableObject@@@std@@@std@@AAEXIABU_Value_init_tag@1@@Z 00400034     Psyes9Engine.obj
 0002:fffbc034       __ehfuncinfo$??$_Resize_reallocate@U_Value_init_tag@std@@@?$vector@PAVDisplayableObject@@V?$allocator@PAVDisplayableObject@@@std@@@std@@AAEXIABU_Value_init_tag@1@@Z 00400034     SimpleDemo.obj
 0002:fffbc034       __ehfuncinfo$??$_Resize_reallocate@U_Value_init_tag@std@@@?$vector@PAVDisplayableObject@@V?$allocator@PAVDisplayableObject@@@std@@@std@@AAEXIABU_Value_init_tag@1@@Z 00400034     ZoomingDemo.obj
 0000:00000038       _volmd                     00400038     CrimsonWasteland2.obj
 0001:fffff038       __ehhandler$?getImagePtrbyURL@ImageManager@@QAE?AV?$shared_ptr@VRawImageData@@@std@@V?$basic_string@DU?$char_traits@D@std@@V?$allocator@D@2@@3@_N1@Z 00400038 f   DraggingDemo.obj
 0001:fffff038       __ehhandler$?getImagePtrbyURL@ImageManager@@QAE?AV?$shared_ptr@VRawImageData@@@std@@V?$basic_string@DU?$char_traits@D@std@@V?$allocator@D@2@@3@_N1@Z 00400038 f   ImageMappingDemo.obj
 0001:fffff038       __ehhandler$?getImagePtrbyURL@ImageManager@@QAE?AV?$shared_ptr@VRawImageData@@@std@@V?$basic_string@DU?$char_traits@D@std@@V?$allocator@D@2@@3@_N1@Z 00400038 f   MyDemoA.obj
 0001:fffff038       __ehhandler$?getImagePtrbyURL@ImageManager@@QAE?AV?$shared_ptr@VRawImageData@@@std@@V?$basic_string@DU?$char_traits@D@std@@V?$allocator@D@2@@3@_N1@Z 00400038 f   Psyes9Engine.obj
 0001:fffff038       __ehhandler$?getImagePtrbyURL@ImageManager@@QAE?AV?$shared_ptr@VRawImageData@@@std@@V?$basic_string@DU?$char_traits@D@std@@V?$allocator@D@2@@3@_N1@Z 00400038 f   ZoomingDemo.obj
 0002:fffbc03c       __ehfuncinfo$??$?6U?$char_traits@D@std@@@std@@YAAAV?$basic_ostream@DU?$char_traits@D@std@@@0@AAV10@PBD@Z 0040003c     BouncingBall.obj
 0002:fffbc03c       __ehfuncinfo$??$?6U?$char_traits@D@std@@@std@@YAAAV?$basic_ostream@DU?$char_traits@D@std@@@0@AAV10@PBD@Z 0040003c     BouncingBallMain.obj
 0002:fffbc03c       __ehfuncinfo$??$?6U?$char_traits@D@std@@@std@@YAAAV?$basic_ostream@DU?$char_traits@D@std@@@0@AAV10@PBD@Z 0040003c     DisplayableObject.obj
 0002:fffbc03c       __ehfuncinfo$??$?6U?$char_traits@D@std@@@std@@YAAAV?$basic_ostream@DU?$char_traits@D@std@@@0@AAV10@PBD@Z 0040003c     DraggingDemo.obj
 0002:fffbc03c       __ehfuncinfo$??$_Insert_string@DU?$char_traits@D@std@@I@std@@YAAAV?$basic_ostream@DU?$char_traits@D@std@@@0@AAV10@QBDI@Z 0040003c     DraggingDemo.obj
 0002:fffbc03c       __ehfuncinfo$??$?6U?$char_traits@D@std@@@std@@YAAAV?$basic_ostream@DU?$char_traits@D@std@@@0@AAV10@PBD@Z 0040003c     DrawingSurface.obj
 0002:fffbc03c       __ehfuncinfo$??$?6U?$char_traits@D@std@@@std@@YAAAV?$basic_ostream@DU?$char_traits@D@std@@@0@AAV10@PBD@Z 0040003c     FlashingDemo.obj
 0002:fffbc03c       __ehfuncinfo$??$?6U?$char_traits@D@std@@@std@@YAAAV?$basic_ostream@DU?$char_traits@D@std@@@0@AAV10@PBD@Z 0040003c     ImageMappingDemo.obj
 0002:fffbc03c       __ehfuncinfo$??$_Insert_string@DU?$char_traits@D@std@@I@std@@YAAAV?$basic_ostream@DU?$char_traits@D@std@@@0@AAV10@QBDI@Z 0040003c     ImageMappingDemo.obj
 0002:fffbc03c       __ehfuncinfo$??$?6U?$char_traits@D@std@@@std@@YAAAV?$basic_ostream@DU?$char_traits@D@std@@@0@AAV10@PBD@Z 0040003c     MyDemoA.obj
 0002:fffbc03c       __ehfuncinfo$??$_Insert_string@DU?$char_traits@D@std@@I@std@@YAAAV?$basic_ostream@DU?$char_traits@D@std@@@0@AAV10@QBDI@Z 0040003c     MyDemoA.obj
 0002:fffbc03c       __ehfuncinfo$??$?6U?$char_traits@D@std@@@std@@YAAAV?$basic_ostream@DU?$char_traits@D@std@@@0@AAV10@PBD@Z 0040003c     Psyes9Engine.obj
 0002:fffbc03c       __ehfuncinfo$??$_Insert_string@DU?$char_traits@D@std@@I@std@@YAAAV?$basic_ostream@DU?$char_traits@D@std@@@0@AAV10@QBDI@Z 0040003c     Psyes9Engine.obj
 0002:fffbc03c       __ehfuncinfo$??$?6U?$char_traits@D@std@@@std@@YAAAV?$basic_ostream@DU?$char_traits@D@std@@@0@AAV10@PBD@Z 0040003c     SimpleDemo.obj
 0002:fffbc03c       __ehfuncinfo$??$?6U?$char_traits@D@std@@@std@@YAAAV?$basic_ostream@DU?$char_traits@D@std@@@0@AAV10@PBD@Z 0040003c     SimpleImage.obj
 0002:fffbc03c       __ehfuncinfo$??$?6U?$char_traits@D@std@@@std@@YAAAV?$basic_ostream@DU?$char_traits@D@std@@@0@AAV10@PBD@Z 0040003c     StarfieldDemo.obj
 0002:fffbc03c       __ehfuncinfo$??$?6U?$char_traits@D@std@@@std@@YAAAV?$basic_ostream@DU?$char_traits@D@std@@@0@AAV10@PBD@Z 0040003c     ZoomingDemo.obj
 0002:fffbc03c       __ehfuncinfo$??$_Insert_string@DU?$char_traits@D@std@@I@std@@YAAAV?$basic_ostream@DU?$char_traits@D@std@@@0@AAV10@QBDI@Z 0040003c     ZoomingDemo.obj
 0000:00000048       _volmd                     00400048     CrimsonWasteland2.obj
 0000:00000058       _volmd                     00400058     CrimsonWasteland2.obj
 0000:00000068       _volmd                     00400068     CrimsonWasteland2.obj
 0000:00000078       _volmd                     00400078     CrimsonWasteland2.obj
 0000:00000088       _volmd                     00400088     CrimsonWasteland2.obj
 0001:fffff0ed       __catch$??$_Resize_reallocate@U_Value_init_tag@std@@@?$vector@PAVDisplayableObject@@V?$allocator@PAVDisplayableObject@@@std@@@std@@AAEXIABU_Value_init_tag@1@@Z$0 004000ed f   BouncingBallMain.obj
 0001:fffff0ed       __catch$??$_Resize_reallocate@U_Value_init_tag@std@@@?$vector@PAVDisplayableObject@@V?$allocator@PAVDisplayableObject@@@std@@@std@@AAEXIABU_Value_init_tag@1@@Z$0 004000ed f   DraggingDemo.obj
 0001:fffff0ed       __catch$??$_Resize_reallocate@U_Value_init_tag@std@@@?$vector@PAVDisplayableObject@@V?$allocator@PAVDisplayableObject@@@std@@@std@@AAEXIABU_Value_init_tag@1@@Z$0 004000ed f   ImageMappingDemo.obj
 0001:fffff0ed       __catch$??$_Resize_reallocate@U_Value_init_tag@std@@@?$vector@PAVDisplayableObject@@V?$allocator@PAVDisplayableObject@@@std@@@std@@AAEXIABU_Value_init_tag@1@@Z$0 004000ed f   MazeDemoMain.obj
 0001:fffff0ed       __catch$??$_Resize_reallocate@U_Value_init_tag@std@@@?$vector@PAVDisplayableObject@@V?$allocator@PAVDisplayableObject@@@std@@@std@@AAEXIABU_Value_init_tag@1@@Z$0 004000ed f   MyDemoA.obj
 0001:fffff0ed       __catch$??$_Resize_reallocate@U_Value_init_tag@std@@@?$vector@PAVDisplayableObject@@V?$allocator@PAVDisplayableObject@@@std@@@std@@AAEXIABU_Value_init_tag@1@@Z$0 004000ed f   Psyes9Engine.obj
 0001:fffff0ed       __catch$??$_Resize_reallocate@U_Value_init_tag@std@@@?$vector@PAVDisplayableObject@@V?$allocator@PAVDisplayableObject@@@std@@@std@@AAEXIABU_Value_init_tag@1@@Z$0 004000ed f   SimpleDemo.obj
 0001:fffff0ed       __catch$??$_Resize_reallocate@U_Value_init_tag@std@@@?$vector@PAVDisplayableObject@@V?$allocator@PAVDisplayableObject@@@std@@@std@@AAEXIABU_Value_init_tag@1@@Z$0 004000ed f   ZoomingDemo.obj
 0001:fffff228       __catch$??$_Insert_string@DU?$char_traits@D@std@@I@std@@YAAAV?$basic_ostream@DU?$char_traits@D@std@@@0@AAV10@QBDI@Z$0 00400228 f   DraggingDemo.obj
 0001:fffff228       __catch$??$_Insert_string@DU?$char_traits@D@std@@I@std@@YAAAV?$basic_ostream@DU?$char_traits@D@std@@@0@AAV10@QBDI@Z$0 00400228 f   ImageMappingDemo.obj
 0001:fffff228       __catch$??$_Insert_string@DU?$char_traits@D@std@@I@std@@YAAAV?$basic_ostream@DU?$char_traits@D@std@@@0@AAV10@QBDI@Z$0 00400228 f   MyDemoA.obj
 0001:fffff228       __catch$??$_Insert_string@DU?$char_traits@D@std@@I@std@@YAAAV?$basic_ostream@DU?$char_traits@D@std@@@0@AAV10@QBDI@Z$0 00400228 f   Psyes9Engine.obj
 0001:fffff228       __catch$??$_Insert_string@DU?$char_traits@D@std@@I@std@@YAAAV?$basic_ostream@DU?$char_traits@D@std@@@0@AAV10@QBDI@Z$0 00400228 f   ZoomingDemo.obj
 0001:fffff272       __catch$??$?6U?$char_traits@D@std@@@std@@YAAAV?$basic_ostream@DU?$char_traits@D@std@@@0@AAV10@PBD@Z$0 00400272 f   BouncingBall.obj
 0001:fffff272       __catch$??$?6U?$char_traits@D@std@@@std@@YAAAV?$basic_ostream@DU?$char_traits@D@std@@@0@AAV10@PBD@Z$0 00400272 f   BouncingBallMain.obj
 0001:fffff272       __catch$??$?6U?$char_traits@D@std@@@std@@YAAAV?$basic_ostream@DU?$char_traits@D@std@@@0@AAV10@PBD@Z$0 00400272 f   DisplayableObject.obj
 0001:fffff272       __catch$??$?6U?$char_traits@D@std@@@std@@YAAAV?$basic_ostream@DU?$char_traits@D@std@@@0@AAV10@PBD@Z$0 00400272 f   DraggingDemo.obj
 0001:fffff272       __catch$??$?6U?$char_traits@D@std@@@std@@YAAAV?$basic_ostream@DU?$char_traits@D@std@@@0@AAV10@PBD@Z$0 00400272 f   DrawingSurface.obj
 0001:fffff272       __catch$??$?6U?$char_traits@D@std@@@std@@YAAAV?$basic_ostream@DU?$char_traits@D@std@@@0@AAV10@PBD@Z$0 00400272 f   FlashingDemo.obj
 0001:fffff272       __catch$??$?6U?$char_traits@D@std@@@std@@YAAAV?$basic_ostream@DU?$char_traits@D@std@@@0@AAV10@PBD@Z$0 00400272 f   ImageMappingDemo.obj
 0001:fffff272       __catch$??$?6U?$char_traits@D@std@@@std@@YAAAV?$basic_ostream@DU?$char_traits@D@std@@@0@AAV10@PBD@Z$0 00400272 f   MyDemoA.obj
 0001:fffff272       __catch$??$?6U?$char_traits@D@std@@@std@@YAAAV?$basic_ostream@DU?$char_traits@D@std@@@0@AAV10@PBD@Z$0 00400272 f   Psyes9Engine.obj
 0001:fffff272       __catch$??$?6U?$char_traits@D@std@@@std@@YAAAV?$basic_ostream@DU?$char_traits@D@std@@@0@AAV10@PBD@Z$0 00400272 f   SimpleDemo.obj
 0001:fffff272       __catch$??$?6U?$char_traits@D@std@@@std@@YAAAV?$basic_ostream@DU?$char_traits@D@std@@@0@AAV10@PBD@Z$0 00400272 f   SimpleImage.obj
 0001:fffff272       __catch$??$?6U?$char_traits@D@std@@@std@@YAAAV?$basic_ostream@DU?$char_traits@D@std@@@0@AAV10@PBD@Z$0 00400272 f   StarfieldDemo.obj
 0001:fffff272       __catch$??$?6U?$char_traits@D@std@@@std@@YAAAV?$basic_ostream@DU?$char_traits@D@std@@@0@AAV10@PBD@Z$0 00400272 f   ZoomingDemo.obj
 0001:000032e0       ??__Em_oTiles@@YAXXZ       004042e0 f   CrimsonWasteland2.obj
 0001:000064fc       $LN115                     004074fc     CrimsonWasteland2.obj
 0001:00006528       $LN116                     00407528     CrimsonWasteland2.obj
 0001:0000711c       $LN63                      0040811c     CrimsonWasteland2.obj
 0001:00007514       $LN17                      00408514     CrimsonWasteland2.obj
 0001:00007f1c       $LN43                      00408f1c     CrimsonWasteland2.obj
 0001:00009662       __catch$??$?6U?$char_traits@D@std@@@std@@YAAAV?$basic_ostream@DU?$char_traits@D@std@@@0@AAV10@PBD@Z$0 0040a662 f i CrimsonWasteland2.obj
 0001:0000b3b8       __catch$??$_Insert_string@DU?$char_traits@D@std@@I@std@@YAAAV?$basic_ostream@DU?$char_traits@D@std@@@0@AAV10@QBDI@Z$0 0040c3b8 f i CrimsonWasteland2.obj
 0001:0000bb4d       __catch$??$_Resize_reallocate@U_Value_init_tag@std@@@?$vector@PAVDisplayableObject@@V?$allocator@PAVDisplayableObject@@@std@@@std@@AAEXIABU_Value_init_tag@1@@Z$0 0040cb4d f i CrimsonWasteland2.obj
 0001:00016cd0       $LN10                      00417cd0     CrimsonWasteland2.obj
 0001:00018a6c       $LN21                      00419a6c     CrimsonWasteland2.obj
 0001:00018e9c       $LN32                      00419e9c     CrimsonWasteland2.obj
 0001:000196c8       $LN33                      0041a6c8     CrimsonWasteland2.obj
 0001:00019aa4       $LN13                      0041aaa4     CrimsonWasteland2.obj
 0001:0001a168       $LN14                      0041b168     CrimsonWasteland2TileManager.obj
 0001:0001a35c       $LN17                      0041b35c     DraggingDemo.obj
 0001:0001f3b0       $LN41                      004203b0     FlashingDemo.obj
 0001:0001f3c8       $LN42                      004203c8     FlashingDemo.obj
 0001:0001f3e0       $LN43                      004203e0     FlashingDemo.obj
 0001:0001f3f8       $LN44                      004203f8     FlashingDemo.obj
 0001:0001f4bc       $LN9                       004204bc     FlashingDemo.obj
 0001:0001f8bc       $LN15                      004208bc     ImageMappingDemo.obj
 0001:000206a0       _time                      004216a0 f   mainfunction.obj
 0001:00021c40       $LN46                      00422c40     BaseEngine.obj
 0001:000220c0       ??R<lambda_a53746b1d833b957fc16129550c0b672>@@QBE@PAVDisplayableObject@@@Z 004230c0 f   BaseEngine.obj
 0001:000220f0       ??0<lambda_a53746b1d833b957fc16129550c0b672>@@QAE@ABQATSDL_Event@@@Z 004230f0 f   BaseEngine.obj
 0001:00022110       ??R<lambda_578ee31f284bb656f12d1449e2187e67>@@QBE@PAVDisplayableObject@@@Z 00423110 f   BaseEngine.obj
 0001:00022140       ??0<lambda_578ee31f284bb656f12d1449e2187e67>@@QAE@ABQATSDL_Event@@@Z 00423140 f   BaseEngine.obj
 0001:00022160       ??R<lambda_2df3d392f0e61298437032b81859b414>@@QBE@PAVDisplayableObject@@@Z 00423160 f   BaseEngine.obj
 0001:000221a0       ??0<lambda_2df3d392f0e61298437032b81859b414>@@QAE@QAVBaseEngine@@@Z 004231a0 f   BaseEngine.obj
 0001:000221c0       ??R<lambda_6f91fb9d23638d33f7849f0c1f143eee>@@QBE@PAVDisplayableObject@@@Z 004231c0 f   BaseEngine.obj
 0001:00022200       ??0<lambda_6f91fb9d23638d33f7849f0c1f143eee>@@QAE@ABQATSDL_Event@@QAVBaseEngine@@@Z 00423200 f   BaseEngine.obj
 0001:00022230       ??R<lambda_6f21682acb52fd7b677e7e31753b438b>@@QBE@PAVDisplayableObject@@@Z 00423230 f   BaseEngine.obj
 0001:00022270       ??0<lambda_6f21682acb52fd7b677e7e31753b438b>@@QAE@ABQATSDL_Event@@QAVBaseEngine@@@Z 00423270 f   BaseEngine.obj
 0001:000229c0       ??$for_each@V?$_Vector_iterator@V?$_Vector_val@U?$_Simple_types@PAVDisplayableObject@@@std@@@std@@@std@@V<lambda_2df3d392f0e61298437032b81859b414>@@@std@@YA?AV<lambda_2df3d392f0e61298437032b81859b414>@@V?$_Vector_iterator@V?$_Vector_val@U?$_Simple_types@PAVDisplayableObject@@@std@@@std@@@0@0V1@@Z 004239c0 f   BaseEngine.obj
 0001:00022aa0       ??$for_each@V?$_Vector_iterator@V?$_Vector_val@U?$_Simple_types@PAVDisplayableObject@@@std@@@std@@@std@@V<lambda_578ee31f284bb656f12d1449e2187e67>@@@std@@YA?AV<lambda_578ee31f284bb656f12d1449e2187e67>@@V?$_Vector_iterator@V?$_Vector_val@U?$_Simple_types@PAVDisplayableObject@@@std@@@std@@@0@0V1@@Z 00423aa0 f   BaseEngine.obj
 0001:00022b80       ??$for_each@V?$_Vector_iterator@V?$_Vector_val@U?$_Simple_types@PAVDisplayableObject@@@std@@@std@@@std@@V<lambda_6f21682acb52fd7b677e7e31753b438b>@@@std@@YA?AV<lambda_6f21682acb52fd7b677e7e31753b438b>@@V?$_Vector_iterator@V?$_Vector_val@U?$_Simple_types@PAVDisplayableObject@@@std@@@std@@@0@0V1@@Z 00423b80 f   BaseEngine.obj
 0001:00022c70       ??$for_each@V?$_Vector_iterator@V?$_Vector_val@U?$_Simple_types@PAVDisplayableObject@@@std@@@std@@@std@@V<lambda_6f91fb9d23638d33f7849f0c1f143eee>@@@std@@YA?AV<lambda_6f91fb9d23638d33f7849f0c1f143eee>@@V?$_Vector_iterator@V?$_Vector_val@U?$_Simple_types@PAVDisplayableObject@@@std@@@std@@@0@0V1@@Z 00423c70 f   BaseEngine.obj
 0001:00022d60       ??$for_each@V?$_Vector_iterator@V?$_Vector_val@U?$_Simple_types@PAVDisplayableObject@@@std@@@std@@@std@@V<lambda_a53746b1d833b957fc16129550c0b672>@@@std@@YA?AV<lambda_a53746b1d833b957fc16129550c0b672>@@V?$_Vector_iterator@V?$_Vector_val@U?$_Simple_types@PAVDisplayableObject@@@std@@@std@@@0@0V1@@Z 00423d60 f   BaseEngine.obj
 0001:00023650       $LN53                      00424650     BaseEngine.obj
 0001:0002366c       $LN52                      0042466c     BaseEngine.obj
 0001:000236e4       $LN55                      004246e4     BaseEngine.obj
 0001:00023780       $LN54                      00424780     BaseEngine.obj
 0001:000249f0       $LN25                      004259f0     MyDemoA.obj
 0001:00027cec       $LN17                      00428cec     SimpleDemo.obj
 0001:0002841a       __catch$??$_Emplace_reallocate@ABQAVDisplayableObject@@@?$vector@PAVDisplayableObject@@V?$allocator@PAVDisplayableObject@@@std@@@std@@AAEPAPAVDisplayableObject@@QAPAV2@ABQAV2@@Z$0 0042941a f i SimpleDemo.obj
 0001:00028d2c       $LN17                      00429d2c     StarfieldDemo.obj
 0001:00029990       $LN23                      0042a990     BouncingBall.obj
 0001:0002ae2c       $LN17                      0042be2c     BouncingBallMain.obj
 0001:0002d504       $LN42                      0042e504     MazeDemoObject.obj
 0001:0002d520       $LN43                      0042e520     MazeDemoObject.obj
 0001:0002d828       $LN10                      0042e828     MazeDemoObject.obj
 0001:0002d8c8       $LN10                      0042e8c8     MazeDemoObject.obj
 0001:0002da50       $LN14                      0042ea50     MazeDemoTileManager.obj
 0001:0002db80       ??$_Advance_bytes@H@?A0x8417fefe@@YAXAAPAXH@Z 0042eb80 f   msvcprtd:vector_algorithms.obj
 0001:0002dba0       ??$_Advance_bytes@H@?A0x8417fefe@@YAXAAPBXH@Z 0042eba0 f   msvcprtd:vector_algorithms.obj
 0001:0002dbc0       ??$_Advance_bytes@I@?A0x8417fefe@@YAXAAPBXI@Z 0042ebc0 f   msvcprtd:vector_algorithms.obj
 0001:0002dbe0       ??$_Advance_bytes@K@?A0x8417fefe@@YAXAAPBXK@Z 0042ebe0 f   msvcprtd:vector_algorithms.obj
 0001:0002dc00       ??$_Both_tail@C@?A0x8417fefe@@YA?AU_Min_max_element_t@@QBX0AAU1@CC@Z 0042ec00 f   msvcprtd:vector_algorithms.obj
 0001:0002dc90       ??$_Both_tail@E@?A0x8417fefe@@YA?AU_Min_max_element_t@@QBX0AAU1@EE@Z 0042ec90 f   msvcprtd:vector_algorithms.obj
 0001:0002dd20       ??$_Both_tail@F@?A0x8417fefe@@YA?AU_Min_max_element_t@@QBX0AAU1@FF@Z 0042ed20 f   msvcprtd:vector_algorithms.obj
 0001:0002ddb0       ??$_Both_tail@G@?A0x8417fefe@@YA?AU_Min_max_element_t@@QBX0AAU1@GG@Z 0042edb0 f   msvcprtd:vector_algorithms.obj
 0001:0002de40       ??$_Both_tail@H@?A0x8417fefe@@YA?AU_Min_max_element_t@@QBX0AAU1@HH@Z 0042ee40 f   msvcprtd:vector_algorithms.obj
 0001:0002dec0       ??$_Both_tail@I@?A0x8417fefe@@YA?AU_Min_max_element_t@@QBX0AAU1@II@Z 0042eec0 f   msvcprtd:vector_algorithms.obj
 0001:0002df40       ??$_Both_tail@_J@?A0x8417fefe@@YA?AU_Min_max_element_t@@QBX0AAU1@_J2@Z 0042ef40 f   msvcprtd:vector_algorithms.obj
 0001:0002e000       ??$_Both_tail@_K@?A0x8417fefe@@YA?AU_Min_max_element_t@@QBX0AAU1@_K2@Z 0042f000 f   msvcprtd:vector_algorithms.obj
 0001:0002e0c0       ??$_H_func@V<lambda_1>@?1??_H_max@_Minmax_traits_1@?A0x8417fefe@@SA?AT__m128i@@T5@@Z@@_Minmax_traits_1@?A0x8417fefe@@SA?AT__m128i@@T2@V<lambda_1>@?1??_H_max@01@SA?AT2@0@Z@@Z 0042f0c0 f   msvcprtd:vector_algorithms.obj
 0001:0002e260       ??$_H_func@V<lambda_1>@?1??_H_max@_Minmax_traits_2@?A0x8417fefe@@SA?AT__m128i@@T5@@Z@@_Minmax_traits_2@?A0x8417fefe@@SA?AT__m128i@@T2@V<lambda_1>@?1??_H_max@01@SA?AT2@0@Z@@Z 0042f260 f   msvcprtd:vector_algorithms.obj
 0001:0002e390       ??$_H_func@V<lambda_1>@?1??_H_max@_Minmax_traits_4@?A0x8417fefe@@SA?AT__m128i@@T5@@Z@@_Minmax_traits_4@?A0x8417fefe@@SA?AT__m128i@@T2@V<lambda_1>@?1??_H_max@01@SA?AT2@0@Z@@Z 0042f390 f   msvcprtd:vector_algorithms.obj
 0001:0002e470       ??$_H_func@V<lambda_1>@?1??_H_max@_Minmax_traits_8@?A0x8417fefe@@SA?AT__m128i@@T5@@Z@@_Minmax_traits_8@?A0x8417fefe@@SA?AT__m128i@@T2@V<lambda_1>@?1??_H_max@01@SA?AT2@0@Z@@Z 0042f470 f   msvcprtd:vector_algorithms.obj
 0001:0002e570       ??$_H_func@V<lambda_1>@?1??_H_max_u@_Minmax_traits_1@?A0x8417fefe@@SA?AT__m128i@@T5@@Z@@_Minmax_traits_1@?A0x8417fefe@@SA?AT__m128i@@T2@V<lambda_1>@?1??_H_max_u@01@SA?AT2@0@Z@@Z 0042f570 f   msvcprtd:vector_algorithms.obj
 0001:0002e710       ??$_H_func@V<lambda_1>@?1??_H_max_u@_Minmax_traits_2@?A0x8417fefe@@SA?AT__m128i@@T5@@Z@@_Minmax_traits_2@?A0x8417fefe@@SA?AT__m128i@@T2@V<lambda_1>@?1??_H_max_u@01@SA?AT2@0@Z@@Z 0042f710 f   msvcprtd:vector_algorithms.obj
 0001:0002e840       ??$_H_func@V<lambda_1>@?1??_H_max_u@_Minmax_traits_4@?A0x8417fefe@@SA?AT__m128i@@T5@@Z@@_Minmax_traits_4@?A0x8417fefe@@SA?AT__m128i@@T2@V<lambda_1>@?1??_H_max_u@01@SA?AT2@0@Z@@Z 0042f840 f   msvcprtd:vector_algorithms.obj
 0001:0002e920       ??$_H_func@V<lambda_1>@?1??_H_max_u@_Minmax_traits_8@?A0x8417fefe@@SA?AT__m128i@@T5@@Z@@_Minmax_traits_8@?A0x8417fefe@@SA?AT__m128i@@T2@V<lambda_1>@?1??_H_max_u@01@SA?AT2@0@Z@@Z 0042f920 f   msvcprtd:vector_algorithms.obj
 0001:0002ea20       ??$_H_func@V<lambda_1>@?1??_H_min@_Minmax_traits_1@?A0x8417fefe@@SA?AT__m128i@@T5@@Z@@_Minmax_traits_1@?A0x8417fefe@@SA?AT__m128i@@T2@V<lambda_1>@?1??_H_min@01@SA?AT2@0@Z@@Z 0042fa20 f   msvcprtd:vector_algorithms.obj
 0001:0002ebc0       ??$_H_func@V<lambda_1>@?1??_H_min@_Minmax_traits_2@?A0x8417fefe@@SA?AT__m128i@@T5@@Z@@_Minmax_traits_2@?A0x8417fefe@@SA?AT__m128i@@T2@V<lambda_1>@?1??_H_min@01@SA?AT2@0@Z@@Z 0042fbc0 f   msvcprtd:vector_algorithms.obj
 0001:0002ecf0       ??$_H_func@V<lambda_1>@?1??_H_min@_Minmax_traits_4@?A0x8417fefe@@SA?AT__m128i@@T5@@Z@@_Minmax_traits_4@?A0x8417fefe@@SA?AT__m128i@@T2@V<lambda_1>@?1??_H_min@01@SA?AT2@0@Z@@Z 0042fcf0 f   msvcprtd:vector_algorithms.obj
 0001:0002edd0       ??$_H_func@V<lambda_1>@?1??_H_min@_Minmax_traits_8@?A0x8417fefe@@SA?AT__m128i@@T5@@Z@@_Minmax_traits_8@?A0x8417fefe@@SA?AT__m128i@@T2@V<lambda_1>@?1??_H_min@01@SA?AT2@0@Z@@Z 0042fdd0 f   msvcprtd:vector_algorithms.obj
 0001:0002eed0       ??$_H_func@V<lambda_1>@?1??_H_min_u@_Minmax_traits_1@?A0x8417fefe@@SA?AT__m128i@@T5@@Z@@_Minmax_traits_1@?A0x8417fefe@@SA?AT__m128i@@T2@V<lambda_1>@?1??_H_min_u@01@SA?AT2@0@Z@@Z 0042fed0 f   msvcprtd:vector_algorithms.obj
 0001:0002f070       ??$_H_func@V<lambda_1>@?1??_H_min_u@_Minmax_traits_2@?A0x8417fefe@@SA?AT__m128i@@T5@@Z@@_Minmax_traits_2@?A0x8417fefe@@SA?AT__m128i@@T2@V<lambda_1>@?1??_H_min_u@01@SA?AT2@0@Z@@Z 00430070 f   msvcprtd:vector_algorithms.obj
 0001:0002f1a0       ??$_H_func@V<lambda_1>@?1??_H_min_u@_Minmax_traits_4@?A0x8417fefe@@SA?AT__m128i@@T5@@Z@@_Minmax_traits_4@?A0x8417fefe@@SA?AT__m128i@@T2@V<lambda_1>@?1??_H_min_u@01@SA?AT2@0@Z@@Z 004301a0 f   msvcprtd:vector_algorithms.obj
 0001:0002f280       ??$_H_func@V<lambda_1>@?1??_H_min_u@_Minmax_traits_8@?A0x8417fefe@@SA?AT__m128i@@T5@@Z@@_Minmax_traits_8@?A0x8417fefe@@SA?AT__m128i@@T2@V<lambda_1>@?1??_H_min_u@01@SA?AT2@0@Z@@Z 00430280 f   msvcprtd:vector_algorithms.obj
 0001:0002f380       ??$_Max_tail@C@?A0x8417fefe@@YAPBXQBX0PBXC@Z 00430380 f   msvcprtd:vector_algorithms.obj
 0001:0002f3e0       ??$_Max_tail@E@?A0x8417fefe@@YAPBXQBX0PBXE@Z 004303e0 f   msvcprtd:vector_algorithms.obj
 0001:0002f440       ??$_Max_tail@F@?A0x8417fefe@@YAPBXQBX0PBXF@Z 00430440 f   msvcprtd:vector_algorithms.obj
 0001:0002f4a0       ??$_Max_tail@G@?A0x8417fefe@@YAPBXQBX0PBXG@Z 004304a0 f   msvcprtd:vector_algorithms.obj
 0001:0002f500       ??$_Max_tail@H@?A0x8417fefe@@YAPBXQBX0PBXH@Z 00430500 f   msvcprtd:vector_algorithms.obj
 0001:0002f550       ??$_Max_tail@I@?A0x8417fefe@@YAPBXQBX0PBXI@Z 00430550 f   msvcprtd:vector_algorithms.obj
 0001:0002f5a0       ??$_Max_tail@_J@?A0x8417fefe@@YAPBXQBX0PBX_J@Z 004305a0 f   msvcprtd:vector_algorithms.obj
 0001:0002f610       ??$_Max_tail@_K@?A0x8417fefe@@YAPBXQBX0PBX_K@Z 00430610 f   msvcprtd:vector_algorithms.obj
 0001:0002f680       ??$_Min_tail@C@?A0x8417fefe@@YAPBXQBX0PBXC@Z 00430680 f   msvcprtd:vector_algorithms.obj
 0001:0002f6e0       ??$_Min_tail@E@?A0x8417fefe@@YAPBXQBX0PBXE@Z 004306e0 f   msvcprtd:vector_algorithms.obj
 0001:0002f740       ??$_Min_tail@F@?A0x8417fefe@@YAPBXQBX0PBXF@Z 00430740 f   msvcprtd:vector_algorithms.obj
 0001:0002f7a0       ??$_Min_tail@G@?A0x8417fefe@@YAPBXQBX0PBXG@Z 004307a0 f   msvcprtd:vector_algorithms.obj
 0001:0002f800       ??$_Min_tail@H@?A0x8417fefe@@YAPBXQBX0PBXH@Z 00430800 f   msvcprtd:vector_algorithms.obj
 0001:0002f850       ??$_Min_tail@I@?A0x8417fefe@@YAPBXQBX0PBXI@Z 00430850 f   msvcprtd:vector_algorithms.obj
 0001:0002f8a0       ??$_Min_tail@_J@?A0x8417fefe@@YAPBXQBX0PBX_J@Z 004308a0 f   msvcprtd:vector_algorithms.obj
 0001:0002f910       ??$_Min_tail@_K@?A0x8417fefe@@YAPBXQBX0PBX_K@Z 00430910 f   msvcprtd:vector_algorithms.obj
 0001:0002f980       ??$_Minmax_element@$00U_Minmax_traits_1@?A0x8417fefe@@@?A0x8417fefe@@YG?A_PPBXQBX_N@Z 00430980 f   msvcprtd:vector_algorithms.obj
 0001:0002fe60       ??$_Minmax_element@$00U_Minmax_traits_2@?A0x8417fefe@@@?A0x8417fefe@@YG?A_PPBXQBX_N@Z 00430e60 f   msvcprtd:vector_algorithms.obj
 0001:00030350       ??$_Minmax_element@$00U_Minmax_traits_4@?A0x8417fefe@@@?A0x8417fefe@@YG?A_PPBXQBX_N@Z 00431350 f   msvcprtd:vector_algorithms.obj
 0001:00030750       ??$_Minmax_element@$00U_Minmax_traits_8@?A0x8417fefe@@@?A0x8417fefe@@YG?A_PPBXQBX_N@Z 00431750 f   msvcprtd:vector_algorithms.obj
 0001:00030ba0       ??$_Minmax_element@$01U_Minmax_traits_1@?A0x8417fefe@@@?A0x8417fefe@@YG?A_PPBXQBX_N@Z 00431ba0 f   msvcprtd:vector_algorithms.obj
 0001:00031090       ??$_Minmax_element@$01U_Minmax_traits_2@?A0x8417fefe@@@?A0x8417fefe@@YG?A_PPBXQBX_N@Z 00432090 f   msvcprtd:vector_algorithms.obj
 0001:00031590       ??$_Minmax_element@$01U_Minmax_traits_4@?A0x8417fefe@@@?A0x8417fefe@@YG?A_PPBXQBX_N@Z 00432590 f   msvcprtd:vector_algorithms.obj
 0001:000319a0       ??$_Minmax_element@$01U_Minmax_traits_8@?A0x8417fefe@@@?A0x8417fefe@@YG?A_PPBXQBX_N@Z 004329a0 f   msvcprtd:vector_algorithms.obj
 0001:00031e10       ??$_Minmax_element@$02U_Minmax_traits_1@?A0x8417fefe@@@?A0x8417fefe@@YG?A_PPBXQBX_N@Z 00432e10 f   msvcprtd:vector_algorithms.obj
 0001:00032530       ??$_Minmax_element@$02U_Minmax_traits_2@?A0x8417fefe@@@?A0x8417fefe@@YG?A_PPBXQBX_N@Z 00433530 f   msvcprtd:vector_algorithms.obj
 0001:00032ca0       ??$_Minmax_element@$02U_Minmax_traits_4@?A0x8417fefe@@@?A0x8417fefe@@YG?A_PPBXQBX_N@Z 00433ca0 f   msvcprtd:vector_algorithms.obj
 0001:000332c0       ??$_Minmax_element@$02U_Minmax_traits_8@?A0x8417fefe@@@?A0x8417fefe@@YG?A_PPBXQBX_N@Z 004342c0 f   msvcprtd:vector_algorithms.obj
 0001:00033980       ??$_Reverse_copy_tail@PBEPAE@?A0x8417fefe@@YAXPBE0PAE@Z 00434980 f   msvcprtd:vector_algorithms.obj
 0001:000339c0       ??$_Reverse_copy_tail@PBGPAG@?A0x8417fefe@@YAXPBG0PAG@Z 004349c0 f   msvcprtd:vector_algorithms.obj
 0001:00033a00       ??$_Reverse_copy_tail@PBKPAK@?A0x8417fefe@@YAXPBK0PAK@Z 00434a00 f   msvcprtd:vector_algorithms.obj
 0001:00033a40       ??$_Reverse_copy_tail@PB_KPA_K@?A0x8417fefe@@YAXPB_K0PA_K@Z 00434a40 f   msvcprtd:vector_algorithms.obj
 0001:00033a80       ??$_Reverse_tail@PAE@?A0x8417fefe@@YAXPAE0@Z 00434a80 f   msvcprtd:vector_algorithms.obj
 0001:00033ae0       ??$_Reverse_tail@PAG@?A0x8417fefe@@YAXPAG0@Z 00434ae0 f   msvcprtd:vector_algorithms.obj
 0001:00033b50       ??$_Reverse_tail@PAK@?A0x8417fefe@@YAXPAK0@Z 00434b50 f   msvcprtd:vector_algorithms.obj
 0001:00033bb0       ??$_Reverse_tail@PA_K@?A0x8417fefe@@YAXPA_K0@Z 00434bb0 f   msvcprtd:vector_algorithms.obj
 0001:00033c30       ??$__std_count_trivial@U_Find_traits_1@?A0x8417fefe@@E@?A0x8417fefe@@YGIPBXQBXE@Z 00434c30 f   msvcprtd:vector_algorithms.obj
 0001:00033e70       ??$__std_count_trivial@U_Find_traits_2@?A0x8417fefe@@G@?A0x8417fefe@@YGIPBXQBXG@Z 00434e70 f   msvcprtd:vector_algorithms.obj
 0001:000340c0       ??$__std_count_trivial@U_Find_traits_4@?A0x8417fefe@@I@?A0x8417fefe@@YGIPBXQBXI@Z 004350c0 f   msvcprtd:vector_algorithms.obj
 0001:00034300       ??$__std_count_trivial@U_Find_traits_8@?A0x8417fefe@@_K@?A0x8417fefe@@YGIPBXQBX_K@Z 00435300 f   msvcprtd:vector_algorithms.obj
 0001:00034560       ??$__std_find_last_trivial@U_Find_traits_1@?A0x8417fefe@@E@?A0x8417fefe@@YGPBXPBX0E@Z 00435560 f   msvcprtd:vector_algorithms.obj
 0001:00034800       ??$__std_find_last_trivial@U_Find_traits_2@?A0x8417fefe@@G@?A0x8417fefe@@YGPBXPBX0G@Z 00435800 f   msvcprtd:vector_algorithms.obj
 0001:00034aa0       ??$__std_find_last_trivial@U_Find_traits_4@?A0x8417fefe@@I@?A0x8417fefe@@YGPBXPBX0I@Z 00435aa0 f   msvcprtd:vector_algorithms.obj
 0001:00034d40       ??$__std_find_last_trivial@U_Find_traits_8@?A0x8417fefe@@_K@?A0x8417fefe@@YGPBXPBX0_K@Z 00435d40 f   msvcprtd:vector_algorithms.obj
 0001:00035000       ??$__std_find_trivial@U_Find_traits_1@?A0x8417fefe@@E@?A0x8417fefe@@YGPBXPBX0E@Z 00436000 f   msvcprtd:vector_algorithms.obj
 0001:00035290       ??$__std_find_trivial@U_Find_traits_2@?A0x8417fefe@@G@?A0x8417fefe@@YGPBXPBX0G@Z 00436290 f   msvcprtd:vector_algorithms.obj
 0001:00035520       ??$__std_find_trivial@U_Find_traits_4@?A0x8417fefe@@I@?A0x8417fefe@@YGPBXPBX0I@Z 00436520 f   msvcprtd:vector_algorithms.obj
 0001:000357a0       ??$__std_find_trivial@U_Find_traits_8@?A0x8417fefe@@_K@?A0x8417fefe@@YGPBXPBX0_K@Z 004367a0 f   msvcprtd:vector_algorithms.obj
 0001:00035a40       ??$__std_find_trivial_unsized@U_Find_traits_1@?A0x8417fefe@@E@?A0x8417fefe@@YGPBXPBXE@Z 00436a40 f   msvcprtd:vector_algorithms.obj
 0001:00035de0       ??$__std_find_trivial_unsized@U_Find_traits_2@?A0x8417fefe@@G@?A0x8417fefe@@YGPBXPBXG@Z 00436de0 f   msvcprtd:vector_algorithms.obj
 0001:00036180       ??$__std_find_trivial_unsized@U_Find_traits_4@?A0x8417fefe@@I@?A0x8417fefe@@YGPBXPBXI@Z 00437180 f   msvcprtd:vector_algorithms.obj
 0001:00036510       ??$__std_find_trivial_unsized@U_Find_traits_8@?A0x8417fefe@@_K@?A0x8417fefe@@YGPBXPBX_K@Z 00437510 f   msvcprtd:vector_algorithms.obj
 0001:000368c0       ??1_Zeroupper_on_exit@?A0x8417fefe@@QAE@XZ 004378c0 f   msvcprtd:vector_algorithms.obj
 0001:000368e0       ??R<lambda_1>@?1??_H_max@_Minmax_traits_1@?A0x8417fefe@@SA?AT__m128i@@T4@@Z@QBE@T4@1@Z 004378e0 f   msvcprtd:vector_algorithms.obj
 0001:00036940       ??R<lambda_1>@?1??_H_max@_Minmax_traits_2@?A0x8417fefe@@SA?AT__m128i@@T4@@Z@QBE@T4@1@Z 00437940 f   msvcprtd:vector_algorithms.obj
 0001:000369a0       ??R<lambda_1>@?1??_H_max@_Minmax_traits_4@?A0x8417fefe@@SA?AT__m128i@@T4@@Z@QBE@T4@1@Z 004379a0 f   msvcprtd:vector_algorithms.obj
 0001:00036a00       ??R<lambda_1>@?1??_H_max@_Minmax_traits_8@?A0x8417fefe@@SA?AT__m128i@@T4@@Z@QBE@_J1@Z 00437a00 f   msvcprtd:vector_algorithms.obj
 0001:00036a50       ??R<lambda_1>@?1??_H_max_u@_Minmax_traits_1@?A0x8417fefe@@SA?AT__m128i@@T4@@Z@QBE@T4@1@Z 00437a50 f   msvcprtd:vector_algorithms.obj
 0001:00036ab0       ??R<lambda_1>@?1??_H_max_u@_Minmax_traits_2@?A0x8417fefe@@SA?AT__m128i@@T4@@Z@QBE@T4@1@Z 00437ab0 f   msvcprtd:vector_algorithms.obj
 0001:00036b10       ??R<lambda_1>@?1??_H_max_u@_Minmax_traits_4@?A0x8417fefe@@SA?AT__m128i@@T4@@Z@QBE@T4@1@Z 00437b10 f   msvcprtd:vector_algorithms.obj
 0001:00036b70       ??R<lambda_1>@?1??_H_max_u@_Minmax_traits_8@?A0x8417fefe@@SA?AT__m128i@@T4@@Z@QBE@_K1@Z 00437b70 f   msvcprtd:vector_algorithms.obj
 0001:00036bc0       ??R<lambda_1>@?1??_H_min@_Minmax_traits_1@?A0x8417fefe@@SA?AT__m128i@@T4@@Z@QBE@T4@1@Z 00437bc0 f   msvcprtd:vector_algorithms.obj
 0001:00036c20       ??R<lambda_1>@?1??_H_min@_Minmax_traits_2@?A0x8417fefe@@SA?AT__m128i@@T4@@Z@QBE@T4@1@Z 00437c20 f   msvcprtd:vector_algorithms.obj
 0001:00036c80       ??R<lambda_1>@?1??_H_min@_Minmax_traits_4@?A0x8417fefe@@SA?AT__m128i@@T4@@Z@QBE@T4@1@Z 00437c80 f   msvcprtd:vector_algorithms.obj
 0001:00036ce0       ??R<lambda_1>@?1??_H_min@_Minmax_traits_8@?A0x8417fefe@@SA?AT__m128i@@T4@@Z@QBE@_J1@Z 00437ce0 f   msvcprtd:vector_algorithms.obj
 0001:00036d30       ??R<lambda_1>@?1??_H_min_u@_Minmax_traits_1@?A0x8417fefe@@SA?AT__m128i@@T4@@Z@QBE@T4@1@Z 00437d30 f   msvcprtd:vector_algorithms.obj
 0001:00036d90       ??R<lambda_1>@?1??_H_min_u@_Minmax_traits_2@?A0x8417fefe@@SA?AT__m128i@@T4@@Z@QBE@T4@1@Z 00437d90 f   msvcprtd:vector_algorithms.obj
 0001:00036df0       ??R<lambda_1>@?1??_H_min_u@_Minmax_traits_4@?A0x8417fefe@@SA?AT__m128i@@T4@@Z@QBE@T4@1@Z 00437df0 f   msvcprtd:vector_algorithms.obj
 0001:00036e50       ??R<lambda_1>@?1??_H_min_u@_Minmax_traits_8@?A0x8417fefe@@SA?AT__m128i@@T4@@Z@QBE@_K1@Z 00437e50 f   msvcprtd:vector_algorithms.obj
 0001:00036ea0       ?_Byte_length@?A0x8417fefe@@YAIPBX0@Z 00437ea0 f   msvcprtd:vector_algorithms.obj
 0001:00036eb0       ?_Cmp_avx@_Find_traits_1@?A0x8417fefe@@SA?AT__m256i@@T3@0@Z 00437eb0 f   msvcprtd:vector_algorithms.obj
 0001:00036f00       ?_Cmp_avx@_Find_traits_2@?A0x8417fefe@@SA?AT__m256i@@T3@0@Z 00437f00 f   msvcprtd:vector_algorithms.obj
 0001:00036f50       ?_Cmp_avx@_Find_traits_4@?A0x8417fefe@@SA?AT__m256i@@T3@0@Z 00437f50 f   msvcprtd:vector_algorithms.obj
 0001:00036fa0       ?_Cmp_avx@_Find_traits_8@?A0x8417fefe@@SA?AT__m256i@@T3@0@Z 00437fa0 f   msvcprtd:vector_algorithms.obj
 0001:00036ff0       ?_Cmp_eq@_Minmax_traits_1@?A0x8417fefe@@SA?AT__m128i@@T3@0@Z 00437ff0 f   msvcprtd:vector_algorithms.obj
 0001:00037040       ?_Cmp_eq@_Minmax_traits_2@?A0x8417fefe@@SA?AT__m128i@@T3@0@Z 00438040 f   msvcprtd:vector_algorithms.obj
 0001:00037090       ?_Cmp_eq@_Minmax_traits_4@?A0x8417fefe@@SA?AT__m128i@@T3@0@Z 00438090 f   msvcprtd:vector_algorithms.obj
 0001:000370e0       ?_Cmp_eq@_Minmax_traits_8@?A0x8417fefe@@SA?AT__m128i@@T3@0@Z 004380e0 f   msvcprtd:vector_algorithms.obj
 0001:00037130       ?_Cmp_gt@_Minmax_traits_1@?A0x8417fefe@@SA?AT__m128i@@T3@0@Z 00438130 f   msvcprtd:vector_algorithms.obj
 0001:00037180       ?_Cmp_gt@_Minmax_traits_2@?A0x8417fefe@@SA?AT__m128i@@T3@0@Z 00438180 f   msvcprtd:vector_algorithms.obj
 0001:000371d0       ?_Cmp_gt@_Minmax_traits_4@?A0x8417fefe@@SA?AT__m128i@@T3@0@Z 004381d0 f   msvcprtd:vector_algorithms.obj
 0001:00037220       ?_Cmp_gt@_Minmax_traits_8@?A0x8417fefe@@SA?AT__m128i@@T3@0@Z 00438220 f   msvcprtd:vector_algorithms.obj
 0001:00037270       ?_Cmp_sse@_Find_traits_1@?A0x8417fefe@@SA?AT__m128i@@T3@0@Z 00438270 f   msvcprtd:vector_algorithms.obj
 0001:000372c0       ?_Cmp_sse@_Find_traits_2@?A0x8417fefe@@SA?AT__m128i@@T3@0@Z 004382c0 f   msvcprtd:vector_algorithms.obj
 0001:00037310       ?_Cmp_sse@_Find_traits_4@?A0x8417fefe@@SA?AT__m128i@@T3@0@Z 00438310 f   msvcprtd:vector_algorithms.obj
 0001:00037360       ?_Cmp_sse@_Find_traits_8@?A0x8417fefe@@SA?AT__m128i@@T3@0@Z 00438360 f   msvcprtd:vector_algorithms.obj
 0001:000373b0       ?_Get_any@_Minmax_traits_1@?A0x8417fefe@@SACT__m128i@@@Z 004383b0 f   msvcprtd:vector_algorithms.obj
 0001:000373f0       ?_Get_any@_Minmax_traits_2@?A0x8417fefe@@SAFT__m128i@@@Z 004383f0 f   msvcprtd:vector_algorithms.obj
 0001:00037430       ?_Get_any@_Minmax_traits_4@?A0x8417fefe@@SAHT__m128i@@@Z 00438430 f   msvcprtd:vector_algorithms.obj
 0001:00037470       ?_Get_any@_Minmax_traits_8@?A0x8417fefe@@SA_JT__m128i@@@Z 00438470 f   msvcprtd:vector_algorithms.obj
 0001:000374d0       ?_Get_v_pos@_Minmax_traits_1@?A0x8417fefe@@SAET__m128i@@K@Z 004384d0 f   msvcprtd:vector_algorithms.obj
 0001:00037530       ?_Get_v_pos@_Minmax_traits_2@?A0x8417fefe@@SAGT__m128i@@K@Z 00438530 f   msvcprtd:vector_algorithms.obj
 0001:000375a0       ?_Get_v_pos@_Minmax_traits_4@?A0x8417fefe@@SAIT__m128i@@K@Z 004385a0 f   msvcprtd:vector_algorithms.obj
 0001:00037600       ?_Get_v_pos@_Minmax_traits_8@?A0x8417fefe@@SA_KT__m128i@@K@Z 00438600 f   msvcprtd:vector_algorithms.obj
 0001:00037650       ?_H_max@_Minmax_traits_1@?A0x8417fefe@@SA?AT__m128i@@T3@@Z 00438650 f   msvcprtd:vector_algorithms.obj
 0001:000376a0       ?_H_max@_Minmax_traits_2@?A0x8417fefe@@SA?AT__m128i@@T3@@Z 004386a0 f   msvcprtd:vector_algorithms.obj
 0001:000376f0       ?_H_max@_Minmax_traits_4@?A0x8417fefe@@SA?AT__m128i@@T3@@Z 004386f0 f   msvcprtd:vector_algorithms.obj
 0001:00037740       ?_H_max@_Minmax_traits_8@?A0x8417fefe@@SA?AT__m128i@@T3@@Z 00438740 f   msvcprtd:vector_algorithms.obj
 0001:00037790       ?_H_max_u@_Minmax_traits_1@?A0x8417fefe@@SA?AT__m128i@@T3@@Z 00438790 f   msvcprtd:vector_algorithms.obj
 0001:000377e0       ?_H_max_u@_Minmax_traits_2@?A0x8417fefe@@SA?AT__m128i@@T3@@Z 004387e0 f   msvcprtd:vector_algorithms.obj
 0001:00037830       ?_H_max_u@_Minmax_traits_4@?A0x8417fefe@@SA?AT__m128i@@T3@@Z 00438830 f   msvcprtd:vector_algorithms.obj
 0001:00037880       ?_H_max_u@_Minmax_traits_8@?A0x8417fefe@@SA?AT__m128i@@T3@@Z 00438880 f   msvcprtd:vector_algorithms.obj
 0001:000378d0       ?_H_min@_Minmax_traits_1@?A0x8417fefe@@SA?AT__m128i@@T3@@Z 004388d0 f   msvcprtd:vector_algorithms.obj
 0001:00037920       ?_H_min@_Minmax_traits_2@?A0x8417fefe@@SA?AT__m128i@@T3@@Z 00438920 f   msvcprtd:vector_algorithms.obj
 0001:00037970       ?_H_min@_Minmax_traits_4@?A0x8417fefe@@SA?AT__m128i@@T3@@Z 00438970 f   msvcprtd:vector_algorithms.obj
 0001:000379c0       ?_H_min@_Minmax_traits_8@?A0x8417fefe@@SA?AT__m128i@@T3@@Z 004389c0 f   msvcprtd:vector_algorithms.obj
 0001:00037a10       ?_H_min_u@_Minmax_traits_1@?A0x8417fefe@@SA?AT__m128i@@T3@@Z 00438a10 f   msvcprtd:vector_algorithms.obj
 0001:00037a60       ?_H_min_u@_Minmax_traits_2@?A0x8417fefe@@SA?AT__m128i@@T3@@Z 00438a60 f   msvcprtd:vector_algorithms.obj
 0001:00037ab0       ?_H_min_u@_Minmax_traits_4@?A0x8417fefe@@SA?AT__m128i@@T3@@Z 00438ab0 f   msvcprtd:vector_algorithms.obj
 0001:00037b00       ?_H_min_u@_Minmax_traits_8@?A0x8417fefe@@SA?AT__m128i@@T3@@Z 00438b00 f   msvcprtd:vector_algorithms.obj
 0001:00037b50       ?_Inc@_Minmax_traits_1@?A0x8417fefe@@SA?AT__m128i@@T3@@Z 00438b50 f   msvcprtd:vector_algorithms.obj
 0001:00037ba0       ?_Inc@_Minmax_traits_2@?A0x8417fefe@@SA?AT__m128i@@T3@@Z 00438ba0 f   msvcprtd:vector_algorithms.obj
 0001:00037bf0       ?_Inc@_Minmax_traits_4@?A0x8417fefe@@SA?AT__m128i@@T3@@Z 00438bf0 f   msvcprtd:vector_algorithms.obj
 0001:00037c40       ?_Inc@_Minmax_traits_8@?A0x8417fefe@@SA?AT__m128i@@T3@@Z 00438c40 f   msvcprtd:vector_algorithms.obj
 0001:00037c90       ?_Max@_Minmax_traits_1@?A0x8417fefe@@SA?AT__m128i@@T3@0T3@@Z 00438c90 f   msvcprtd:vector_algorithms.obj
 0001:00037ce0       ?_Max@_Minmax_traits_2@?A0x8417fefe@@SA?AT__m128i@@T3@0T3@@Z 00438ce0 f   msvcprtd:vector_algorithms.obj
 0001:00037d30       ?_Max@_Minmax_traits_4@?A0x8417fefe@@SA?AT__m128i@@T3@0T3@@Z 00438d30 f   msvcprtd:vector_algorithms.obj
 0001:00037d80       ?_Max@_Minmax_traits_8@?A0x8417fefe@@SA?AT__m128i@@T3@00@Z 00438d80 f   msvcprtd:vector_algorithms.obj
 0001:00037de0       ?_Min@_Minmax_traits_1@?A0x8417fefe@@SA?AT__m128i@@T3@0T3@@Z 00438de0 f   msvcprtd:vector_algorithms.obj
 0001:00037e30       ?_Min@_Minmax_traits_2@?A0x8417fefe@@SA?AT__m128i@@T3@0T3@@Z 00438e30 f   msvcprtd:vector_algorithms.obj
 0001:00037e80       ?_Min@_Minmax_traits_4@?A0x8417fefe@@SA?AT__m128i@@T3@0T3@@Z 00438e80 f   msvcprtd:vector_algorithms.obj
 0001:00037ed0       ?_Min@_Minmax_traits_8@?A0x8417fefe@@SA?AT__m128i@@T3@00@Z 00438ed0 f   msvcprtd:vector_algorithms.obj
 0001:00037f30       ?_Rewind_bytes@?A0x8417fefe@@YAXAAPBXI@Z 00438f30 f   msvcprtd:vector_algorithms.obj
 0001:00037f50       ?_Set_avx@_Find_traits_1@?A0x8417fefe@@SA?AT__m256i@@E@Z 00438f50 f   msvcprtd:vector_algorithms.obj
 0001:00037fb0       ?_Set_avx@_Find_traits_2@?A0x8417fefe@@SA?AT__m256i@@G@Z 00438fb0 f   msvcprtd:vector_algorithms.obj
 0001:00038010       ?_Set_avx@_Find_traits_4@?A0x8417fefe@@SA?AT__m256i@@I@Z 00439010 f   msvcprtd:vector_algorithms.obj
 0001:00038060       ?_Set_avx@_Find_traits_8@?A0x8417fefe@@SA?AT__m256i@@_K@Z 00439060 f   msvcprtd:vector_algorithms.obj
 0001:000380b0       ?_Set_sse@_Find_traits_1@?A0x8417fefe@@SA?AT__m128i@@E@Z 004390b0 f   msvcprtd:vector_algorithms.obj
 0001:00038100       ?_Set_sse@_Find_traits_2@?A0x8417fefe@@SA?AT__m128i@@G@Z 00439100 f   msvcprtd:vector_algorithms.obj
 0001:00038150       ?_Set_sse@_Find_traits_4@?A0x8417fefe@@SA?AT__m128i@@I@Z 00439150 f   msvcprtd:vector_algorithms.obj
 0001:000381a0       ?_Set_sse@_Find_traits_8@?A0x8417fefe@@SA?AT__m128i@@_K@Z 004391a0 f   msvcprtd:vector_algorithms.obj
 0001:000381f0       ?_Sign_correction@_Minmax_traits_1@?A0x8417fefe@@SA?AT__m128i@@T3@_N@Z 004391f0 f   msvcprtd:vector_algorithms.obj
 0001:00038250       ?_Sign_correction@_Minmax_traits_2@?A0x8417fefe@@SA?AT__m128i@@T3@_N@Z 00439250 f   msvcprtd:vector_algorithms.obj
 0001:000382b0       ?_Sign_correction@_Minmax_traits_4@?A0x8417fefe@@SA?AT__m128i@@T3@_N@Z 004392b0 f   msvcprtd:vector_algorithms.obj
 0001:00038310       ?_Sign_correction@_Minmax_traits_8@?A0x8417fefe@@SA?AT__m128i@@T3@_N@Z 00439310 f   msvcprtd:vector_algorithms.obj
 0001:00038370       ?_Sse_available@_Find_traits_1@?A0x8417fefe@@SA_NXZ 00439370 f   msvcprtd:vector_algorithms.obj
 0001:00038380       ?_Sse_available@_Find_traits_2@?A0x8417fefe@@SA_NXZ 00439380 f   msvcprtd:vector_algorithms.obj
 0001:00038390       ?_Sse_available@_Find_traits_4@?A0x8417fefe@@SA_NXZ 00439390 f   msvcprtd:vector_algorithms.obj
 0001:000383a0       ?_Sse_available@_Find_traits_8@?A0x8417fefe@@SA_NXZ 004393a0 f   msvcprtd:vector_algorithms.obj
 0001:000383b0       ?_Use_avx2@?A0x8417fefe@@YA_NXZ 004393b0 f   msvcprtd:vector_algorithms.obj
 0001:000383e0       ?_Use_sse2@?A0x8417fefe@@YA_NXZ 004393e0 f   msvcprtd:vector_algorithms.obj
 0001:00038410       ?_Use_sse42@?A0x8417fefe@@YA_NXZ 00439410 f   msvcprtd:vector_algorithms.obj
 0001:0003a230       ?pre_c_initialization@@YAHXZ 0043b230 f   MSVCRTD:exe_main.obj
 0001:0003a310       ?post_pgo_initialization@@YAHXZ 0043b310 f   MSVCRTD:exe_main.obj
 0001:0003a320       ?pre_cpp_initialization@@YAXXZ 0043b320 f   MSVCRTD:exe_main.obj
 0001:0003a340       ?__scrt_common_main@@YAHXZ 0043b340 f   MSVCRTD:exe_main.obj
 0001:0003a360       ?__scrt_common_main_seh@@YAHXZ 0043b360 f   MSVCRTD:exe_main.obj
 0001:0003a630       ?invoke_main@@YAHXZ        0043b630 f   MSVCRTD:exe_main.obj
 0001:0003a820       ?ArrayUnwindFilter@@YAHPAU_EXCEPTION_POINTERS@@@Z 0043b820 f   MSVCRTD:ehvecdtr.obj
 0001:0003aa20       ?find_pe_section@@YAPAU_IMAGE_SECTION_HEADER@@QAEI@Z 0043ba20 f   MSVCRTD:utility.obj
 0001:0003aad0       ?is_potentially_valid_image_base@@YA_NQAX@Z 0043bad0 f   MSVCRTD:utility.obj
 0001:0003b260       $$000000                   0043c260     MSVCRTD:llshl.obj
 0001:0003b270       MORE32                     0043c270     MSVCRTD:llshl.obj
 0001:0003b27a       RETZERO                    0043c27a     MSVCRTD:llshl.obj
 0001:0003b690       ___get_entropy             0043c690 f   MSVCRTD:gs_support.obj
 0001:0003bed0       ___castguard_check_failure_os_handled_wrapper 0043ced0 f   MSVCRTD:guard_support.obj
 0001:0003bf40       ___castguard_check_failure_user_handled_wrapper 0043cf40 f   MSVCRTD:guard_support.obj
 0001:0003bf90       ___castguard_compat_check  0043cf90 f   MSVCRTD:guard_support.obj
 0001:0003c150       ___castguard_slow_path_compat_check 0043d150 f   MSVCRTD:guard_support.obj
 0001:0003c850       _ParseCommandLine          0043d850 f   SDL2main:SDL_windows_main.obj
 0001:0003c9b0       _main_getcmdline           0043d9b0 f   SDL2main:SDL_windows_main.obj
 0001:0003e9b0       __unwindfunclet$??0CrimsonWasteland2@@QAE@XZ$0 0043f9b0 f   CrimsonWasteland2.obj
 0001:0003e9b8       __unwindfunclet$??0CrimsonWasteland2@@QAE@XZ$1 0043f9b8 f   CrimsonWasteland2.obj
 0001:0003e9c6       __unwindfunclet$??0CrimsonWasteland2@@QAE@XZ$2 0043f9c6 f   CrimsonWasteland2.obj
 0001:0003e9ce       __unwindfunclet$??0CrimsonWasteland2@@QAE@XZ$3 0043f9ce f   CrimsonWasteland2.obj
 0001:0003e9d6       __unwindfunclet$??0CrimsonWasteland2@@QAE@XZ$5 0043f9d6 f   CrimsonWasteland2.obj
 0001:0003e9e9       __unwindfunclet$??0CrimsonWasteland2@@QAE@XZ$6 0043f9e9 f   CrimsonWasteland2.obj
 0001:0003e9f7       __unwindfunclet$??0CrimsonWasteland2@@QAE@XZ$7 0043f9f7 f   CrimsonWasteland2.obj
 0001:0003ea0a       __ehhandler$??0CrimsonWasteland2@@QAE@XZ 0043fa0a f   CrimsonWasteland2.obj
 0001:0003ea31       __unwindfunclet$?virtSetupBackgroundBuffer@CrimsonWasteland2@@UAEXXZ$0 0043fa31 f   CrimsonWasteland2.obj
 0001:0003ea3c       __unwindfunclet$?virtSetupBackgroundBuffer@CrimsonWasteland2@@UAEXXZ$7 0043fa3c f   CrimsonWasteland2.obj
 0001:0003ea4c       __ehhandler$?virtSetupBackgroundBuffer@CrimsonWasteland2@@UAEXXZ 0043fa4c f   CrimsonWasteland2.obj
 0001:0003ea76       __unwindfunclet$?virtInitialiseObjects@CrimsonWasteland2@@UAEHXZ$0 0043fa76 f   CrimsonWasteland2.obj
 0001:0003ea8a       __ehhandler$?virtInitialiseObjects@CrimsonWasteland2@@UAEHXZ 0043fa8a f   CrimsonWasteland2.obj
 0001:0003eaa7       __unwindfunclet$?virtDrawStringsOnTop@CrimsonWasteland2@@UAEXXZ$1 0043faa7 f   CrimsonWasteland2.obj
 0001:0003eab2       __unwindfunclet$?virtDrawStringsOnTop@CrimsonWasteland2@@UAEXXZ$3 0043fab2 f   CrimsonWasteland2.obj
 0001:0003eabd       __unwindfunclet$?virtDrawStringsOnTop@CrimsonWasteland2@@UAEXXZ$5 0043fabd f   CrimsonWasteland2.obj
 0001:0003eac8       __unwindfunclet$?virtDrawStringsOnTop@CrimsonWasteland2@@UAEXXZ$6 0043fac8 f   CrimsonWasteland2.obj
 0001:0003ead7       __unwindfunclet$?virtDrawStringsOnTop@CrimsonWasteland2@@UAEXXZ$8 0043fad7 f   CrimsonWasteland2.obj
 0001:0003eae6       __unwindfunclet$?virtDrawStringsOnTop@CrimsonWasteland2@@UAEXXZ$10 0043fae6 f   CrimsonWasteland2.obj
 0001:0003eaf5       __unwindfunclet$?virtDrawStringsOnTop@CrimsonWasteland2@@UAEXXZ$11 0043faf5 f   CrimsonWasteland2.obj
 0001:0003eb07       __unwindfunclet$?virtDrawStringsOnTop@CrimsonWasteland2@@UAEXXZ$12 0043fb07 f   CrimsonWasteland2.obj
 0001:0003eb16       __unwindfunclet$?virtDrawStringsOnTop@CrimsonWasteland2@@UAEXXZ$13 0043fb16 f   CrimsonWasteland2.obj
 0001:0003eb25       __unwindfunclet$?virtDrawStringsOnTop@CrimsonWasteland2@@UAEXXZ$14 0043fb25 f   CrimsonWasteland2.obj
 0001:0003eb34       __unwindfunclet$?virtDrawStringsOnTop@CrimsonWasteland2@@UAEXXZ$15 0043fb34 f   CrimsonWasteland2.obj
 0001:0003eb43       __unwindfunclet$?virtDrawStringsOnTop@CrimsonWasteland2@@UAEXXZ$16 0043fb43 f   CrimsonWasteland2.obj
 0001:0003eb55       __unwindfunclet$?virtDrawStringsOnTop@CrimsonWasteland2@@UAEXXZ$17 0043fb55 f   CrimsonWasteland2.obj
 0001:0003eb64       __unwindfunclet$?virtDrawStringsOnTop@CrimsonWasteland2@@UAEXXZ$18 0043fb64 f   CrimsonWasteland2.obj
 0001:0003eb73       __unwindfunclet$?virtDrawStringsOnTop@CrimsonWasteland2@@UAEXXZ$19 0043fb73 f   CrimsonWasteland2.obj
 0001:0003eb82       __unwindfunclet$?virtDrawStringsOnTop@CrimsonWasteland2@@UAEXXZ$20 0043fb82 f   CrimsonWasteland2.obj
 0001:0003eb96       __ehhandler$?virtDrawStringsOnTop@CrimsonWasteland2@@UAEXXZ 0043fb96 f   CrimsonWasteland2.obj
 0001:0003ebb6       __unwindfunclet$?virtDrawStringsUnderneath@CrimsonWasteland2@@UAEXXZ$0 0043fbb6 f   CrimsonWasteland2.obj
 0001:0003ebc1       __unwindfunclet$?virtDrawStringsUnderneath@CrimsonWasteland2@@UAEXXZ$1 0043fbc1 f   CrimsonWasteland2.obj
 0001:0003ebd1       __ehhandler$?virtDrawStringsUnderneath@CrimsonWasteland2@@UAEXXZ 0043fbd1 f   CrimsonWasteland2.obj
 0001:0003ebfb       __unwindfunclet$?virtMouseDown@CrimsonWasteland2@@UAEXHHH@Z$0 0043fbfb f   CrimsonWasteland2.obj
 0001:0003ec03       __unwindfunclet$?virtMouseDown@CrimsonWasteland2@@UAEXHHH@Z$1 0043fc03 f   CrimsonWasteland2.obj
 0001:0003ec0b       __unwindfunclet$?virtMouseDown@CrimsonWasteland2@@UAEXHHH@Z$2 0043fc0b f   CrimsonWasteland2.obj
 0001:0003ec16       __unwindfunclet$?virtMouseDown@CrimsonWasteland2@@UAEXHHH@Z$3 0043fc16 f   CrimsonWasteland2.obj
 0001:0003ec21       __unwindfunclet$?virtMouseDown@CrimsonWasteland2@@UAEXHHH@Z$5 0043fc21 f   CrimsonWasteland2.obj
 0001:0003ec37       __unwindfunclet$?virtMouseDown@CrimsonWasteland2@@UAEXHHH@Z$6 0043fc37 f   CrimsonWasteland2.obj
 0001:0003ec42       __unwindfunclet$?virtMouseDown@CrimsonWasteland2@@UAEXHHH@Z$9 0043fc42 f   CrimsonWasteland2.obj
 0001:0003ec52       __ehhandler$?virtMouseDown@CrimsonWasteland2@@UAEXHHH@Z 0043fc52 f   CrimsonWasteland2.obj
 0001:0003ed30       __unwindfunclet$??$?0U?$pair@V?$basic_string@DU?$char_traits@D@std@@V?$allocator@D@2@@std@@V?$shared_ptr@VRawImageData@@@2@@std@@@?$_Tree_temp_node@V?$allocator@U?$_Tree_node@U?$pair@$$CBV?$basic_string@DU?$char_traits@D@std@@V?$allocator@D@2@@std@@V?$shared_ptr@VRawImageData@@@2@@std@@PAX@std@@@std@@@std@@QAE@AAV?$allocator@U?$_Tree_node@U?$pair@$$CBV?$basic_string@DU?$char_traits@D@std@@V?$allocator@D@2@@std@@V?$shared_ptr@VRawImageData@@@2@@std@@PAX@std@@@1@PAU?$_Tree_node@U?$pair@$$CBV?$basic_string@DU?$char_traits@D@std@@V?$allocator@D@2@@std@@V?$shared_ptr@VRawImageData@@@2@@std@@PAX@1@$$QAU?$pair@V?$basic_string@DU?$char_traits@D@std@@V?$allocator@D@2@@std@@V?$shared_ptr@VRawImageData@@@2@@1@@Z$0 0043fd30 f   CrimsonWasteland2.obj
 0001:0003ed3d       __ehhandler$??$?0U?$pair@V?$basic_string@DU?$char_traits@D@std@@V?$allocator@D@2@@std@@V?$shared_ptr@VRawImageData@@@2@@std@@@?$_Tree_temp_node@V?$allocator@U?$_Tree_node@U?$pair@$$CBV?$basic_string@DU?$char_traits@D@std@@V?$allocator@D@2@@std@@V?$shared_ptr@VRawImageData@@@2@@std@@PAX@std@@@std@@@std@@QAE@AAV?$allocator@U?$_Tree_node@U?$pair@$$CBV?$basic_string@DU?$char_traits@D@std@@V?$allocator@D@2@@std@@V?$shared_ptr@VRawImageData@@@2@@std@@PAX@std@@@1@PAU?$_Tree_node@U?$pair@$$CBV?$basic_string@DU?$char_traits@D@std@@V?$allocator@D@2@@std@@V?$shared_ptr@VRawImageData@@@2@@std@@PAX@1@$$QAU?$pair@V?$basic_string@DU?$char_traits@D@std@@V?$allocator@D@2@@std@@V?$shared_ptr@VRawImageData@@@2@@1@@Z 0043fd3d f   CrimsonWasteland2.obj
 0001:0003ed70       __unwindfunclet$??$?0U?$pair@V?$basic_string@DU?$char_traits@D@std@@V?$allocator@D@2@@std@@V?$weak_ptr@VRawImageData@@@2@@std@@@?$_Tree_temp_node@V?$allocator@U?$_Tree_node@U?$pair@$$CBV?$basic_string@DU?$char_traits@D@std@@V?$allocator@D@2@@std@@V?$weak_ptr@VRawImageData@@@2@@std@@PAX@std@@@std@@@std@@QAE@AAV?$allocator@U?$_Tree_node@U?$pair@$$CBV?$basic_string@DU?$char_traits@D@std@@V?$allocator@D@2@@std@@V?$weak_ptr@VRawImageData@@@2@@std@@PAX@std@@@1@PAU?$_Tree_node@U?$pair@$$CBV?$basic_string@DU?$char_traits@D@std@@V?$allocator@D@2@@std@@V?$weak_ptr@VRawImageData@@@2@@std@@PAX@1@$$QAU?$pair@V?$basic_string@DU?$char_traits@D@std@@V?$allocator@D@2@@std@@V?$weak_ptr@VRawImageData@@@2@@1@@Z$0 0043fd70 f   CrimsonWasteland2.obj
 0001:0003ed7d       __ehhandler$??$?0U?$pair@V?$basic_string@DU?$char_traits@D@std@@V?$allocator@D@2@@std@@V?$weak_ptr@VRawImageData@@@2@@std@@@?$_Tree_temp_node@V?$allocator@U?$_Tree_node@U?$pair@$$CBV?$basic_string@DU?$char_traits@D@std@@V?$allocator@D@2@@std@@V?$weak_ptr@VRawImageData@@@2@@std@@PAX@std@@@std@@@std@@QAE@AAV?$allocator@U?$_Tree_node@U?$pair@$$CBV?$basic_string@DU?$char_traits@D@std@@V?$allocator@D@2@@std@@V?$weak_ptr@VRawImageData@@@2@@std@@PAX@std@@@1@PAU?$_Tree_node@U?$pair@$$CBV?$basic_string@DU?$char_traits@D@std@@V?$allocator@D@2@@std@@V?$weak_ptr@VRawImageData@@@2@@std@@PAX@1@$$QAU?$pair@V?$basic_string@DU?$char_traits@D@std@@V?$allocator@D@2@@std@@V?$weak_ptr@VRawImageData@@@2@@1@@Z 0043fd7d f   CrimsonWasteland2.obj
 0001:0003edb0       __unwindfunclet$??$?0VRawImageData@@$0A@@?$shared_ptr@VRawImageData@@@std@@QAE@PAVRawImageData@@@Z$0 0043fdb0 f   CrimsonWasteland2.obj
 0001:0003edb8       __unwindfunclet$??$?0VRawImageData@@$0A@@?$shared_ptr@VRawImageData@@@std@@QAE@PAVRawImageData@@@Z$1 0043fdb8 f   CrimsonWasteland2.obj
 0001:0003edcc       __ehhandler$??$?0VRawImageData@@$0A@@?$shared_ptr@VRawImageData@@@std@@QAE@PAVRawImageData@@@Z 0043fdcc f   CrimsonWasteland2.obj
 0001:0003ee00       __unwindfunclet$??$?6U?$char_traits@D@std@@@std@@YAAAV?$basic_ostream@DU?$char_traits@D@std@@@0@AAV10@PBD@Z$2 0043fe00 f   CrimsonWasteland2.obj
 0001:0003ee0d       __ehhandler$??$?6U?$char_traits@D@std@@@std@@YAAAV?$basic_ostream@DU?$char_traits@D@std@@@0@AAV10@PBD@Z 0043fe0d f   CrimsonWasteland2.obj
 0001:0003ee40       __unwindfunclet$??$_Construct@$00PBD@?$basic_string@DU?$char_traits@D@std@@V?$allocator@D@2@@std@@AAEXQBDI@Z$0 0043fe40 f   CrimsonWasteland2.obj
 0001:0003ee4d       __ehhandler$??$_Construct@$00PBD@?$basic_string@DU?$char_traits@D@std@@V?$allocator@D@2@@std@@AAEXQBDI@Z 0043fe4d f   CrimsonWasteland2.obj
 0001:0003ee80       __unwindfunclet$??$_Construct@$01PBD@?$basic_string@DU?$char_traits@D@std@@V?$allocator@D@2@@std@@AAEXQBDI@Z$0 0043fe80 f   CrimsonWasteland2.obj
 0001:0003ee8d       __ehhandler$??$_Construct@$01PBD@?$basic_string@DU?$char_traits@D@std@@V?$allocator@D@2@@std@@AAEXQBDI@Z 0043fe8d f   CrimsonWasteland2.obj
 0001:0003eec0       __unwindfunclet$??$_Construct_n@PBV?$basic_string@DU?$char_traits@D@std@@V?$allocator@D@2@@std@@PBV12@@?$vector@V?$basic_string@DU?$char_traits@D@std@@V?$allocator@D@2@@std@@V?$allocator@V?$basic_string@DU?$char_traits@D@std@@V?$allocator@D@2@@std@@@2@@std@@AAEXI$$QAPBV?$basic_string@DU?$char_traits@D@std@@V?$allocator@D@2@@1@0@Z$0 0043fec0 f   CrimsonWasteland2.obj
 0001:0003eec8       __unwindfunclet$??$_Construct_n@PBV?$basic_string@DU?$char_traits@D@std@@V?$allocator@D@2@@std@@PBV12@@?$vector@V?$basic_string@DU?$char_traits@D@std@@V?$allocator@D@2@@std@@V?$allocator@V?$basic_string@DU?$char_traits@D@std@@V?$allocator@D@2@@std@@@2@@std@@AAEXI$$QAPBV?$basic_string@DU?$char_traits@D@std@@V?$allocator@D@2@@1@0@Z$1 0043fec8 f   CrimsonWasteland2.obj
 0001:0003eed5       __ehhandler$??$_Construct_n@PBV?$basic_string@DU?$char_traits@D@std@@V?$allocator@D@2@@std@@PBV12@@?$vector@V?$basic_string@DU?$char_traits@D@std@@V?$allocator@D@2@@std@@V?$allocator@V?$basic_string@DU?$char_traits@D@std@@V?$allocator@D@2@@std@@@2@@std@@AAEXI$$QAPBV?$basic_string@DU?$char_traits@D@std@@V?$allocator@D@2@@1@0@Z 0043fed5 f   CrimsonWasteland2.obj
 0001:0003ef00       __ehhandler$??$_Deallocate@$07$0A@@std@@YAXPAXI@Z 0043ff00 f   CrimsonWasteland2.obj
 0001:0003ef30       __ehhandler$??$_Deallocate_plain@V?$allocator@U_Container_proxy@std@@@std@@@std@@YAXAAV?$allocator@U_Container_proxy@std@@@0@QAU_Container_proxy@0@@Z 0043ff30 f   CrimsonWasteland2.obj
 0001:0003ef60       __ehhandler$??$_Destroy_range@V?$allocator@V?$basic_string@DU?$char_traits@D@std@@V?$allocator@D@2@@std@@@std@@@std@@YAXPAV?$basic_string@DU?$char_traits@D@std@@V?$allocator@D@2@@0@QAV10@AAV?$allocator@V?$basic_string@DU?$char_traits@D@std@@V?$allocator@D@2@@std@@@0@@Z 0043ff60 f   CrimsonWasteland2.obj
 0001:0003ef90       __ehhandler$??$_Freenode0@V?$allocator@U?$_Tree_node@U?$pair@$$CBV?$basic_string@DU?$char_traits@D@std@@V?$allocator@D@2@@std@@V?$weak_ptr@VRawImageData@@@2@@std@@PAX@std@@@std@@@?$_Tree_node@U?$pair@$$CBV?$basic_string@DU?$char_traits@D@std@@V?$allocator@D@2@@std@@V?$weak_ptr@VRawImageData@@@2@@std@@PAX@std@@SAXAAV?$allocator@U?$_Tree_node@U?$pair@$$CBV?$basic_string@DU?$char_traits@D@std@@V?$allocator@D@2@@std@@V?$weak_ptr@VRawImageData@@@2@@std@@PAX@std@@@1@PAU01@@Z 0043ff90 f   CrimsonWasteland2.obj
 0001:0003efc0       __ehhandler$??$_Freenode@V?$allocator@U?$_Tree_node@U?$pair@$$CBV?$basic_string@DU?$char_traits@D@std@@V?$allocator@D@2@@std@@V?$weak_ptr@VRawImageData@@@2@@std@@PAX@std@@@std@@@?$_Tree_node@U?$pair@$$CBV?$basic_string@DU?$char_traits@D@std@@V?$allocator@D@2@@std@@V?$weak_ptr@VRawImageData@@@2@@std@@PAX@std@@SAXAAV?$allocator@U?$_Tree_node@U?$pair@$$CBV?$basic_string@DU?$char_traits@D@std@@V?$allocator@D@2@@std@@V?$weak_ptr@VRawImageData@@@2@@std@@PAX@std@@@1@PAU01@@Z 0043ffc0 f   CrimsonWasteland2.obj
 0001:0003eff0       __unwindfunclet$??$_Insert_string@DU?$char_traits@D@std@@I@std@@YAAAV?$basic_ostream@DU?$char_traits@D@std@@@0@AAV10@QBDI@Z$2 0043fff0 f   CrimsonWasteland2.obj
 0001:0003effd       __ehhandler$??$_Insert_string@DU?$char_traits@D@std@@I@std@@YAAAV?$basic_ostream@DU?$char_traits@D@std@@@0@AAV10@QBDI@Z 0043fffd f   CrimsonWasteland2.obj
 0001:0003f030       __ehhandler$??$_Resize_reallocate@U_Value_init_tag@std@@@?$vector@PAVDisplayableObject@@V?$allocator@PAVDisplayableObject@@@std@@@std@@AAEXIABU_Value_init_tag@1@@Z 00440030 f   CrimsonWasteland2.obj
 0001:0003f060       __unwindfunclet$??$_Uninitialized_copy@PBV?$basic_string@DU?$char_traits@D@std@@V?$allocator@D@2@@std@@PBV12@V?$allocator@V?$basic_string@DU?$char_traits@D@std@@V?$allocator@D@2@@std@@@2@@std@@YAPAV?$basic_string@DU?$char_traits@D@std@@V?$allocator@D@2@@0@PBV10@0PAV10@AAV?$allocator@V?$basic_string@DU?$char_traits@D@std@@V?$allocator@D@2@@std@@@0@@Z$0 00440060 f   CrimsonWasteland2.obj
 0001:0003f06d       __ehhandler$??$_Uninitialized_copy@PBV?$basic_string@DU?$char_traits@D@std@@V?$allocator@D@2@@std@@PBV12@V?$allocator@V?$basic_string@DU?$char_traits@D@std@@V?$allocator@D@2@@std@@@2@@std@@YAPAV?$basic_string@DU?$char_traits@D@std@@V?$allocator@D@2@@0@PBV10@0PAV10@AAV?$allocator@V?$basic_string@DU?$char_traits@D@std@@V?$allocator@D@2@@std@@@0@@Z 0044006d f   CrimsonWasteland2.obj
 0001:0003f0a0       __unwindfunclet$??$_Uninitialized_move@PAPAVDisplayableObject@@V?$allocator@PAVDisplayableObject@@@std@@@std@@YAPAPAVDisplayableObject@@QAPAV1@0PAPAV1@AAV?$allocator@PAVDisplayableObject@@@0@@Z$0 004400a0 f   CrimsonWasteland2.obj
 0001:0003f0ad       __ehhandler$??$_Uninitialized_move@PAPAVDisplayableObject@@V?$allocator@PAVDisplayableObject@@@std@@@std@@YAPAPAVDisplayableObject@@QAPAV1@0PAPAV1@AAV?$allocator@PAVDisplayableObject@@@0@@Z 004400ad f   CrimsonWasteland2.obj
 0001:0003f0e0       __unwindfunclet$??$_Uninitialized_value_construct_n@V?$allocator@PAVDisplayableObject@@@std@@@std@@YAPAPAVDisplayableObject@@PAPAV1@IAAV?$allocator@PAVDisplayableObject@@@0@@Z$0 004400e0 f   CrimsonWasteland2.obj
 0001:0003f0ed       __ehhandler$??$_Uninitialized_value_construct_n@V?$allocator@PAVDisplayableObject@@@std@@@std@@YAPAPAVDisplayableObject@@PAPAV1@IAAV?$allocator@PAVDisplayableObject@@@0@@Z 004400ed f   CrimsonWasteland2.obj
 0001:0003f120       __unwindfunclet$??$find@V?$_Vector_iterator@V?$_Vector_val@U?$_Simple_types@PAVDisplayableObject@@@std@@@std@@@std@@PAVDisplayableObject@@@std@@YA?AV?$_Vector_iterator@V?$_Vector_val@U?$_Simple_types@PAVDisplayableObject@@@std@@@std@@@0@V10@V10@ABQAVDisplayableObject@@@Z$0 00440120 f   CrimsonWasteland2.obj
 0001:0003f128       __unwindfunclet$??$find@V?$_Vector_iterator@V?$_Vector_val@U?$_Simple_types@PAVDisplayableObject@@@std@@@std@@@std@@PAVDisplayableObject@@@std@@YA?AV?$_Vector_iterator@V?$_Vector_val@U?$_Simple_types@PAVDisplayableObject@@@std@@@std@@@0@V10@V10@ABQAVDisplayableObject@@@Z$1 00440128 f   CrimsonWasteland2.obj
 0001:0003f135       __ehhandler$??$find@V?$_Vector_iterator@V?$_Vector_val@U?$_Simple_types@PAVDisplayableObject@@@std@@@std@@@std@@PAVDisplayableObject@@@std@@YA?AV?$_Vector_iterator@V?$_Vector_val@U?$_Simple_types@PAVDisplayableObject@@@std@@@std@@@0@V10@V10@ABQAVDisplayableObject@@@Z 00440135 f   CrimsonWasteland2.obj
 0001:0003f160       __unwindfunclet$??$find@V?$_Vector_iterator@V?$_Vector_val@U?$_Simple_types@V?$basic_string@DU?$char_traits@D@std@@V?$allocator@D@2@@std@@@std@@@std@@@std@@V?$basic_string@DU?$char_traits@D@std@@V?$allocator@D@2@@2@@std@@YA?AV?$_Vector_iterator@V?$_Vector_val@U?$_Simple_types@V?$basic_string@DU?$char_traits@D@std@@V?$allocator@D@2@@std@@@std@@@std@@@0@V10@V10@ABV?$basic_string@DU?$char_traits@D@std@@V?$allocator@D@2@@0@@Z$0 00440160 f   CrimsonWasteland2.obj
 0001:0003f168       __unwindfunclet$??$find@V?$_Vector_iterator@V?$_Vector_val@U?$_Simple_types@V?$basic_string@DU?$char_traits@D@std@@V?$allocator@D@2@@std@@@std@@@std@@@std@@V?$basic_string@DU?$char_traits@D@std@@V?$allocator@D@2@@2@@std@@YA?AV?$_Vector_iterator@V?$_Vector_val@U?$_Simple_types@V?$basic_string@DU?$char_traits@D@std@@V?$allocator@D@2@@std@@@std@@@std@@@0@V10@V10@ABV?$basic_string@DU?$char_traits@D@std@@V?$allocator@D@2@@0@@Z$1 00440168 f   CrimsonWasteland2.obj
 0001:0003f175       __ehhandler$??$find@V?$_Vector_iterator@V?$_Vector_val@U?$_Simple_types@V?$basic_string@DU?$char_traits@D@std@@V?$allocator@D@2@@std@@@std@@@std@@@std@@V?$basic_string@DU?$char_traits@D@std@@V?$allocator@D@2@@2@@std@@YA?AV?$_Vector_iterator@V?$_Vector_val@U?$_Simple_types@V?$basic_string@DU?$char_traits@D@std@@V?$allocator@D@2@@std@@@std@@@std@@@0@V10@V10@ABV?$basic_string@DU?$char_traits@D@std@@V?$allocator@D@2@@0@@Z 00440175 f   CrimsonWasteland2.obj
 0001:0003f1a0       __unwindfunclet$??0?$_Tree_temp_node_alloc@V?$allocator@U?$_Tree_node@U?$pair@$$CBV?$basic_string@DU?$char_traits@D@std@@V?$allocator@D@2@@std@@V?$shared_ptr@VRawImageData@@@2@@std@@PAX@std@@@std@@@std@@QAE@AAV?$allocator@U?$_Tree_node@U?$pair@$$CBV?$basic_string@DU?$char_traits@D@std@@V?$allocator@D@2@@std@@V?$shared_ptr@VRawImageData@@@2@@std@@PAX@std@@@1@@Z$0 004401a0 f   CrimsonWasteland2.obj
 0001:0003f1ad       __ehhandler$??0?$_Tree_temp_node_alloc@V?$allocator@U?$_Tree_node@U?$pair@$$CBV?$basic_string@DU?$char_traits@D@std@@V?$allocator@D@2@@std@@V?$shared_ptr@VRawImageData@@@2@@std@@PAX@std@@@std@@@std@@QAE@AAV?$allocator@U?$_Tree_node@U?$pair@$$CBV?$basic_string@DU?$char_traits@D@std@@V?$allocator@D@2@@std@@V?$shared_ptr@VRawImageData@@@2@@std@@PAX@std@@@1@@Z 004401ad f   CrimsonWasteland2.obj
 0001:0003f1e0       __unwindfunclet$??0?$_Tree_temp_node_alloc@V?$allocator@U?$_Tree_node@U?$pair@$$CBV?$basic_string@DU?$char_traits@D@std@@V?$allocator@D@2@@std@@V?$weak_ptr@VRawImageData@@@2@@std@@PAX@std@@@std@@@std@@QAE@AAV?$allocator@U?$_Tree_node@U?$pair@$$CBV?$basic_string@DU?$char_traits@D@std@@V?$allocator@D@2@@std@@V?$weak_ptr@VRawImageData@@@2@@std@@PAX@std@@@1@@Z$0 004401e0 f   CrimsonWasteland2.obj
 0001:0003f1ed       __ehhandler$??0?$_Tree_temp_node_alloc@V?$allocator@U?$_Tree_node@U?$pair@$$CBV?$basic_string@DU?$char_traits@D@std@@V?$allocator@D@2@@std@@V?$weak_ptr@VRawImageData@@@2@@std@@PAX@std@@@std@@@std@@QAE@AAV?$allocator@U?$_Tree_node@U?$pair@$$CBV?$basic_string@DU?$char_traits@D@std@@V?$allocator@D@2@@std@@V?$weak_ptr@VRawImageData@@@2@@std@@PAX@std@@@1@@Z 004401ed f   CrimsonWasteland2.obj
 0001:0003f220       __ehhandler$??0?$basic_string@DU?$char_traits@D@std@@V?$allocator@D@2@@std@@QAE@$$QAV01@@Z 00440220 f   CrimsonWasteland2.obj
 0001:0003f250       __unwindfunclet$??0?$basic_string@DU?$char_traits@D@std@@V?$allocator@D@2@@std@@QAE@ABV01@@Z$0 00440250 f   CrimsonWasteland2.obj
 0001:0003f25d       __ehhandler$??0?$basic_string@DU?$char_traits@D@std@@V?$allocator@D@2@@std@@QAE@ABV01@@Z 0044025d f   CrimsonWasteland2.obj
 0001:0003f290       __unwindfunclet$??0?$basic_string@DU?$char_traits@D@std@@V?$allocator@D@2@@std@@QAE@QBD@Z$0 00440290 f   CrimsonWasteland2.obj
 0001:0003f29d       __ehhandler$??0?$basic_string@DU?$char_traits@D@std@@V?$allocator@D@2@@std@@QAE@QBD@Z 0044029d f   CrimsonWasteland2.obj
 0001:0003f2d0       __unwindfunclet$??0?$basic_string@DU?$char_traits@D@std@@V?$allocator@D@2@@std@@QAE@U_String_constructor_concat_tag@1@ABV01@QBDI2I@Z$0 004402d0 f   CrimsonWasteland2.obj
 0001:0003f2d8       __unwindfunclet$??0?$basic_string@DU?$char_traits@D@std@@V?$allocator@D@2@@std@@QAE@U_String_constructor_concat_tag@1@ABV01@QBDI2I@Z$1 004402d8 f   CrimsonWasteland2.obj
 0001:0003f2e5       __ehhandler$??0?$basic_string@DU?$char_traits@D@std@@V?$allocator@D@2@@std@@QAE@U_String_constructor_concat_tag@1@ABV01@QBDI2I@Z 004402e5 f   CrimsonWasteland2.obj
 0001:0003f310       __unwindfunclet$??0Bullet@@QAE@PAVBaseEngine@@HHV?$basic_string@DU?$char_traits@D@std@@V?$allocator@D@2@@std@@@Z$0 00440310 f   CrimsonWasteland2.obj
 0001:0003f318       __unwindfunclet$??0Bullet@@QAE@PAVBaseEngine@@HHV?$basic_string@DU?$char_traits@D@std@@V?$allocator@D@2@@std@@@Z$1 00440318 f   CrimsonWasteland2.obj
 0001:0003f320       __unwindfunclet$??0Bullet@@QAE@PAVBaseEngine@@HHV?$basic_string@DU?$char_traits@D@std@@V?$allocator@D@2@@std@@@Z$2 00440320 f   CrimsonWasteland2.obj
 0001:0003f330       __ehhandler$??0Bullet@@QAE@PAVBaseEngine@@HHV?$basic_string@DU?$char_traits@D@std@@V?$allocator@D@2@@std@@@Z 00440330 f   CrimsonWasteland2.obj
 0001:0003f360       __unwindfunclet$??0ClickableImageObject@@QAE@PAVBaseEngine@@V?$basic_string@DU?$char_traits@D@std@@V?$allocator@D@2@@std@@HH_N@Z$0 00440360 f   CrimsonWasteland2.obj
 0001:0003f368       __unwindfunclet$??0ClickableImageObject@@QAE@PAVBaseEngine@@V?$basic_string@DU?$char_traits@D@std@@V?$allocator@D@2@@std@@HH_N@Z$1 00440368 f   CrimsonWasteland2.obj
 0001:0003f370       __unwindfunclet$??0ClickableImageObject@@QAE@PAVBaseEngine@@V?$basic_string@DU?$char_traits@D@std@@V?$allocator@D@2@@std@@HH_N@Z$2 00440370 f   CrimsonWasteland2.obj
 0001:0003f378       __unwindfunclet$??0ClickableImageObject@@QAE@PAVBaseEngine@@V?$basic_string@DU?$char_traits@D@std@@V?$allocator@D@2@@std@@HH_N@Z$3 00440378 f   CrimsonWasteland2.obj
 0001:0003f388       __ehhandler$??0ClickableImageObject@@QAE@PAVBaseEngine@@V?$basic_string@DU?$char_traits@D@std@@V?$allocator@D@2@@std@@HH_N@Z 00440388 f   CrimsonWasteland2.obj
 0001:0003f3c0       __unwindfunclet$??0CrimsonWasteland2TileManager@@QAE@XZ$0 004403c0 f   CrimsonWasteland2.obj
 0001:0003f3c8       __unwindfunclet$??0CrimsonWasteland2TileManager@@QAE@XZ$1 004403c8 f   CrimsonWasteland2.obj
 0001:0003f3d3       __unwindfunclet$??0CrimsonWasteland2TileManager@@QAE@XZ$2 004403d3 f   CrimsonWasteland2.obj
 0001:0003f3de       __unwindfunclet$??0CrimsonWasteland2TileManager@@QAE@XZ$3 004403de f   CrimsonWasteland2.obj
 0001:0003f3e9       __unwindfunclet$??0CrimsonWasteland2TileManager@@QAE@XZ$4 004403e9 f   CrimsonWasteland2.obj
 0001:0003f3f4       __unwindfunclet$??0CrimsonWasteland2TileManager@@QAE@XZ$5 004403f4 f   CrimsonWasteland2.obj
 0001:0003f3ff       __unwindfunclet$??0CrimsonWasteland2TileManager@@QAE@XZ$6 004403ff f   CrimsonWasteland2.obj
 0001:0003f40a       __unwindfunclet$??0CrimsonWasteland2TileManager@@QAE@XZ$7 0044040a f   CrimsonWasteland2.obj
 0001:0003f41d       __ehhandler$??0CrimsonWasteland2TileManager@@QAE@XZ 0044041d f   CrimsonWasteland2.obj
 0001:0003f460       __unwindfunclet$??0ImageManager@@QAE@XZ$0 00440460 f   CrimsonWasteland2.obj
 0001:0003f46d       __ehhandler$??0ImageManager@@QAE@XZ 0044046d f   CrimsonWasteland2.obj
 0001:0003f4a0       __unwindfunclet$??0ImageObject@@QAE@PAVBaseEngine@@V?$basic_string@DU?$char_traits@D@std@@V?$allocator@D@2@@std@@HH_N@Z$0 004404a0 f   CrimsonWasteland2.obj
 0001:0003f4a8       __unwindfunclet$??0ImageObject@@QAE@PAVBaseEngine@@V?$basic_string@DU?$char_traits@D@std@@V?$allocator@D@2@@std@@HH_N@Z$1 004404a8 f   CrimsonWasteland2.obj
 0001:0003f4b0       __unwindfunclet$??0ImageObject@@QAE@PAVBaseEngine@@V?$basic_string@DU?$char_traits@D@std@@V?$allocator@D@2@@std@@HH_N@Z$2 004404b0 f   CrimsonWasteland2.obj
 0001:0003f4b8       __unwindfunclet$??0ImageObject@@QAE@PAVBaseEngine@@V?$basic_string@DU?$char_traits@D@std@@V?$allocator@D@2@@std@@HH_N@Z$3 004404b8 f   CrimsonWasteland2.obj
 0001:0003f4c8       __ehhandler$??0ImageObject@@QAE@PAVBaseEngine@@V?$basic_string@DU?$char_traits@D@std@@V?$allocator@D@2@@std@@HH_N@Z 004404c8 f   CrimsonWasteland2.obj
 0001:0003f500       __unwindfunclet$??0Lives@@QAE@PAVBaseEngine@@PAVCrimsonWasteland2@@H@Z$0 00440500 f   CrimsonWasteland2.obj
 0001:0003f508       __unwindfunclet$??0Lives@@QAE@PAVBaseEngine@@PAVCrimsonWasteland2@@H@Z$1 00440508 f   CrimsonWasteland2.obj
 0001:0003f513       __unwindfunclet$??0Lives@@QAE@PAVBaseEngine@@PAVCrimsonWasteland2@@H@Z$2 00440513 f   CrimsonWasteland2.obj
 0001:0003f51e       __unwindfunclet$??0Lives@@QAE@PAVBaseEngine@@PAVCrimsonWasteland2@@H@Z$3 0044051e f   CrimsonWasteland2.obj
 0001:0003f526       __unwindfunclet$??0Lives@@QAE@PAVBaseEngine@@PAVCrimsonWasteland2@@H@Z$5 00440526 f   CrimsonWasteland2.obj
 0001:0003f533       __ehhandler$??0Lives@@QAE@PAVBaseEngine@@PAVCrimsonWasteland2@@H@Z 00440533 f   CrimsonWasteland2.obj
 0001:0003f570       __unwindfunclet$??0Player@@QAE@PAVBaseEngine@@HH_N@Z$0 00440570 f   CrimsonWasteland2.obj
 0001:0003f578       __unwindfunclet$??0Player@@QAE@PAVBaseEngine@@HH_N@Z$1 00440578 f   CrimsonWasteland2.obj
 0001:0003f588       __ehhandler$??0Player@@QAE@PAVBaseEngine@@HH_N@Z 00440588 f   CrimsonWasteland2.obj
 0001:0003f5c0       __unwindfunclet$??0RawImageData@@QAE@V?$basic_string@DU?$char_traits@D@std@@V?$allocator@D@2@@std@@@Z$0 004405c0 f   CrimsonWasteland2.obj
 0001:0003f5cd       __ehhandler$??0RawImageData@@QAE@V?$basic_string@DU?$char_traits@D@std@@V?$allocator@D@2@@std@@@Z 004405cd f   CrimsonWasteland2.obj
 0001:0003f600       __unwindfunclet$??0TextBoxObject@@QAE@PAVBaseEngine@@HH@Z$0 00440600 f   CrimsonWasteland2.obj
 0001:0003f608       __unwindfunclet$??0TextBoxObject@@QAE@PAVBaseEngine@@HH@Z$1 00440608 f   CrimsonWasteland2.obj
 0001:0003f618       __ehhandler$??0TextBoxObject@@QAE@PAVBaseEngine@@HH@Z 00440618 f   CrimsonWasteland2.obj
 0001:0003f650       __unwindfunclet$??0Zombie@@QAE@PAVBaseEngine@@PAVPlayer@@HH_N@Z$0 00440650 f   CrimsonWasteland2.obj
 0001:0003f65d       __ehhandler$??0Zombie@@QAE@PAVBaseEngine@@PAVPlayer@@HH_N@Z 0044065d f   CrimsonWasteland2.obj
 0001:0003f690       __unwindfunclet$??0sentry@?$basic_ostream@DU?$char_traits@D@std@@@std@@QAE@AAV12@@Z$0 00440690 f   CrimsonWasteland2.obj
 0001:0003f69d       __ehhandler$??0sentry@?$basic_ostream@DU?$char_traits@D@std@@@std@@QAE@AAV12@@Z 0044069d f   CrimsonWasteland2.obj
 0001:0003f6d0       __ehhandler$??1?$_Alloc_construct_ptr@V?$allocator@U?$_Tree_node@U?$pair@$$CBV?$basic_string@DU?$char_traits@D@std@@V?$allocator@D@2@@std@@V?$shared_ptr@VRawImageData@@@2@@std@@PAX@std@@@std@@@std@@QAE@XZ 004406d0 f   CrimsonWasteland2.obj
 0001:0003f700       __ehhandler$??1?$_Alloc_construct_ptr@V?$allocator@U?$_Tree_node@U?$pair@$$CBV?$basic_string@DU?$char_traits@D@std@@V?$allocator@D@2@@std@@V?$weak_ptr@VRawImageData@@@2@@std@@PAX@std@@@std@@@std@@QAE@XZ 00440700 f   CrimsonWasteland2.obj
 0001:0003f730       __ehhandler$??1?$_Tree_temp_node@V?$allocator@U?$_Tree_node@U?$pair@$$CBV?$basic_string@DU?$char_traits@D@std@@V?$allocator@D@2@@std@@V?$shared_ptr@VRawImageData@@@2@@std@@PAX@std@@@std@@@std@@QAE@XZ 00440730 f   CrimsonWasteland2.obj
 0001:0003f760       __ehhandler$??1?$_Tree_temp_node@V?$allocator@U?$_Tree_node@U?$pair@$$CBV?$basic_string@DU?$char_traits@D@std@@V?$allocator@D@2@@std@@V?$weak_ptr@VRawImageData@@@2@@std@@PAX@std@@@std@@@std@@QAE@XZ 00440760 f   CrimsonWasteland2.obj
 0001:0003f790       __ehhandler$??1RawImageData@@QAE@XZ 00440790 f   CrimsonWasteland2.obj
 0001:0003f7c0       __ehhandler$??1_Sentry_base@?$basic_ostream@DU?$char_traits@D@std@@@std@@QAE@XZ 004407c0 f   CrimsonWasteland2.obj
 0001:0003f7f0       __unwindfunclet$?_Alloc_sentinel_and_proxy@?$_Tree@V?$_Tmap_traits@V?$basic_string@DU?$char_traits@D@std@@V?$allocator@D@2@@std@@V?$shared_ptr@VRawImageData@@@2@U?$less@V?$basic_string@DU?$char_traits@D@std@@V?$allocator@D@2@@std@@@2@V?$allocator@U?$pair@$$CBV?$basic_string@DU?$char_traits@D@std@@V?$allocator@D@2@@std@@V?$shared_ptr@VRawImageData@@@2@@std@@@2@$0A@@std@@@std@@IAEXXZ$0 004407f0 f   CrimsonWasteland2.obj
 0001:0003f7fd       __ehhandler$?_Alloc_sentinel_and_proxy@?$_Tree@V?$_Tmap_traits@V?$basic_string@DU?$char_traits@D@std@@V?$allocator@D@2@@std@@V?$shared_ptr@VRawImageData@@@2@U?$less@V?$basic_string@DU?$char_traits@D@std@@V?$allocator@D@2@@std@@@2@V?$allocator@U?$pair@$$CBV?$basic_string@DU?$char_traits@D@std@@V?$allocator@D@2@@std@@V?$shared_ptr@VRawImageData@@@2@@std@@@2@$0A@@std@@@std@@IAEXXZ 004407fd f   CrimsonWasteland2.obj
 0001:0003f830       __unwindfunclet$?_Alloc_sentinel_and_proxy@?$_Tree@V?$_Tmap_traits@V?$basic_string@DU?$char_traits@D@std@@V?$allocator@D@2@@std@@V?$weak_ptr@VRawImageData@@@2@U?$less@V?$basic_string@DU?$char_traits@D@std@@V?$allocator@D@2@@std@@@2@V?$allocator@U?$pair@$$CBV?$basic_string@DU?$char_traits@D@std@@V?$allocator@D@2@@std@@V?$weak_ptr@VRawImageData@@@2@@std@@@2@$0A@@std@@@std@@IAEXXZ$0 00440830 f   CrimsonWasteland2.obj
 0001:0003f83d       __ehhandler$?_Alloc_sentinel_and_proxy@?$_Tree@V?$_Tmap_traits@V?$basic_string@DU?$char_traits@D@std@@V?$allocator@D@2@@std@@V?$weak_ptr@VRawImageData@@@2@U?$less@V?$basic_string@DU?$char_traits@D@std@@V?$allocator@D@2@@std@@@2@V?$allocator@U?$pair@$$CBV?$basic_string@DU?$char_traits@D@std@@V?$allocator@D@2@@std@@V?$weak_ptr@VRawImageData@@@2@@std@@@2@$0A@@std@@@std@@IAEXXZ 0044083d f   CrimsonWasteland2.obj
 0001:0003f870       __ehhandler$?_Deallocate_for_capacity@?$basic_string@DU?$char_traits@D@std@@V?$allocator@D@2@@std@@CAXAAV?$allocator@D@2@QADI@Z 00440870 f   CrimsonWasteland2.obj
 0001:0003f8a0       __unwindfunclet$?_Orphan_range_locked@?$vector@PAVDisplayableObject@@V?$allocator@PAVDisplayableObject@@@std@@@std@@ABEXPAPAVDisplayableObject@@0@Z$0 004408a0 f   CrimsonWasteland2.obj
 0001:0003f8ae       __ehhandler$?_Orphan_range_locked@?$vector@PAVDisplayableObject@@V?$allocator@PAVDisplayableObject@@@std@@@std@@ABEXPAPAVDisplayableObject@@0@Z 004408ae f   CrimsonWasteland2.obj
 0001:0003f8e0       __ehhandler$?_Tidy@?$vector@V?$basic_string@DU?$char_traits@D@std@@V?$allocator@D@2@@std@@V?$allocator@V?$basic_string@DU?$char_traits@D@std@@V?$allocator@D@2@@std@@@2@@std@@AAEXXZ 004408e0 f   CrimsonWasteland2.obj
 0001:0003f910       __ehhandler$?erase@?$vector@PAVDisplayableObject@@V?$allocator@PAVDisplayableObject@@@std@@@std@@QAE?AV?$_Vector_iterator@V?$_Vector_val@U?$_Simple_types@PAVDisplayableObject@@@std@@@std@@@2@V?$_Vector_const_iterator@V?$_Vector_val@U?$_Simple_types@PAVDisplayableObject@@@std@@@std@@@2@@Z 00440910 f   CrimsonWasteland2.obj
 0001:0003f940       __unwindfunclet$?get@ImageManager@@SAPAV1@XZ$0 00440940 f   CrimsonWasteland2.obj
 0001:0003f954       __ehhandler$?get@ImageManager@@SAPAV1@XZ 00440954 f   CrimsonWasteland2.obj
 0001:0003f980       __unwindfunclet$?getImagePtrbyURL@ImageManager@@QAE?AV?$shared_ptr@VRawImageData@@@std@@V?$basic_string@DU?$char_traits@D@std@@V?$allocator@D@2@@3@_N1@Z$0 00440980 f   CrimsonWasteland2.obj
 0001:0003f988       __unwindfunclet$?getImagePtrbyURL@ImageManager@@QAE?AV?$shared_ptr@VRawImageData@@@std@@V?$basic_string@DU?$char_traits@D@std@@V?$allocator@D@2@@3@_N1@Z$1 00440988 f   CrimsonWasteland2.obj
 0001:0003f990       __unwindfunclet$?getImagePtrbyURL@ImageManager@@QAE?AV?$shared_ptr@VRawImageData@@@std@@V?$basic_string@DU?$char_traits@D@std@@V?$allocator@D@2@@3@_N1@Z$9 00440990 f   CrimsonWasteland2.obj
 0001:0003f998       __unwindfunclet$?getImagePtrbyURL@ImageManager@@QAE?AV?$shared_ptr@VRawImageData@@@std@@V?$basic_string@DU?$char_traits@D@std@@V?$allocator@D@2@@3@_N1@Z$10 00440998 f   CrimsonWasteland2.obj
 0001:0003f9a3       __unwindfunclet$?getImagePtrbyURL@ImageManager@@QAE?AV?$shared_ptr@VRawImageData@@@std@@V?$basic_string@DU?$char_traits@D@std@@V?$allocator@D@2@@3@_N1@Z$11 004409a3 f   CrimsonWasteland2.obj
 0001:0003f9ab       __unwindfunclet$?getImagePtrbyURL@ImageManager@@QAE?AV?$shared_ptr@VRawImageData@@@std@@V?$basic_string@DU?$char_traits@D@std@@V?$allocator@D@2@@3@_N1@Z$13 004409ab f   CrimsonWasteland2.obj
 0001:0003f9b8       __ehhandler$?getImagePtrbyURL@ImageManager@@QAE?AV?$shared_ptr@VRawImageData@@@std@@V?$basic_string@DU?$char_traits@D@std@@V?$allocator@D@2@@3@_N1@Z 004409b8 f   CrimsonWasteland2.obj
 0001:0003fa00       __unwindfunclet$?getImagebyURL@ImageManager@@QAE?AVSimpleImage@@V?$basic_string@DU?$char_traits@D@std@@V?$allocator@D@2@@std@@_N1@Z$0 00440a00 f   CrimsonWasteland2.obj
 0001:0003fa0d       __ehhandler$?getImagebyURL@ImageManager@@QAE?AVSimpleImage@@V?$basic_string@DU?$char_traits@D@std@@V?$allocator@D@2@@std@@_N1@Z 00440a0d f   CrimsonWasteland2.obj
 0001:0003fa40       __unwindfunclet$?handleShooting@Player@@QAEXH@Z$0 00440a40 f   CrimsonWasteland2.obj
 0001:0003fa4f       __unwindfunclet$?handleShooting@Player@@QAEXH@Z$1 00440a4f f   CrimsonWasteland2.obj
 0001:0003fa5c       __ehhandler$?handleShooting@Player@@QAEXH@Z 00440a5c f   CrimsonWasteland2.obj
 0001:0003fa90       __unwindfunclet$?loadAsNew@ImageManager@@QAE?AV?$shared_ptr@VRawImageData@@@std@@V?$basic_string@DU?$char_traits@D@std@@V?$allocator@D@2@@3@@Z$0 00440a90 f   CrimsonWasteland2.obj
 0001:0003fa98       __unwindfunclet$?loadAsNew@ImageManager@@QAE?AV?$shared_ptr@VRawImageData@@@std@@V?$basic_string@DU?$char_traits@D@std@@V?$allocator@D@2@@3@@Z$1 00440a98 f   CrimsonWasteland2.obj
 0001:0003faac       __ehhandler$?loadAsNew@ImageManager@@QAE?AV?$shared_ptr@VRawImageData@@@std@@V?$basic_string@DU?$char_traits@D@std@@V?$allocator@D@2@@3@@Z 00440aac f   CrimsonWasteland2.obj
 0001:0003fae0       __unwindfunclet$?loadImage@ImageManager@@SA?AVSimpleImage@@V?$basic_string@DU?$char_traits@D@std@@V?$allocator@D@2@@std@@_N@Z$0 00440ae0 f   CrimsonWasteland2.obj
 0001:0003fae8       __unwindfunclet$?loadImage@ImageManager@@SA?AVSimpleImage@@V?$basic_string@DU?$char_traits@D@std@@V?$allocator@D@2@@std@@_N@Z$1 00440ae8 f   CrimsonWasteland2.obj
 0001:0003faf5       __ehhandler$?loadImage@ImageManager@@SA?AVSimpleImage@@V?$basic_string@DU?$char_traits@D@std@@V?$allocator@D@2@@std@@_N@Z 00440af5 f   CrimsonWasteland2.obj
 0001:0003fb20       __unwindfunclet$?loadImage@RawImageData@@QAE_NV?$basic_string@DU?$char_traits@D@std@@V?$allocator@D@2@@std@@HHHHH_N@Z$0 00440b20 f   CrimsonWasteland2.obj
 0001:0003fb2d       __ehhandler$?loadImage@RawImageData@@QAE_NV?$basic_string@DU?$char_traits@D@std@@V?$allocator@D@2@@std@@HHHHH_N@Z 00440b2d f   CrimsonWasteland2.obj
 0001:0003fb60       __unwindfunclet$?setAllObjectsVisible@DisplayableObjectContainer@@QBEX_N@Z$0 00440b60 f   CrimsonWasteland2.obj
 0001:0003fb6d       __ehhandler$?setAllObjectsVisible@DisplayableObjectContainer@@QBEX_N@Z 00440b6d f   CrimsonWasteland2.obj
 0001:0003fba0       __unwindfunclet$?virtDraw@Lives@@UAEXXZ$0 00440ba0 f   CrimsonWasteland2.obj
 0001:0003fbad       __ehhandler$?virtDraw@Lives@@UAEXXZ 00440bad f   CrimsonWasteland2.obj
 0001:0003fbe0       __unwindfunclet$?virtDraw@Player@@UAEXXZ$0 00440be0 f   CrimsonWasteland2.obj
 0001:0003fbe8       __unwindfunclet$?virtDraw@Player@@UAEXXZ$1 00440be8 f   CrimsonWasteland2.obj
 0001:0003fbf3       __unwindfunclet$?virtDraw@Player@@UAEXXZ$3 00440bf3 f   CrimsonWasteland2.obj
 0001:0003fbfb       __unwindfunclet$?virtDraw@Player@@UAEXXZ$5 00440bfb f   CrimsonWasteland2.obj
 0001:0003fc03       __unwindfunclet$?virtDraw@Player@@UAEXXZ$7 00440c03 f   CrimsonWasteland2.obj
 0001:0003fc0b       __unwindfunclet$?virtDraw@Player@@UAEXXZ$9 00440c0b f   CrimsonWasteland2.obj
 0001:0003fc13       __unwindfunclet$?virtDraw@Player@@UAEXXZ$11 00440c13 f   CrimsonWasteland2.obj
 0001:0003fc20       __ehhandler$?virtDraw@Player@@UAEXXZ 00440c20 f   CrimsonWasteland2.obj
 0001:0003fc60       __unwindfunclet$?virtDraw@Zombie@@UAEXXZ$0 00440c60 f   CrimsonWasteland2.obj
 0001:0003fc68       __unwindfunclet$?virtDraw@Zombie@@UAEXXZ$1 00440c68 f   CrimsonWasteland2.obj
 0001:0003fc75       __ehhandler$?virtDraw@Zombie@@UAEXXZ 00440c75 f   CrimsonWasteland2.obj
 0001:0003fca0       __unwindfunclet$?virtInitialiseObjects@DraggingDemo@@UAEHXZ$0 00440ca0 f   DraggingDemo.obj
 0001:0003fcaf       __unwindfunclet$?virtInitialiseObjects@DraggingDemo@@UAEHXZ$1 00440caf f   DraggingDemo.obj
 0001:0003fcbe       __unwindfunclet$?virtInitialiseObjects@DraggingDemo@@UAEHXZ$2 00440cbe f   DraggingDemo.obj
 0001:0003fccd       __unwindfunclet$?virtInitialiseObjects@DraggingDemo@@UAEHXZ$3 00440ccd f   DraggingDemo.obj
 0001:0003fcdc       __unwindfunclet$?virtInitialiseObjects@DraggingDemo@@UAEHXZ$5 00440cdc f   DraggingDemo.obj
 0001:0003fcf0       __ehhandler$?virtInitialiseObjects@DraggingDemo@@UAEHXZ 00440cf0 f   DraggingDemo.obj
 0001:0003fd30       __unwindfunclet$??0DragableImageObject@@QAE@HHPAVBaseEngine@@V?$basic_string@DU?$char_traits@D@std@@V?$allocator@D@2@@std@@_N2@Z$0 00440d30 f   DraggingDemo.obj
 0001:0003fd38       __unwindfunclet$??0DragableImageObject@@QAE@HHPAVBaseEngine@@V?$basic_string@DU?$char_traits@D@std@@V?$allocator@D@2@@std@@_N2@Z$1 00440d38 f   DraggingDemo.obj
 0001:0003fd40       __unwindfunclet$??0DragableImageObject@@QAE@HHPAVBaseEngine@@V?$basic_string@DU?$char_traits@D@std@@V?$allocator@D@2@@std@@_N2@Z$2 00440d40 f   DraggingDemo.obj
 0001:0003fd48       __unwindfunclet$??0DragableImageObject@@QAE@HHPAVBaseEngine@@V?$basic_string@DU?$char_traits@D@std@@V?$allocator@D@2@@std@@_N2@Z$3 00440d48 f   DraggingDemo.obj
 0001:0003fd58       __ehhandler$??0DragableImageObject@@QAE@HHPAVBaseEngine@@V?$basic_string@DU?$char_traits@D@std@@V?$allocator@D@2@@std@@_N2@Z 00440d58 f   DraggingDemo.obj
 0001:0003fd90       __unwindfunclet$??0DragableObject@@QAE@HHPAVBaseEngine@@HH_N1@Z$0 00440d90 f   DraggingDemo.obj
 0001:0003fd9d       __ehhandler$??0DragableObject@@QAE@HHPAVBaseEngine@@HH_N1@Z 00440d9d f   DraggingDemo.obj
 0001:0003fdd0       __unwindfunclet$??0DragableObject@@QAE@PAVBaseEngine@@HH_N1@Z$0 00440dd0 f   DraggingDemo.obj
 0001:0003fddd       __ehhandler$??0DragableObject@@QAE@PAVBaseEngine@@HH_N1@Z 00440ddd f   DraggingDemo.obj
 0001:0003fe10       __unwindfunclet$??0ImageObject@@QAE@HHPAVBaseEngine@@V?$basic_string@DU?$char_traits@D@std@@V?$allocator@D@2@@std@@_N2@Z$0 00440e10 f   DraggingDemo.obj
 0001:0003fe18       __unwindfunclet$??0ImageObject@@QAE@HHPAVBaseEngine@@V?$basic_string@DU?$char_traits@D@std@@V?$allocator@D@2@@std@@_N2@Z$1 00440e18 f   DraggingDemo.obj
 0001:0003fe20       __unwindfunclet$??0ImageObject@@QAE@HHPAVBaseEngine@@V?$basic_string@DU?$char_traits@D@std@@V?$allocator@D@2@@std@@_N2@Z$2 00440e20 f   DraggingDemo.obj
 0001:0003fe28       __unwindfunclet$??0ImageObject@@QAE@HHPAVBaseEngine@@V?$basic_string@DU?$char_traits@D@std@@V?$allocator@D@2@@std@@_N2@Z$3 00440e28 f   DraggingDemo.obj
 0001:0003fe38       __ehhandler$??0ImageObject@@QAE@HHPAVBaseEngine@@V?$basic_string@DU?$char_traits@D@std@@V?$allocator@D@2@@std@@_N2@Z 00440e38 f   DraggingDemo.obj
 0001:0003fe70       __unwindfunclet$??0FlashingDemo@@QAE@XZ$0 00440e70 f   FlashingDemo.obj
 0001:0003fe78       __unwindfunclet$??0FlashingDemo@@QAE@XZ$1 00440e78 f   FlashingDemo.obj
 0001:0003fe86       __unwindfunclet$??0FlashingDemo@@QAE@XZ$2 00440e86 f   FlashingDemo.obj
 0001:0003fe99       __ehhandler$??0FlashingDemo@@QAE@XZ 00440e99 f   FlashingDemo.obj
 0001:0003fed0       __unwindfunclet$?virtInitialiseObjects@ImageMappingDemo@@UAEHXZ$0 00440ed0 f   ImageMappingDemo.obj
 0001:0003fedf       __unwindfunclet$?virtInitialiseObjects@ImageMappingDemo@@UAEHXZ$2 00440edf f   ImageMappingDemo.obj
 0001:0003feee       __unwindfunclet$?virtInitialiseObjects@ImageMappingDemo@@UAEHXZ$4 00440eee f   ImageMappingDemo.obj
 0001:0003fefd       __unwindfunclet$?virtInitialiseObjects@ImageMappingDemo@@UAEHXZ$6 00440efd f   ImageMappingDemo.obj
 0001:0003ff0c       __unwindfunclet$?virtInitialiseObjects@ImageMappingDemo@@UAEHXZ$8 00440f0c f   ImageMappingDemo.obj
 0001:0003ff20       __ehhandler$?virtInitialiseObjects@ImageMappingDemo@@UAEHXZ 00440f20 f   ImageMappingDemo.obj
 0001:0003ff60       __unwindfunclet$??0MappableImageObject@@QAE@PAVImagePixelMapping@@HHPAVBaseEngine@@V?$basic_string@DU?$char_traits@D@std@@V?$allocator@D@2@@std@@_N3@Z$0 00440f60 f   ImageMappingDemo.obj
 0001:0003ff6d       __ehhandler$??0MappableImageObject@@QAE@PAVImagePixelMapping@@HHPAVBaseEngine@@V?$basic_string@DU?$char_traits@D@std@@V?$allocator@D@2@@std@@_N3@Z 00440f6d f   ImageMappingDemo.obj
 0001:0003ffa0       __unwindfunclet$?doProgram@@YAHHQAPAD@Z$0 00440fa0 f   mainfunction.obj
 0001:0003ffb0       __ehhandler$?doProgram@@YAHHQAPAD@Z 00440fb0 f   mainfunction.obj
 0001:0003fff0       __ehhandler$??$_Freenode0@V?$allocator@U?$_Tree_node@U?$pair@$$CBV?$basic_string@DU?$char_traits@D@std@@V?$allocator@D@2@@std@@V?$shared_ptr@VRawImageData@@@2@@std@@PAX@std@@@std@@@?$_Tree_node@U?$pair@$$CBV?$basic_string@DU?$char_traits@D@std@@V?$allocator@D@2@@std@@V?$shared_ptr@VRawImageData@@@2@@std@@PAX@std@@SAXAAV?$allocator@U?$_Tree_node@U?$pair@$$CBV?$basic_string@DU?$char_traits@D@std@@V?$allocator@D@2@@std@@V?$shared_ptr@VRawImageData@@@2@@std@@PAX@std@@@1@PAU01@@Z 00440ff0 f   mainfunction.obj
 0001:00040020       __ehhandler$??$_Freenode@V?$allocator@U?$_Tree_node@U?$pair@$$CBV?$basic_string@DU?$char_traits@D@std@@V?$allocator@D@2@@std@@V?$shared_ptr@VRawImageData@@@2@@std@@PAX@std@@@std@@@?$_Tree_node@U?$pair@$$CBV?$basic_string@DU?$char_traits@D@std@@V?$allocator@D@2@@std@@V?$shared_ptr@VRawImageData@@@2@@std@@PAX@std@@SAXAAV?$allocator@U?$_Tree_node@U?$pair@$$CBV?$basic_string@DU?$char_traits@D@std@@V?$allocator@D@2@@std@@V?$shared_ptr@VRawImageData@@@2@@std@@PAX@std@@@1@PAU01@@Z 00441020 f   mainfunction.obj
 0001:00040050       __unwindfunclet$??0BaseEngine@@QAE@XZ$0 00441050 f   BaseEngine.obj
 0001:00040058       __unwindfunclet$??0BaseEngine@@QAE@XZ$1 00441058 f   BaseEngine.obj
 0001:00040066       __unwindfunclet$??0BaseEngine@@QAE@XZ$2 00441066 f   BaseEngine.obj
 0001:00040079       __ehhandler$??0BaseEngine@@QAE@XZ 00441079 f   BaseEngine.obj
 0001:00040096       __unwindfunclet$?drawAllObjects@BaseEngine@@UAEXXZ$0 00441096 f   BaseEngine.obj
 0001:0004009e       __unwindfunclet$?drawAllObjects@BaseEngine@@UAEXXZ$3 0044109e f   BaseEngine.obj
 0001:000400ab       __ehhandler$?drawAllObjects@BaseEngine@@UAEXXZ 004410ab f   BaseEngine.obj
 0001:000400c8       __unwindfunclet$?updateAllObjects@BaseEngine@@UAEXH@Z$0 004410c8 f   BaseEngine.obj
 0001:000400d0       __unwindfunclet$?updateAllObjects@BaseEngine@@UAEXH@Z$3 004410d0 f   BaseEngine.obj
 0001:000400dd       __ehhandler$?updateAllObjects@BaseEngine@@UAEXH@Z 004410dd f   BaseEngine.obj
 0001:00040130       __unwindfunclet$??$_Construct_n@$$V@?$vector@PAVDisplayableObject@@V?$allocator@PAVDisplayableObject@@@std@@@std@@AAEXI@Z$0 00441130 f   BaseEngine.obj
 0001:00040138       __unwindfunclet$??$_Construct_n@$$V@?$vector@PAVDisplayableObject@@V?$allocator@PAVDisplayableObject@@@std@@@std@@AAEXI@Z$1 00441138 f   BaseEngine.obj
 0001:00040145       __ehhandler$??$_Construct_n@$$V@?$vector@PAVDisplayableObject@@V?$allocator@PAVDisplayableObject@@@std@@@std@@AAEXI@Z 00441145 f   BaseEngine.obj
 0001:00040170       __unwindfunclet$??$for_each@V?$_Vector_iterator@V?$_Vector_val@U?$_Simple_types@PAVDisplayableObject@@@std@@@std@@@std@@V<lambda_2df3d392f0e61298437032b81859b414>@@@std@@YA?AV<lambda_2df3d392f0e61298437032b81859b414>@@V?$_Vector_iterator@V?$_Vector_val@U?$_Simple_types@PAVDisplayableObject@@@std@@@std@@@0@0V1@@Z$0 00441170 f   BaseEngine.obj
 0001:00040178       __unwindfunclet$??$for_each@V?$_Vector_iterator@V?$_Vector_val@U?$_Simple_types@PAVDisplayableObject@@@std@@@std@@@std@@V<lambda_2df3d392f0e61298437032b81859b414>@@@std@@YA?AV<lambda_2df3d392f0e61298437032b81859b414>@@V?$_Vector_iterator@V?$_Vector_val@U?$_Simple_types@PAVDisplayableObject@@@std@@@std@@@0@0V1@@Z$1 00441178 f   BaseEngine.obj
 0001:00040185       __ehhandler$??$for_each@V?$_Vector_iterator@V?$_Vector_val@U?$_Simple_types@PAVDisplayableObject@@@std@@@std@@@std@@V<lambda_2df3d392f0e61298437032b81859b414>@@@std@@YA?AV<lambda_2df3d392f0e61298437032b81859b414>@@V?$_Vector_iterator@V?$_Vector_val@U?$_Simple_types@PAVDisplayableObject@@@std@@@std@@@0@0V1@@Z 00441185 f   BaseEngine.obj
 0001:000401b0       __unwindfunclet$??$for_each@V?$_Vector_iterator@V?$_Vector_val@U?$_Simple_types@PAVDisplayableObject@@@std@@@std@@@std@@V<lambda_578ee31f284bb656f12d1449e2187e67>@@@std@@YA?AV<lambda_578ee31f284bb656f12d1449e2187e67>@@V?$_Vector_iterator@V?$_Vector_val@U?$_Simple_types@PAVDisplayableObject@@@std@@@std@@@0@0V1@@Z$0 004411b0 f   BaseEngine.obj
 0001:000401b8       __unwindfunclet$??$for_each@V?$_Vector_iterator@V?$_Vector_val@U?$_Simple_types@PAVDisplayableObject@@@std@@@std@@@std@@V<lambda_578ee31f284bb656f12d1449e2187e67>@@@std@@YA?AV<lambda_578ee31f284bb656f12d1449e2187e67>@@V?$_Vector_iterator@V?$_Vector_val@U?$_Simple_types@PAVDisplayableObject@@@std@@@std@@@0@0V1@@Z$1 004411b8 f   BaseEngine.obj
 0001:000401c5       __ehhandler$??$for_each@V?$_Vector_iterator@V?$_Vector_val@U?$_Simple_types@PAVDisplayableObject@@@std@@@std@@@std@@V<lambda_578ee31f284bb656f12d1449e2187e67>@@@std@@YA?AV<lambda_578ee31f284bb656f12d1449e2187e67>@@V?$_Vector_iterator@V?$_Vector_val@U?$_Simple_types@PAVDisplayableObject@@@std@@@std@@@0@0V1@@Z 004411c5 f   BaseEngine.obj
 0001:000401f0       __unwindfunclet$??$for_each@V?$_Vector_iterator@V?$_Vector_val@U?$_Simple_types@PAVDisplayableObject@@@std@@@std@@@std@@V<lambda_6f21682acb52fd7b677e7e31753b438b>@@@std@@YA?AV<lambda_6f21682acb52fd7b677e7e31753b438b>@@V?$_Vector_iterator@V?$_Vector_val@U?$_Simple_types@PAVDisplayableObject@@@std@@@std@@@0@0V1@@Z$0 004411f0 f   BaseEngine.obj
 0001:000401f8       __unwindfunclet$??$for_each@V?$_Vector_iterator@V?$_Vector_val@U?$_Simple_types@PAVDisplayableObject@@@std@@@std@@@std@@V<lambda_6f21682acb52fd7b677e7e31753b438b>@@@std@@YA?AV<lambda_6f21682acb52fd7b677e7e31753b438b>@@V?$_Vector_iterator@V?$_Vector_val@U?$_Simple_types@PAVDisplayableObject@@@std@@@std@@@0@0V1@@Z$1 004411f8 f   BaseEngine.obj
 0001:00040205       __ehhandler$??$for_each@V?$_Vector_iterator@V?$_Vector_val@U?$_Simple_types@PAVDisplayableObject@@@std@@@std@@@std@@V<lambda_6f21682acb52fd7b677e7e31753b438b>@@@std@@YA?AV<lambda_6f21682acb52fd7b677e7e31753b438b>@@V?$_Vector_iterator@V?$_Vector_val@U?$_Simple_types@PAVDisplayableObject@@@std@@@std@@@0@0V1@@Z 00441205 f   BaseEngine.obj
 0001:00040230       __unwindfunclet$??$for_each@V?$_Vector_iterator@V?$_Vector_val@U?$_Simple_types@PAVDisplayableObject@@@std@@@std@@@std@@V<lambda_6f91fb9d23638d33f7849f0c1f143eee>@@@std@@YA?AV<lambda_6f91fb9d23638d33f7849f0c1f143eee>@@V?$_Vector_iterator@V?$_Vector_val@U?$_Simple_types@PAVDisplayableObject@@@std@@@std@@@0@0V1@@Z$0 00441230 f   BaseEngine.obj
 0001:00040238       __unwindfunclet$??$for_each@V?$_Vector_iterator@V?$_Vector_val@U?$_Simple_types@PAVDisplayableObject@@@std@@@std@@@std@@V<lambda_6f91fb9d23638d33f7849f0c1f143eee>@@@std@@YA?AV<lambda_6f91fb9d23638d33f7849f0c1f143eee>@@V?$_Vector_iterator@V?$_Vector_val@U?$_Simple_types@PAVDisplayableObject@@@std@@@std@@@0@0V1@@Z$1 00441238 f   BaseEngine.obj
 0001:00040245       __ehhandler$??$for_each@V?$_Vector_iterator@V?$_Vector_val@U?$_Simple_types@PAVDisplayableObject@@@std@@@std@@@std@@V<lambda_6f91fb9d23638d33f7849f0c1f143eee>@@@std@@YA?AV<lambda_6f91fb9d23638d33f7849f0c1f143eee>@@V?$_Vector_iterator@V?$_Vector_val@U?$_Simple_types@PAVDisplayableObject@@@std@@@std@@@0@0V1@@Z 00441245 f   BaseEngine.obj
 0001:00040270       __unwindfunclet$??$for_each@V?$_Vector_iterator@V?$_Vector_val@U?$_Simple_types@PAVDisplayableObject@@@std@@@std@@@std@@V<lambda_a53746b1d833b957fc16129550c0b672>@@@std@@YA?AV<lambda_a53746b1d833b957fc16129550c0b672>@@V?$_Vector_iterator@V?$_Vector_val@U?$_Simple_types@PAVDisplayableObject@@@std@@@std@@@0@0V1@@Z$0 00441270 f   BaseEngine.obj
 0001:00040278       __unwindfunclet$??$for_each@V?$_Vector_iterator@V?$_Vector_val@U?$_Simple_types@PAVDisplayableObject@@@std@@@std@@@std@@V<lambda_a53746b1d833b957fc16129550c0b672>@@@std@@YA?AV<lambda_a53746b1d833b957fc16129550c0b672>@@V?$_Vector_iterator@V?$_Vector_val@U?$_Simple_types@PAVDisplayableObject@@@std@@@std@@@0@0V1@@Z$1 00441278 f   BaseEngine.obj
 0001:00040285       __ehhandler$??$for_each@V?$_Vector_iterator@V?$_Vector_val@U?$_Simple_types@PAVDisplayableObject@@@std@@@std@@@std@@V<lambda_a53746b1d833b957fc16129550c0b672>@@@std@@YA?AV<lambda_a53746b1d833b957fc16129550c0b672>@@V?$_Vector_iterator@V?$_Vector_val@U?$_Simple_types@PAVDisplayableObject@@@std@@@std@@@0@0V1@@Z 00441285 f   BaseEngine.obj
 0001:000402b0       __ehhandler$??1DisplayableObjectContainer@@UAE@XZ 004412b0 f   BaseEngine.obj
 0001:000402e0       __ehhandler$?_Tidy@?$vector@PAVDisplayableObject@@V?$allocator@PAVDisplayableObject@@@std@@@std@@AAEXXZ 004412e0 f   BaseEngine.obj
 0001:00040310       __unwindfunclet$?getFont@FontManager@@QAEPAVFont@@PBDH@Z$0 00441310 f   FontManager.obj
 0001:00040324       __ehhandler$?getFont@FontManager@@QAEPAVFont@@PBDH@Z 00441324 f   FontManager.obj
 0001:00040350       __unwindfunclet$??0MyDemoA@@QAE@XZ$0 00441350 f   MyDemoA.obj
 0001:0004035d       __ehhandler$??0MyDemoA@@QAE@XZ 0044135d f   MyDemoA.obj
 0001:0004037a       __unwindfunclet$?virtSetupBackgroundBuffer@MyDemoA@@UAEXXZ$1 0044137a f   MyDemoA.obj
 0001:00040387       __ehhandler$?virtSetupBackgroundBuffer@MyDemoA@@UAEXXZ 00441387 f   MyDemoA.obj
 0001:000403a4       __unwindfunclet$?virtInitialiseObjects@MyDemoA@@UAEHXZ$0 004413a4 f   MyDemoA.obj
 0001:000403b8       __ehhandler$?virtInitialiseObjects@MyDemoA@@UAEHXZ 004413b8 f   MyDemoA.obj
 0001:00040400       __unwindfunclet$?virtSetupBackgroundBuffer@Psyes9Engine@@UAEXXZ$1 00441400 f   Psyes9Engine.obj
 0001:0004040b       __unwindfunclet$?virtSetupBackgroundBuffer@Psyes9Engine@@UAEXXZ$3 0044140b f   Psyes9Engine.obj
 0001:0004041b       __ehhandler$?virtSetupBackgroundBuffer@Psyes9Engine@@UAEXXZ 0044141b f   Psyes9Engine.obj
 0001:00040445       __unwindfunclet$?virtInitialiseObjects@Psyes9Engine@@UAEHXZ$0 00441445 f   Psyes9Engine.obj
 0001:00040454       __unwindfunclet$?virtInitialiseObjects@Psyes9Engine@@UAEHXZ$1 00441454 f   Psyes9Engine.obj
 0001:00040468       __ehhandler$?virtInitialiseObjects@Psyes9Engine@@UAEHXZ 00441468 f   Psyes9Engine.obj
 0001:000404b0       __unwindfunclet$??0BouncingFish@@QAE@PAVBaseEngine@@HHNNNN@Z$0 004414b0 f   Psyes9Engine.obj
 0001:000404bd       __ehhandler$??0BouncingFish@@QAE@PAVBaseEngine@@HHNNNN@Z 004414bd f   Psyes9Engine.obj
 0001:000404f0       __unwindfunclet$??0BouncingFishObject@@QAE@PAVBaseEngine@@@Z$0 004414f0 f   Psyes9Engine.obj
 0001:000404fd       __ehhandler$??0BouncingFishObject@@QAE@PAVBaseEngine@@@Z 004414fd f   Psyes9Engine.obj
 0001:00040530       __unwindfunclet$?loadImage@BaseEngine@@QAE?AVSimpleImage@@V?$basic_string@DU?$char_traits@D@std@@V?$allocator@D@2@@std@@_N@Z$0 00441530 f   Psyes9Engine.obj
 0001:00040538       __unwindfunclet$?loadImage@BaseEngine@@QAE?AVSimpleImage@@V?$basic_string@DU?$char_traits@D@std@@V?$allocator@D@2@@std@@_N@Z$1 00441538 f   Psyes9Engine.obj
 0001:00040545       __ehhandler$?loadImage@BaseEngine@@QAE?AVSimpleImage@@V?$basic_string@DU?$char_traits@D@std@@V?$allocator@D@2@@std@@_N@Z 00441545 f   Psyes9Engine.obj
 0001:00040570       __unwindfunclet$?virtInitialiseObjects@SimpleDemo@@UAEHXZ$0 00441570 f   SimpleDemo.obj
 0001:0004057f       __unwindfunclet$?virtInitialiseObjects@SimpleDemo@@UAEHXZ$1 0044157f f   SimpleDemo.obj
 0001:00040593       __ehhandler$?virtInitialiseObjects@SimpleDemo@@UAEHXZ 00441593 f   SimpleDemo.obj
 0001:000405c0       __ehhandler$??$_Emplace_reallocate@ABQAVDisplayableObject@@@?$vector@PAVDisplayableObject@@V?$allocator@PAVDisplayableObject@@@std@@@std@@AAEPAPAVDisplayableObject@@QAPAV2@ABQAV2@@Z 004415c0 f   SimpleDemo.obj
 0001:000405f0       __unwindfunclet$??0BouncingObject@@QAE@PAVBaseEngine@@HHNNNN@Z$0 004415f0 f   SimpleDemo.obj
 0001:000405fd       __ehhandler$??0BouncingObject@@QAE@PAVBaseEngine@@HHNNNN@Z 004415fd f   SimpleDemo.obj
 0001:00040630       __unwindfunclet$??0BouncingBall@@QAE@PAVBouncingBallMain@@HHHHPBDHH@Z$0 00441630 f   BouncingBall.obj
 0001:0004063d       __ehhandler$??0BouncingBall@@QAE@PAVBouncingBallMain@@HHHHPBDHH@Z 0044163d f   BouncingBall.obj
 0001:0004065a       __unwindfunclet$??0BouncingBall1@@QAE@PAVBouncingBallMain@@HHHHPBDHHPAVTileManager@@@Z$0 0044165a f   BouncingBall.obj
 0001:00040667       __ehhandler$??0BouncingBall1@@QAE@PAVBouncingBallMain@@HHHHPBDHHPAVTileManager@@@Z 00441667 f   BouncingBall.obj
 0001:000406a0       __unwindfunclet$?virtInitialiseObjects@BouncingBallMain@@UAEHXZ$0 004416a0 f   BouncingBallMain.obj
 0001:000406af       __unwindfunclet$?virtInitialiseObjects@BouncingBallMain@@UAEHXZ$1 004416af f   BouncingBallMain.obj
 0001:000406be       __unwindfunclet$?virtInitialiseObjects@BouncingBallMain@@UAEHXZ$2 004416be f   BouncingBallMain.obj
 0001:000406d2       __ehhandler$?virtInitialiseObjects@BouncingBallMain@@UAEHXZ 004416d2 f   BouncingBallMain.obj
 0001:00040710       __unwindfunclet$?virtInitialiseObjects@ZoomingDemo@@UAEHXZ$0 00441710 f   ZoomingDemo.obj
 0001:0004071f       __unwindfunclet$?virtInitialiseObjects@ZoomingDemo@@UAEHXZ$1 0044171f f   ZoomingDemo.obj
 0001:0004072e       __unwindfunclet$?virtInitialiseObjects@ZoomingDemo@@UAEHXZ$3 0044172e f   ZoomingDemo.obj
 0001:0004073d       __unwindfunclet$?virtInitialiseObjects@ZoomingDemo@@UAEHXZ$4 0044173d f   ZoomingDemo.obj
 0001:0004074a       __ehhandler$?virtInitialiseObjects@ZoomingDemo@@UAEHXZ 0044174a f   ZoomingDemo.obj
 0001:00040780       __unwindfunclet$??0SimpleFlashingDragableImageObject@@QAE@HHPAVBaseEngine@@V?$basic_string@DU?$char_traits@D@std@@V?$allocator@D@2@@std@@1_N2@Z$0 00441780 f   ZoomingDemo.obj
 0001:00040788       __unwindfunclet$??0SimpleFlashingDragableImageObject@@QAE@HHPAVBaseEngine@@V?$basic_string@DU?$char_traits@D@std@@V?$allocator@D@2@@std@@1_N2@Z$1 00441788 f   ZoomingDemo.obj
 0001:00040790       __unwindfunclet$??0SimpleFlashingDragableImageObject@@QAE@HHPAVBaseEngine@@V?$basic_string@DU?$char_traits@D@std@@V?$allocator@D@2@@std@@1_N2@Z$2 00441790 f   ZoomingDemo.obj
 0001:00040798       __unwindfunclet$??0SimpleFlashingDragableImageObject@@QAE@HHPAVBaseEngine@@V?$basic_string@DU?$char_traits@D@std@@V?$allocator@D@2@@std@@1_N2@Z$3 00441798 f   ZoomingDemo.obj
 0001:000407a0       __unwindfunclet$??0SimpleFlashingDragableImageObject@@QAE@HHPAVBaseEngine@@V?$basic_string@DU?$char_traits@D@std@@V?$allocator@D@2@@std@@1_N2@Z$4 004417a0 f   ZoomingDemo.obj
 0001:000407ab       __unwindfunclet$??0SimpleFlashingDragableImageObject@@QAE@HHPAVBaseEngine@@V?$basic_string@DU?$char_traits@D@std@@V?$allocator@D@2@@std@@1_N2@Z$5 004417ab f   ZoomingDemo.obj
 0001:000407b3       __unwindfunclet$??0SimpleFlashingDragableImageObject@@QAE@HHPAVBaseEngine@@V?$basic_string@DU?$char_traits@D@std@@V?$allocator@D@2@@std@@1_N2@Z$6 004417b3 f   ZoomingDemo.obj
 0001:000407c3       __ehhandler$??0SimpleFlashingDragableImageObject@@QAE@HHPAVBaseEngine@@V?$basic_string@DU?$char_traits@D@std@@V?$allocator@D@2@@std@@1_N2@Z 004417c3 f   ZoomingDemo.obj
 0001:00040800       __unwindfunclet$??0MazeDemoMain@@QAE@XZ$0 00441800 f   MazeDemoMain.obj
 0001:0004080d       __ehhandler$??0MazeDemoMain@@QAE@XZ 0044180d f   MazeDemoMain.obj
 0001:0004082a       __unwindfunclet$?virtInitialiseObjects@MazeDemoMain@@UAEHXZ$0 0044182a f   MazeDemoMain.obj
 0001:00040839       __unwindfunclet$?virtInitialiseObjects@MazeDemoMain@@UAEHXZ$1 00441839 f   MazeDemoMain.obj
 0001:00040848       __unwindfunclet$?virtInitialiseObjects@MazeDemoMain@@UAEHXZ$2 00441848 f   MazeDemoMain.obj
 0001:00040857       __unwindfunclet$?virtInitialiseObjects@MazeDemoMain@@UAEHXZ$3 00441857 f   MazeDemoMain.obj
 0001:00040866       __unwindfunclet$?virtInitialiseObjects@MazeDemoMain@@UAEHXZ$4 00441866 f   MazeDemoMain.obj
 0001:0004087a       __ehhandler$?virtInitialiseObjects@MazeDemoMain@@UAEHXZ 0044187a f   MazeDemoMain.obj
 0001:000408c0       __unwindfunclet$??0MazeDemoObject@@QAE@PAVMazeDemoMain@@HH@Z$0 004418c0 f   MazeDemoObject.obj
 0001:000408cd       __ehhandler$??0MazeDemoObject@@QAE@PAVMazeDemoMain@@HH@Z 004418cd f   MazeDemoObject.obj
 0001:00040900       __ehhandler$??$_H_func@V<lambda_1>@?1??_H_max@_Minmax_traits_1@?A0x8417fefe@@SA?AT__m128i@@T5@@Z@@_Minmax_traits_1@?A0x8417fefe@@SA?AT__m128i@@T2@V<lambda_1>@?1??_H_max@01@SA?AT2@0@Z@@Z 00441900 f   msvcprtd:vector_algorithms.obj
 0001:00040930       __ehhandler$??$_H_func@V<lambda_1>@?1??_H_max@_Minmax_traits_2@?A0x8417fefe@@SA?AT__m128i@@T5@@Z@@_Minmax_traits_2@?A0x8417fefe@@SA?AT__m128i@@T2@V<lambda_1>@?1??_H_max@01@SA?AT2@0@Z@@Z 00441930 f   msvcprtd:vector_algorithms.obj
 0001:00040960       __ehhandler$??$_H_func@V<lambda_1>@?1??_H_max@_Minmax_traits_4@?A0x8417fefe@@SA?AT__m128i@@T5@@Z@@_Minmax_traits_4@?A0x8417fefe@@SA?AT__m128i@@T2@V<lambda_1>@?1??_H_max@01@SA?AT2@0@Z@@Z 00441960 f   msvcprtd:vector_algorithms.obj
 0001:00040990       __ehhandler$??$_H_func@V<lambda_1>@?1??_H_max@_Minmax_traits_8@?A0x8417fefe@@SA?AT__m128i@@T5@@Z@@_Minmax_traits_8@?A0x8417fefe@@SA?AT__m128i@@T2@V<lambda_1>@?1??_H_max@01@SA?AT2@0@Z@@Z 00441990 f   msvcprtd:vector_algorithms.obj
 0001:000409c0       __ehhandler$??$_H_func@V<lambda_1>@?1??_H_max_u@_Minmax_traits_1@?A0x8417fefe@@SA?AT__m128i@@T5@@Z@@_Minmax_traits_1@?A0x8417fefe@@SA?AT__m128i@@T2@V<lambda_1>@?1??_H_max_u@01@SA?AT2@0@Z@@Z 004419c0 f   msvcprtd:vector_algorithms.obj
 0001:000409f0       __ehhandler$??$_H_func@V<lambda_1>@?1??_H_max_u@_Minmax_traits_2@?A0x8417fefe@@SA?AT__m128i@@T5@@Z@@_Minmax_traits_2@?A0x8417fefe@@SA?AT__m128i@@T2@V<lambda_1>@?1??_H_max_u@01@SA?AT2@0@Z@@Z 004419f0 f   msvcprtd:vector_algorithms.obj
 0001:00040a20       __ehhandler$??$_H_func@V<lambda_1>@?1??_H_max_u@_Minmax_traits_4@?A0x8417fefe@@SA?AT__m128i@@T5@@Z@@_Minmax_traits_4@?A0x8417fefe@@SA?AT__m128i@@T2@V<lambda_1>@?1??_H_max_u@01@SA?AT2@0@Z@@Z 00441a20 f   msvcprtd:vector_algorithms.obj
 0001:00040a50       __ehhandler$??$_H_func@V<lambda_1>@?1??_H_max_u@_Minmax_traits_8@?A0x8417fefe@@SA?AT__m128i@@T5@@Z@@_Minmax_traits_8@?A0x8417fefe@@SA?AT__m128i@@T2@V<lambda_1>@?1??_H_max_u@01@SA?AT2@0@Z@@Z 00441a50 f   msvcprtd:vector_algorithms.obj
 0001:00040a80       __ehhandler$??$_H_func@V<lambda_1>@?1??_H_min@_Minmax_traits_1@?A0x8417fefe@@SA?AT__m128i@@T5@@Z@@_Minmax_traits_1@?A0x8417fefe@@SA?AT__m128i@@T2@V<lambda_1>@?1??_H_min@01@SA?AT2@0@Z@@Z 00441a80 f   msvcprtd:vector_algorithms.obj
 0001:00040ab0       __ehhandler$??$_H_func@V<lambda_1>@?1??_H_min@_Minmax_traits_2@?A0x8417fefe@@SA?AT__m128i@@T5@@Z@@_Minmax_traits_2@?A0x8417fefe@@SA?AT__m128i@@T2@V<lambda_1>@?1??_H_min@01@SA?AT2@0@Z@@Z 00441ab0 f   msvcprtd:vector_algorithms.obj
 0001:00040ae0       __ehhandler$??$_H_func@V<lambda_1>@?1??_H_min@_Minmax_traits_4@?A0x8417fefe@@SA?AT__m128i@@T5@@Z@@_Minmax_traits_4@?A0x8417fefe@@SA?AT__m128i@@T2@V<lambda_1>@?1??_H_min@01@SA?AT2@0@Z@@Z 00441ae0 f   msvcprtd:vector_algorithms.obj
 0001:00040b10       __ehhandler$??$_H_func@V<lambda_1>@?1??_H_min@_Minmax_traits_8@?A0x8417fefe@@SA?AT__m128i@@T5@@Z@@_Minmax_traits_8@?A0x8417fefe@@SA?AT__m128i@@T2@V<lambda_1>@?1??_H_min@01@SA?AT2@0@Z@@Z 00441b10 f   msvcprtd:vector_algorithms.obj
 0001:00040b40       __ehhandler$??$_H_func@V<lambda_1>@?1??_H_min_u@_Minmax_traits_1@?A0x8417fefe@@SA?AT__m128i@@T5@@Z@@_Minmax_traits_1@?A0x8417fefe@@SA?AT__m128i@@T2@V<lambda_1>@?1??_H_min_u@01@SA?AT2@0@Z@@Z 00441b40 f   msvcprtd:vector_algorithms.obj
 0001:00040b70       __ehhandler$??$_H_func@V<lambda_1>@?1??_H_min_u@_Minmax_traits_2@?A0x8417fefe@@SA?AT__m128i@@T5@@Z@@_Minmax_traits_2@?A0x8417fefe@@SA?AT__m128i@@T2@V<lambda_1>@?1??_H_min_u@01@SA?AT2@0@Z@@Z 00441b70 f   msvcprtd:vector_algorithms.obj
 0001:00040ba0       __ehhandler$??$_H_func@V<lambda_1>@?1??_H_min_u@_Minmax_traits_4@?A0x8417fefe@@SA?AT__m128i@@T5@@Z@@_Minmax_traits_4@?A0x8417fefe@@SA?AT__m128i@@T2@V<lambda_1>@?1??_H_min_u@01@SA?AT2@0@Z@@Z 00441ba0 f   msvcprtd:vector_algorithms.obj
 0001:00040bd0       __ehhandler$??$_H_func@V<lambda_1>@?1??_H_min_u@_Minmax_traits_8@?A0x8417fefe@@SA?AT__m128i@@T5@@Z@@_Minmax_traits_8@?A0x8417fefe@@SA?AT__m128i@@T2@V<lambda_1>@?1??_H_min_u@01@SA?AT2@0@Z@@Z 00441bd0 f   msvcprtd:vector_algorithms.obj
 0001:00041d20       ??__Fm_oTiles@@YAXXZ       00442d20 f   CrimsonWasteland2.obj
 0002:00000104       ?pre_cpp_initializer@@3P6AXXZA 00444104     MSVCRTD:exe_main.obj
 0002:00000208       ?m_oTiles$initializer$@@3P6AXXZA 00444208     CrimsonWasteland2.obj
 0002:00000514       ?pre_c_initializer@@3P6AHXZA 00444514     MSVCRTD:exe_main.obj
 0002:00000618       ?post_pgo_initializer@@3P6AHXZA 00444618     MSVCRTD:exe_main.obj
 0002:00000c40       $SG90688                   00444c40     CrimsonWasteland2.obj
 0002:00000c48       $SG90689                   00444c48     CrimsonWasteland2.obj
 0002:00000c50       $SG90690                   00444c50     CrimsonWasteland2.obj
 0002:00000c58       $SG90691                   00444c58     CrimsonWasteland2.obj
 0002:00000c60       $SG90797                   00444c60     CrimsonWasteland2.obj
 0002:00000c7c       $SG90799                   00444c7c     CrimsonWasteland2.obj
 0002:00000c94       $SG90802                   00444c94     CrimsonWasteland2.obj
 0002:00000cac       $SG90804                   00444cac     CrimsonWasteland2.obj
 0002:00000cc8       $SG90805                   00444cc8     CrimsonWasteland2.obj
 0002:00000ce4       $SG90806                   00444ce4     CrimsonWasteland2.obj
 0002:00000d00       $SG90807                   00444d00     CrimsonWasteland2.obj
 0002:00000d1c       $SG90808                   00444d1c     CrimsonWasteland2.obj
 0002:00000d38       $SG90809                   00444d38     CrimsonWasteland2.obj
 0002:00000d54       $SG90810                   00444d54     CrimsonWasteland2.obj
 0002:00000d70       $SG90811                   00444d70     CrimsonWasteland2.obj
 0002:00000d8c       $SG90812                   00444d8c     CrimsonWasteland2.obj
 0002:00000da8       $SG90813                   00444da8     CrimsonWasteland2.obj
 0002:00000dc4       $SG90814                   00444dc4     CrimsonWasteland2.obj
 0002:00000de0       $SG90815                   00444de0     CrimsonWasteland2.obj
 0002:00000dfc       $SG90816                   00444dfc     CrimsonWasteland2.obj
 0002:00000e18       $SG90817                   00444e18     CrimsonWasteland2.obj
 0002:00000e34       $SG90818                   00444e34     CrimsonWasteland2.obj
 0002:00000e50       $SG90819                   00444e50     CrimsonWasteland2.obj
 0002:00000e6c       $SG90822                   00444e6c     CrimsonWasteland2.obj
 0002:00000e8c       $SG90824                   00444e8c     CrimsonWasteland2.obj
 0002:00000eac       $SG90826                   00444eac     CrimsonWasteland2.obj
 0002:00000ecc       $SG90828                   00444ecc     CrimsonWasteland2.obj
 0002:00000eec       $SG90830                   00444eec     CrimsonWasteland2.obj
 0002:00000f0c       $SG90832                   00444f0c     CrimsonWasteland2.obj
 0002:00000f2c       $SG90834                   00444f2c     CrimsonWasteland2.obj
 0002:00000f4c       $SG90836                   00444f4c     CrimsonWasteland2.obj
 0002:00000f6c       $SG90838                   00444f6c     CrimsonWasteland2.obj
 0002:00000f8c       $SG90840                   00444f8c     CrimsonWasteland2.obj
 0002:00000fac       $SG90842                   00444fac     CrimsonWasteland2.obj
 0002:00000fcc       $SG90844                   00444fcc     CrimsonWasteland2.obj
 0002:00000fec       $SG90846                   00444fec     CrimsonWasteland2.obj
 0002:0000100c       $SG90848                   0044500c     CrimsonWasteland2.obj
 0002:0000102c       $SG90850                   0044502c     CrimsonWasteland2.obj
 0002:0000104c       $SG90852                   0044504c     CrimsonWasteland2.obj
 0002:0000106c       $SG90854                   0044506c     CrimsonWasteland2.obj
 0002:0000108c       $SG90856                   0044508c     CrimsonWasteland2.obj
 0002:000010ac       $SG90858                   004450ac     CrimsonWasteland2.obj
 0002:000010cc       $SG90860                   004450cc     CrimsonWasteland2.obj
 0002:000010ec       $SG90862                   004450ec     CrimsonWasteland2.obj
 0002:0000110c       $SG90864                   0044510c     CrimsonWasteland2.obj
 0002:0000112c       $SG90866                   0044512c     CrimsonWasteland2.obj
 0002:0000114c       $SG90868                   0044514c     CrimsonWasteland2.obj
 0002:00001160       $SG90870                   00445160     CrimsonWasteland2.obj
 0002:00001174       $SG90872                   00445174     CrimsonWasteland2.obj
 0002:00001190       $SG90873                   00445190     CrimsonWasteland2.obj
 0002:000011ac       $SG90874                   004451ac     CrimsonWasteland2.obj
 0002:000011c8       $SG90875                   004451c8     CrimsonWasteland2.obj
 0002:000011e4       $SG90876                   004451e4     CrimsonWasteland2.obj
 0002:00001200       $SG90877                   00445200     CrimsonWasteland2.obj
 0002:0000121c       $SG90878                   0044521c     CrimsonWasteland2.obj
 0002:00001238       $SG90879                   00445238     CrimsonWasteland2.obj
 0002:00001254       $SG90880                   00445254     CrimsonWasteland2.obj
 0002:00001270       $SG90881                   00445270     CrimsonWasteland2.obj
 0002:0000128c       $SG90882                   0044528c     CrimsonWasteland2.obj
 0002:000012a8       $SG90883                   004452a8     CrimsonWasteland2.obj
 0002:000012c4       $SG90884                   004452c4     CrimsonWasteland2.obj
 0002:000012e0       $SG90885                   004452e0     CrimsonWasteland2.obj
 0002:000012fc       $SG90886                   004452fc     CrimsonWasteland2.obj
 0002:00001318       $SG90887                   00445318     CrimsonWasteland2.obj
 0002:00001334       $SG90889                   00445334     CrimsonWasteland2.obj
 0002:00001348       $SG90891                   00445348     CrimsonWasteland2.obj
 0002:0000135c       $SG90920                   0044535c     CrimsonWasteland2.obj
 0002:00001370       $SG90966                   00445370     CrimsonWasteland2.obj
 0002:00001384       $SG90967                   00445384     CrimsonWasteland2.obj
 0002:00001398       $SG90968                   00445398     CrimsonWasteland2.obj
 0002:000013ac       $SG90970                   004453ac     CrimsonWasteland2.obj
 0002:000013c0       $SG90972                   004453c0     CrimsonWasteland2.obj
 0002:000013d8       $SG90976                   004453d8     CrimsonWasteland2.obj
 0002:000013e4       $SG91039                   004453e4     CrimsonWasteland2.obj
 0002:000013f8       $SG91041                   004453f8     CrimsonWasteland2.obj
 0002:00001400       $SG91042                   00445400     CrimsonWasteland2.obj
 0002:00001410       $SG91043                   00445410     CrimsonWasteland2.obj
 0002:00001414       $SG91044                   00445414     CrimsonWasteland2.obj
 0002:00001418       $SG91046                   00445418     CrimsonWasteland2.obj
 0002:00001438       $SG91048                   00445438     CrimsonWasteland2.obj
 0002:00001448       $SG91049                   00445448     CrimsonWasteland2.obj
 0002:00001458       $SG91050                   00445458     CrimsonWasteland2.obj
 0002:00001468       $SG91052                   00445468     CrimsonWasteland2.obj
 0002:00001484       $SG91054                   00445484     CrimsonWasteland2.obj
 0002:00001490       $SG91057                   00445490     CrimsonWasteland2.obj
 0002:000014ac       $SG91059                   004454ac     CrimsonWasteland2.obj
 0002:000014b8       $SG91256                   004454b8     CrimsonWasteland2.obj
 0002:000014bc       $SG91257                   004454bc     CrimsonWasteland2.obj
 0002:000014c0       $SG91260                   004454c0     CrimsonWasteland2.obj
 0002:000014c8       $SG91261                   004454c8     CrimsonWasteland2.obj
 0002:000014d0       $SG91262                   004454d0     CrimsonWasteland2.obj
 0002:000014d8       $SG91342                   004454d8     CrimsonWasteland2.obj
 0002:000014e0       $SG91345                   004454e0     CrimsonWasteland2.obj
 0002:000014e8       $SG91347                   004454e8     CrimsonWasteland2.obj
 0002:000014f0       $SG102997                  004454f0     CrimsonWasteland2.obj
 0002:00001504       $SG102998                  00445504     CrimsonWasteland2.obj
 0002:00001508       $SG102999                  00445508     CrimsonWasteland2.obj
 0002:00001570       $SG103000                  00445570     CrimsonWasteland2.obj
 0002:00001634       $SG103001                  00445634     CrimsonWasteland2.obj
 0002:00001638       $SG103002                  00445638     CrimsonWasteland2.obj
 0002:00001660       $SG103056                  00445660     CrimsonWasteland2.obj
 0002:000016c4       $SG103377                  004456c4     CrimsonWasteland2.obj
 0002:000016e0       $SG103378                  004456e0     CrimsonWasteland2.obj
 0002:000016e8       $SG103379                  004456e8     CrimsonWasteland2.obj
 0002:00001750       $SG103380                  00445750     CrimsonWasteland2.obj
 0002:00001818       $SG103381                  00445818     CrimsonWasteland2.obj
 0002:0000181c       $SG103382                  0044581c     CrimsonWasteland2.obj
 0002:000032d0       $SG99252                   004472d0     CrimsonWasteland2TileManager.obj
 0002:000032e4       $SG99253                   004472e4     CrimsonWasteland2TileManager.obj
 0002:000032e8       $SG99254                   004472e8     CrimsonWasteland2TileManager.obj
 0002:00003350       $SG99255                   00447350     CrimsonWasteland2TileManager.obj
 0002:00003414       $SG99256                   00447414     CrimsonWasteland2TileManager.obj
 0002:00003418       $SG99257                   00447418     CrimsonWasteland2TileManager.obj
 0002:00003440       $SG99309                   00447440     CrimsonWasteland2TileManager.obj
 0002:000034a4       $SG99554                   004474a4     CrimsonWasteland2TileManager.obj
 0002:000034c0       $SG99555                   004474c0     CrimsonWasteland2TileManager.obj
 0002:000034c8       $SG99556                   004474c8     CrimsonWasteland2TileManager.obj
 0002:00003530       $SG99557                   00447530     CrimsonWasteland2TileManager.obj
 0002:000035f8       $SG99558                   004475f8     CrimsonWasteland2TileManager.obj
 0002:000035fc       $SG99559                   004475fc     CrimsonWasteland2TileManager.obj
 0002:000036e8       $SG99660                   004476e8     DraggingDemo.obj
 0002:000036fc       $SG99661                   004476fc     DraggingDemo.obj
 0002:00003700       $SG99662                   00447700     DraggingDemo.obj
 0002:00003768       $SG99663                   00447768     DraggingDemo.obj
 0002:0000382c       $SG99664                   0044782c     DraggingDemo.obj
 0002:00003830       $SG99665                   00447830     DraggingDemo.obj
 0002:00003858       $SG99717                   00447858     DraggingDemo.obj
 0002:000038bc       $SG99962                   004478bc     DraggingDemo.obj
 0002:000038d8       $SG99963                   004478d8     DraggingDemo.obj
 0002:000038e0       $SG99964                   004478e0     DraggingDemo.obj
 0002:00003948       $SG99965                   00447948     DraggingDemo.obj
 0002:00003a10       $SG99966                   00447a10     DraggingDemo.obj
 0002:00003a14       $SG99967                   00447a14     DraggingDemo.obj
 0002:00003a4c       $SG89027                   00447a4c     DraggingDemo.obj
 0002:00003a58       $SG89029                   00447a58     DraggingDemo.obj
 0002:00003c20       $SG154866                  00447c20     DrawingSurface.obj
 0002:00003c34       $SG154867                  00447c34     DrawingSurface.obj
 0002:00003c38       $SG154868                  00447c38     DrawingSurface.obj
 0002:00003ca0       $SG154869                  00447ca0     DrawingSurface.obj
 0002:00003d64       $SG154870                  00447d64     DrawingSurface.obj
 0002:00003d68       $SG154871                  00447d68     DrawingSurface.obj
 0002:00003d90       $SG154923                  00447d90     DrawingSurface.obj
 0002:00003e00       $SG155168                  00447e00     DrawingSurface.obj
 0002:00003e1c       $SG155169                  00447e1c     DrawingSurface.obj
 0002:00003e20       $SG155170                  00447e20     DrawingSurface.obj
 0002:00003e88       $SG155171                  00447e88     DrawingSurface.obj
 0002:00003f50       $SG155172                  00447f50     DrawingSurface.obj
 0002:00003f54       $SG155173                  00447f54     DrawingSurface.obj
 0002:00004198       $SG99111                   00448198     FlashingDemo.obj
 0002:000041ac       $SG99112                   004481ac     FlashingDemo.obj
 0002:000041b0       $SG99113                   004481b0     FlashingDemo.obj
 0002:00004218       $SG99114                   00448218     FlashingDemo.obj
 0002:000042dc       $SG99115                   004482dc     FlashingDemo.obj
 0002:000042e0       $SG99116                   004482e0     FlashingDemo.obj
 0002:00004308       $SG99168                   00448308     FlashingDemo.obj
 0002:0000436c       $SG99413                   0044836c     FlashingDemo.obj
 0002:00004388       $SG99414                   00448388     FlashingDemo.obj
 0002:00004390       $SG99415                   00448390     FlashingDemo.obj
 0002:000043f8       $SG99416                   004483f8     FlashingDemo.obj
 0002:000044c0       $SG99417                   004484c0     FlashingDemo.obj
 0002:000044c4       $SG99418                   004484c4     FlashingDemo.obj
 0002:00004678       $SG99796                   00448678     ImageMappingDemo.obj
 0002:0000468c       $SG99797                   0044868c     ImageMappingDemo.obj
 0002:00004690       $SG99798                   00448690     ImageMappingDemo.obj
 0002:000046f8       $SG99799                   004486f8     ImageMappingDemo.obj
 0002:000047bc       $SG99800                   004487bc     ImageMappingDemo.obj
 0002:000047c0       $SG99801                   004487c0     ImageMappingDemo.obj
 0002:000047e8       $SG99853                   004487e8     ImageMappingDemo.obj
 0002:0000484c       $SG100098                  0044884c     ImageMappingDemo.obj
 0002:00004868       $SG100099                  00448868     ImageMappingDemo.obj
 0002:00004870       $SG100100                  00448870     ImageMappingDemo.obj
 0002:000048d8       $SG100101                  004488d8     ImageMappingDemo.obj
 0002:000049a0       $SG100102                  004489a0     ImageMappingDemo.obj
 0002:000049a4       $SG100103                  004489a4     ImageMappingDemo.obj
 0002:000049dc       $SG89129                   004489dc     ImageMappingDemo.obj
 0002:000049e8       $SG89131                   004489e8     ImageMappingDemo.obj
 0002:000049f4       $SG89133                   004489f4     ImageMappingDemo.obj
 0002:00004a00       $SG89135                   00448a00     ImageMappingDemo.obj
 0002:00004a0c       $SG89137                   00448a0c     ImageMappingDemo.obj
 0002:00004b48       $SG90654                   00448b48     mainfunction.obj
 0002:00004b78       $SG90655                   00448b78     mainfunction.obj
 0002:00004b90       $SG101381                  00448b90     mainfunction.obj
 0002:00004ba4       $SG101382                  00448ba4     mainfunction.obj
 0002:00004ba8       $SG101383                  00448ba8     mainfunction.obj
 0002:00004c10       $SG101384                  00448c10     mainfunction.obj
 0002:00004cd4       $SG101385                  00448cd4     mainfunction.obj
 0002:00004cd8       $SG101386                  00448cd8     mainfunction.obj
 0002:00004d00       $SG101438                  00448d00     mainfunction.obj
 0002:00004d64       $SG101683                  00448d64     mainfunction.obj
 0002:00004d80       $SG101684                  00448d80     mainfunction.obj
 0002:00004d88       $SG101685                  00448d88     mainfunction.obj
 0002:00004df0       $SG101686                  00448df0     mainfunction.obj
 0002:00004eb8       $SG101687                  00448eb8     mainfunction.obj
 0002:00004ebc       $SG101688                  00448ebc     mainfunction.obj
 0002:00004fb0       $SG143324                  00448fb0     BaseEngine.obj
 0002:00004fe0       $SG143357                  00448fe0     BaseEngine.obj
 0002:00004ff8       $SG154463                  00448ff8     BaseEngine.obj
 0002:0000500c       $SG154464                  0044900c     BaseEngine.obj
 0002:00005010       $SG154465                  00449010     BaseEngine.obj
 0002:00005078       $SG154466                  00449078     BaseEngine.obj
 0002:0000513c       $SG154467                  0044913c     BaseEngine.obj
 0002:00005140       $SG154468                  00449140     BaseEngine.obj
 0002:00005168       $SG154520                  00449168     BaseEngine.obj
 0002:000051cc       $SG154765                  004491cc     BaseEngine.obj
 0002:000051e8       $SG154766                  004491e8     BaseEngine.obj
 0002:000051f0       $SG154767                  004491f0     BaseEngine.obj
 0002:00005258       $SG154768                  00449258     BaseEngine.obj
 0002:00005320       $SG154769                  00449320     BaseEngine.obj
 0002:00005324       $SG154770                  00449324     BaseEngine.obj
 0002:000054f0       $SG99083                   004494f0     DisplayableObject.obj
 0002:00005504       $SG99084                   00449504     DisplayableObject.obj
 0002:00005508       $SG99085                   00449508     DisplayableObject.obj
 0002:00005570       $SG99086                   00449570     DisplayableObject.obj
 0002:00005634       $SG99087                   00449634     DisplayableObject.obj
 0002:00005638       $SG99088                   00449638     DisplayableObject.obj
 0002:00005660       $SG99140                   00449660     DisplayableObject.obj
 0002:000056c4       $SG99385                   004496c4     DisplayableObject.obj
 0002:000056e0       $SG99386                   004496e0     DisplayableObject.obj
 0002:000056e8       $SG99387                   004496e8     DisplayableObject.obj
 0002:00005750       $SG99388                   00449750     DisplayableObject.obj
 0002:00005818       $SG99389                   00449818     DisplayableObject.obj
 0002:0000581c       $SG99390                   0044981c     DisplayableObject.obj
 0002:00005948       $SG82626                   00449948     FontManager.obj
 0002:000059ac       $SG82908                   004499ac     FontManager.obj
 0002:000059c0       $SG82909                   004499c0     FontManager.obj
 0002:000059c8       $SG82910                   004499c8     FontManager.obj
 0002:00005a30       $SG82911                   00449a30     FontManager.obj
 0002:00005af4       $SG82912                   00449af4     FontManager.obj
 0002:00005af8       $SG82913                   00449af8     FontManager.obj
 0002:00005b20       $SG75379                   00449b20     FontManager.obj
 0002:00005b3c       $SG75383                   00449b3c     FontManager.obj
 0002:00005bd8       $SG99312                   00449bd8     MyDemoA.obj
 0002:00005bec       $SG99313                   00449bec     MyDemoA.obj
 0002:00005bf0       $SG99314                   00449bf0     MyDemoA.obj
 0002:00005c58       $SG99315                   00449c58     MyDemoA.obj
 0002:00005d1c       $SG99316                   00449d1c     MyDemoA.obj
 0002:00005d20       $SG99317                   00449d20     MyDemoA.obj
 0002:00005d48       $SG99369                   00449d48     MyDemoA.obj
 0002:00005dac       $SG99614                   00449dac     MyDemoA.obj
 0002:00005dc8       $SG99615                   00449dc8     MyDemoA.obj
 0002:00005dd0       $SG99616                   00449dd0     MyDemoA.obj
 0002:00005e38       $SG99617                   00449e38     MyDemoA.obj
 0002:00005f00       $SG99618                   00449f00     MyDemoA.obj
 0002:00005f04       $SG99619                   00449f04     MyDemoA.obj
 0002:00005f3c       $SG88661                   00449f3c     MyDemoA.obj
 0002:00005f48       $SG88671                   00449f48     MyDemoA.obj
 0002:00006130       $SG99067                   0044a130     MyObjectB.obj
 0002:00006144       $SG99068                   0044a144     MyObjectB.obj
 0002:00006148       $SG99069                   0044a148     MyObjectB.obj
 0002:000061b0       $SG99070                   0044a1b0     MyObjectB.obj
 0002:00006274       $SG99071                   0044a274     MyObjectB.obj
 0002:00006278       $SG99072                   0044a278     MyObjectB.obj
 0002:000062a0       $SG99124                   0044a2a0     MyObjectB.obj
 0002:00006304       $SG99369                   0044a304     MyObjectB.obj
 0002:00006320       $SG99370                   0044a320     MyObjectB.obj
 0002:00006328       $SG99371                   0044a328     MyObjectB.obj
 0002:00006390       $SG99372                   0044a390     MyObjectB.obj
 0002:00006458       $SG99373                   0044a458     MyObjectB.obj
 0002:0000645c       $SG99374                   0044a45c     MyObjectB.obj
 0002:00006548       $SG99199                   0044a548     MyTileManager.obj
 0002:0000655c       $SG99200                   0044a55c     MyTileManager.obj
 0002:00006560       $SG99201                   0044a560     MyTileManager.obj
 0002:000065c8       $SG99202                   0044a5c8     MyTileManager.obj
 0002:0000668c       $SG99203                   0044a68c     MyTileManager.obj
 0002:00006690       $SG99204                   0044a690     MyTileManager.obj
 0002:000066b8       $SG99256                   0044a6b8     MyTileManager.obj
 0002:0000671c       $SG99501                   0044a71c     MyTileManager.obj
 0002:00006738       $SG99502                   0044a738     MyTileManager.obj
 0002:00006740       $SG99503                   0044a740     MyTileManager.obj
 0002:000067a8       $SG99504                   0044a7a8     MyTileManager.obj
 0002:00006870       $SG99505                   0044a870     MyTileManager.obj
 0002:00006874       $SG99506                   0044a874     MyTileManager.obj
 0002:00006960       $SG99814                   0044a960     Psyes9Engine.obj
 0002:00006974       $SG99815                   0044a974     Psyes9Engine.obj
 0002:00006978       $SG99816                   0044a978     Psyes9Engine.obj
 0002:000069e0       $SG99817                   0044a9e0     Psyes9Engine.obj
 0002:00006aa4       $SG99818                   0044aaa4     Psyes9Engine.obj
 0002:00006aa8       $SG99819                   0044aaa8     Psyes9Engine.obj
 0002:00006ad0       $SG99871                   0044aad0     Psyes9Engine.obj
 0002:00006b34       $SG100116                  0044ab34     Psyes9Engine.obj
 0002:00006b50       $SG100117                  0044ab50     Psyes9Engine.obj
 0002:00006b58       $SG100118                  0044ab58     Psyes9Engine.obj
 0002:00006bc0       $SG100119                  0044abc0     Psyes9Engine.obj
 0002:00006c88       $SG100120                  0044ac88     Psyes9Engine.obj
 0002:00006c8c       $SG100121                  0044ac8c     Psyes9Engine.obj
 0002:00006cc4       $SG89144                   0044acc4     Psyes9Engine.obj
 0002:00006cd0       $SG89145                   0044acd0     Psyes9Engine.obj
 0002:00006cdc       $SG89146                   0044acdc     Psyes9Engine.obj
 0002:00006cec       $SG89160                   0044acec     Psyes9Engine.obj
 0002:00006d00       $SG89165                   0044ad00     Psyes9Engine.obj
 0002:00006d28       $SG89167                   0044ad28     Psyes9Engine.obj
 0002:00006f48       $SG99194                   0044af48     Psyes9TileManager.obj
 0002:00006f5c       $SG99195                   0044af5c     Psyes9TileManager.obj
 0002:00006f60       $SG99196                   0044af60     Psyes9TileManager.obj
 0002:00006fc8       $SG99197                   0044afc8     Psyes9TileManager.obj
 0002:0000708c       $SG99198                   0044b08c     Psyes9TileManager.obj
 0002:00007090       $SG99199                   0044b090     Psyes9TileManager.obj
 0002:000070b8       $SG99251                   0044b0b8     Psyes9TileManager.obj
 0002:0000711c       $SG99496                   0044b11c     Psyes9TileManager.obj
 0002:00007138       $SG99497                   0044b138     Psyes9TileManager.obj
 0002:00007140       $SG99498                   0044b140     Psyes9TileManager.obj
 0002:000071a8       $SG99499                   0044b1a8     Psyes9TileManager.obj
 0002:00007270       $SG99500                   0044b270     Psyes9TileManager.obj
 0002:00007274       $SG99501                   0044b274     Psyes9TileManager.obj
 0002:00007360       $SG99525                   0044b360     SimpleImage.obj
 0002:00007374       $SG99526                   0044b374     SimpleImage.obj
 0002:00007378       $SG99527                   0044b378     SimpleImage.obj
 0002:000073e0       $SG99528                   0044b3e0     SimpleImage.obj
 0002:000074a4       $SG99529                   0044b4a4     SimpleImage.obj
 0002:000074a8       $SG99530                   0044b4a8     SimpleImage.obj
 0002:000074d0       $SG99582                   0044b4d0     SimpleImage.obj
 0002:00007534       $SG100292                  0044b534     SimpleImage.obj
 0002:00007550       $SG100293                  0044b550     SimpleImage.obj
 0002:00007558       $SG100294                  0044b558     SimpleImage.obj
 0002:000075c0       $SG100295                  0044b5c0     SimpleImage.obj
 0002:00007688       $SG100296                  0044b688     SimpleImage.obj
 0002:0000768c       $SG100297                  0044b68c     SimpleImage.obj
 0002:00007788       $SG99389                   0044b788     SimpleDemo.obj
 0002:0000779c       $SG99390                   0044b79c     SimpleDemo.obj
 0002:000077a0       $SG99391                   0044b7a0     SimpleDemo.obj
 0002:00007808       $SG99392                   0044b808     SimpleDemo.obj
 0002:000078cc       $SG99393                   0044b8cc     SimpleDemo.obj
 0002:000078d0       $SG99394                   0044b8d0     SimpleDemo.obj
 0002:000078f8       $SG99446                   0044b8f8     SimpleDemo.obj
 0002:0000795c       $SG99691                   0044b95c     SimpleDemo.obj
 0002:00007978       $SG99692                   0044b978     SimpleDemo.obj
 0002:00007980       $SG99693                   0044b980     SimpleDemo.obj
 0002:000079e8       $SG99694                   0044b9e8     SimpleDemo.obj
 0002:00007ab0       $SG99695                   0044bab0     SimpleDemo.obj
 0002:00007ab4       $SG99696                   0044bab4     SimpleDemo.obj
 0002:00007aec       $SG88740                   0044baec     SimpleDemo.obj
 0002:00007b1c       $SG88741                   0044bb1c     SimpleDemo.obj
 0002:00007b34       $SG88746                   0044bb34     SimpleDemo.obj
 0002:00007b5c       $SG88747                   0044bb5c     SimpleDemo.obj
 0002:00007b74       $SG88749                   0044bb74     SimpleDemo.obj
 0002:00007cb8       $SG99078                   0044bcb8     StarfieldDemo.obj
 0002:00007ccc       $SG99079                   0044bccc     StarfieldDemo.obj
 0002:00007cd0       $SG99080                   0044bcd0     StarfieldDemo.obj
 0002:00007d38       $SG99081                   0044bd38     StarfieldDemo.obj
 0002:00007dfc       $SG99082                   0044bdfc     StarfieldDemo.obj
 0002:00007e00       $SG99083                   0044be00     StarfieldDemo.obj
 0002:00007e28       $SG99135                   0044be28     StarfieldDemo.obj
 0002:00007e8c       $SG99380                   0044be8c     StarfieldDemo.obj
 0002:00007ea8       $SG99381                   0044bea8     StarfieldDemo.obj
 0002:00007eb0       $SG99382                   0044beb0     StarfieldDemo.obj
 0002:00007f18       $SG99383                   0044bf18     StarfieldDemo.obj
 0002:00007fe0       $SG99384                   0044bfe0     StarfieldDemo.obj
 0002:00007fe4       $SG99385                   0044bfe4     StarfieldDemo.obj
 0002:00008198       $SG99283                   0044c198     SwimmingFishObject.obj
 0002:000081ac       $SG99284                   0044c1ac     SwimmingFishObject.obj
 0002:000081b0       $SG99285                   0044c1b0     SwimmingFishObject.obj
 0002:00008218       $SG99286                   0044c218     SwimmingFishObject.obj
 0002:000082dc       $SG99287                   0044c2dc     SwimmingFishObject.obj
 0002:000082e0       $SG99288                   0044c2e0     SwimmingFishObject.obj
 0002:00008308       $SG99340                   0044c308     SwimmingFishObject.obj
 0002:0000836c       $SG99585                   0044c36c     SwimmingFishObject.obj
 0002:00008388       $SG99586                   0044c388     SwimmingFishObject.obj
 0002:00008390       $SG99587                   0044c390     SwimmingFishObject.obj
 0002:000083f8       $SG99588                   0044c3f8     SwimmingFishObject.obj
 0002:000084c0       $SG99589                   0044c4c0     SwimmingFishObject.obj
 0002:000084c4       $SG99590                   0044c4c4     SwimmingFishObject.obj
 0002:000085c0       $SG99192                   0044c5c0     TileManager.obj
 0002:000085d4       $SG99193                   0044c5d4     TileManager.obj
 0002:000085d8       $SG99194                   0044c5d8     TileManager.obj
 0002:00008640       $SG99195                   0044c640     TileManager.obj
 0002:00008704       $SG99196                   0044c704     TileManager.obj
 0002:00008708       $SG99197                   0044c708     TileManager.obj
 0002:00008730       $SG99249                   0044c730     TileManager.obj
 0002:00008794       $SG99494                   0044c794     TileManager.obj
 0002:000087b0       $SG99495                   0044c7b0     TileManager.obj
 0002:000087b8       $SG99496                   0044c7b8     TileManager.obj
 0002:00008820       $SG99497                   0044c820     TileManager.obj
 0002:000088e8       $SG99498                   0044c8e8     TileManager.obj
 0002:000088ec       $SG99499                   0044c8ec     TileManager.obj
 0002:000089d8       $SG99512                   0044c9d8     BouncingBall.obj
 0002:000089ec       $SG99513                   0044c9ec     BouncingBall.obj
 0002:000089f0       $SG99514                   0044c9f0     BouncingBall.obj
 0002:00008a58       $SG99515                   0044ca58     BouncingBall.obj
 0002:00008b1c       $SG99516                   0044cb1c     BouncingBall.obj
 0002:00008b20       $SG99517                   0044cb20     BouncingBall.obj
 0002:00008b48       $SG99569                   0044cb48     BouncingBall.obj
 0002:00008bac       $SG99814                   0044cbac     BouncingBall.obj
 0002:00008bc8       $SG99815                   0044cbc8     BouncingBall.obj
 0002:00008bd0       $SG99816                   0044cbd0     BouncingBall.obj
 0002:00008c38       $SG99817                   0044cc38     BouncingBall.obj
 0002:00008d00       $SG99818                   0044cd00     BouncingBall.obj
 0002:00008d04       $SG99819                   0044cd04     BouncingBall.obj
 0002:00008ec8       $SG99699                   0044cec8     BouncingBallMain.obj
 0002:00008edc       $SG99700                   0044cedc     BouncingBallMain.obj
 0002:00008ee0       $SG99701                   0044cee0     BouncingBallMain.obj
 0002:00008f48       $SG99702                   0044cf48     BouncingBallMain.obj
 0002:0000900c       $SG99703                   0044d00c     BouncingBallMain.obj
 0002:00009010       $SG99704                   0044d010     BouncingBallMain.obj
 0002:00009038       $SG99756                   0044d038     BouncingBallMain.obj
 0002:0000909c       $SG100001                  0044d09c     BouncingBallMain.obj
 0002:000090b8       $SG100002                  0044d0b8     BouncingBallMain.obj
 0002:000090c0       $SG100003                  0044d0c0     BouncingBallMain.obj
 0002:00009128       $SG100004                  0044d128     BouncingBallMain.obj
 0002:000091f0       $SG100005                  0044d1f0     BouncingBallMain.obj
 0002:000091f4       $SG100006                  0044d1f4     BouncingBallMain.obj
 0002:0000922c       $SG89054                   0044d22c     BouncingBallMain.obj
 0002:00009230       $SG89056                   0044d230     BouncingBallMain.obj
 0002:00009234       $SG89058                   0044d234     BouncingBallMain.obj
 0002:00009238       $SG89062                   0044d238     BouncingBallMain.obj
 0002:00009250       $SG89063                   0044d250     BouncingBallMain.obj
 0002:00009448       $SG99773                   0044d448     ZoomingDemo.obj
 0002:0000945c       $SG99774                   0044d45c     ZoomingDemo.obj
 0002:00009460       $SG99775                   0044d460     ZoomingDemo.obj
 0002:000094c8       $SG99776                   0044d4c8     ZoomingDemo.obj
 0002:0000958c       $SG99777                   0044d58c     ZoomingDemo.obj
 0002:00009590       $SG99778                   0044d590     ZoomingDemo.obj
 0002:000095b8       $SG99830                   0044d5b8     ZoomingDemo.obj
 0002:0000961c       $SG100540                  0044d61c     ZoomingDemo.obj
 0002:00009638       $SG100541                  0044d638     ZoomingDemo.obj
 0002:00009640       $SG100542                  0044d640     ZoomingDemo.obj
 0002:000096a8       $SG100543                  0044d6a8     ZoomingDemo.obj
 0002:00009770       $SG100544                  0044d770     ZoomingDemo.obj
 0002:00009774       $SG100545                  0044d774     ZoomingDemo.obj
 0002:000097ac       $SG89095                   0044d7ac     ZoomingDemo.obj
 0002:000097b8       $SG89097                   0044d7b8     ZoomingDemo.obj
 0002:000097c4       $SG89098                   0044d7c4     ZoomingDemo.obj
 0002:000097d0       $SG89103                   0044d7d0     ZoomingDemo.obj
 0002:000097e4       $SG89104                   0044d7e4     ZoomingDemo.obj
 0002:000097fc       $SG89106                   0044d7fc     ZoomingDemo.obj
 0002:0000980c       $SG89111                   0044d80c     ZoomingDemo.obj
 0002:00009818       $SG89112                   0044d818     ZoomingDemo.obj
 0002:00009940       $SG99536                   0044d940     MazeDemoMain.obj
 0002:00009954       $SG99537                   0044d954     MazeDemoMain.obj
 0002:00009958       $SG99538                   0044d958     MazeDemoMain.obj
 0002:000099c0       $SG99539                   0044d9c0     MazeDemoMain.obj
 0002:00009a84       $SG99540                   0044da84     MazeDemoMain.obj
 0002:00009a88       $SG99541                   0044da88     MazeDemoMain.obj
 0002:00009ab0       $SG99593                   0044dab0     MazeDemoMain.obj
 0002:00009b14       $SG99838                   0044db14     MazeDemoMain.obj
 0002:00009b30       $SG99839                   0044db30     MazeDemoMain.obj
 0002:00009b38       $SG99840                   0044db38     MazeDemoMain.obj
 0002:00009ba0       $SG99841                   0044dba0     MazeDemoMain.obj
 0002:00009c68       $SG99842                   0044dc68     MazeDemoMain.obj
 0002:00009c6c       $SG99843                   0044dc6c     MazeDemoMain.obj
 0002:00009ca4       $SG88756                   0044dca4     MazeDemoMain.obj
 0002:00009cbc       $SG88757                   0044dcbc     MazeDemoMain.obj
 0002:00009cd4       $SG88758                   0044dcd4     MazeDemoMain.obj
 0002:00009cec       $SG88759                   0044dcec     MazeDemoMain.obj
 0002:00009d04       $SG88760                   0044dd04     MazeDemoMain.obj
 0002:00009d1c       $SG88761                   0044dd1c     MazeDemoMain.obj
 0002:00009d34       $SG88762                   0044dd34     MazeDemoMain.obj
 0002:00009d4c       $SG88763                   0044dd4c     MazeDemoMain.obj
 0002:00009d64       $SG88764                   0044dd64     MazeDemoMain.obj
 0002:00009d7c       $SG88765                   0044dd7c     MazeDemoMain.obj
 0002:00009d94       $SG88766                   0044dd94     MazeDemoMain.obj
 0002:00009dac       $SG88793                   0044ddac     MazeDemoMain.obj
 0002:00009dd0       $SG88795                   0044ddd0     MazeDemoMain.obj
 0002:00009dd8       $SG88797                   0044ddd8     MazeDemoMain.obj
 0002:00009fc8       $SG99422                   0044dfc8     MazeDemoObject.obj
 0002:00009fdc       $SG99423                   0044dfdc     MazeDemoObject.obj
 0002:00009fe0       $SG99424                   0044dfe0     MazeDemoObject.obj
 0002:0000a048       $SG99425                   0044e048     MazeDemoObject.obj
 0002:0000a10c       $SG99426                   0044e10c     MazeDemoObject.obj
 0002:0000a110       $SG99427                   0044e110     MazeDemoObject.obj
 0002:0000a138       $SG99479                   0044e138     MazeDemoObject.obj
 0002:0000a19c       $SG99724                   0044e19c     MazeDemoObject.obj
 0002:0000a1b8       $SG99725                   0044e1b8     MazeDemoObject.obj
 0002:0000a1c0       $SG99726                   0044e1c0     MazeDemoObject.obj
 0002:0000a228       $SG99727                   0044e228     MazeDemoObject.obj
 0002:0000a2f0       $SG99728                   0044e2f0     MazeDemoObject.obj
 0002:0000a2f4       $SG99729                   0044e2f4     MazeDemoObject.obj
 0002:0000a420       $SG99203                   0044e420     MazeDemoTileManager.obj
 0002:0000a434       $SG99204                   0044e434     MazeDemoTileManager.obj
 0002:0000a438       $SG99205                   0044e438     MazeDemoTileManager.obj
 0002:0000a4a0       $SG99206                   0044e4a0     MazeDemoTileManager.obj
 0002:0000a564       $SG99207                   0044e564     MazeDemoTileManager.obj
 0002:0000a568       $SG99208                   0044e568     MazeDemoTileManager.obj
 0002:0000a590       $SG99260                   0044e590     MazeDemoTileManager.obj
 0002:0000a5f4       $SG99505                   0044e5f4     MazeDemoTileManager.obj
 0002:0000a610       $SG99506                   0044e610     MazeDemoTileManager.obj
 0002:0000a618       $SG99507                   0044e618     MazeDemoTileManager.obj
 0002:0000a680       $SG99508                   0044e680     MazeDemoTileManager.obj
 0002:0000a748       $SG99509                   0044e748     MazeDemoTileManager.obj
 0002:0000a74c       $SG99510                   0044e74c     MazeDemoTileManager.obj
 0002:0000a840       ?_Sign_corrections@?1??_Sign_correction@_Minmax_traits_1@?A0x8417fefe@@SA?AT__m128i@@T4@_N@Z@4QAY0BA@$$CBEA 0044e840     msvcprtd:vector_algorithms.obj
 0002:0000a870       ?_Sign_corrections@?1??_Sign_correction@_Minmax_traits_2@?A0x8417fefe@@SA?AT__m128i@@T4@_N@Z@4QAY07$$CBGA 0044e870     msvcprtd:vector_algorithms.obj
 0002:0000a898       ?_Shuf@?1??_Get_v_pos@_Minmax_traits_2@?A0x8417fefe@@SAGT__m128i@@K@Z@4QBGB 0044e898     msvcprtd:vector_algorithms.obj
 0002:0000a8b0       ?_Sign_corrections@?1??_Sign_correction@_Minmax_traits_4@?A0x8417fefe@@SA?AT__m128i@@T4@_N@Z@4QAY03$$CBIA 0044e8b0     msvcprtd:vector_algorithms.obj
 0002:0000a8e0       ?_Sign_corrections@?1??_Sign_correction@_Minmax_traits_8@?A0x8417fefe@@SA?AT__m128i@@T4@_N@Z@4QAY01$$CB_KA 0044e8e0     msvcprtd:vector_algorithms.obj
 0002:0000ab08       _GS_ExceptionPointers      0044eb08     MSVCRTD:gs_report.obj
 0002:0000cd58       __unwindtable$??0?$basic_string@DU?$char_traits@D@std@@V?$allocator@D@2@@std@@QAE@ABV01@@Z 00450d58     CrimsonWasteland2.obj
 0002:0000cd60       __ehfuncinfo$??0?$basic_string@DU?$char_traits@D@std@@V?$allocator@D@2@@std@@QAE@ABV01@@Z 00450d60     CrimsonWasteland2.obj
 0002:0000cd88       __unwindtable$??0?$basic_string@DU?$char_traits@D@std@@V?$allocator@D@2@@std@@QAE@QBD@Z 00450d88     CrimsonWasteland2.obj
 0002:0000cd90       __ehfuncinfo$??0?$basic_string@DU?$char_traits@D@std@@V?$allocator@D@2@@std@@QAE@QBD@Z 00450d90     CrimsonWasteland2.obj
 0002:0000cdb8       __ehfuncinfo$?_Deallocate_for_capacity@?$basic_string@DU?$char_traits@D@std@@V?$allocator@D@2@@std@@CAXAAV?$allocator@D@2@QADI@Z 00450db8     CrimsonWasteland2.obj
 0002:0000cde0       __ehfuncinfo$??0?$basic_string@DU?$char_traits@D@std@@V?$allocator@D@2@@std@@QAE@$$QAV01@@Z 00450de0     CrimsonWasteland2.obj
 0002:0000ce08       __unwindtable$??0?$basic_string@DU?$char_traits@D@std@@V?$allocator@D@2@@std@@QAE@U_String_constructor_concat_tag@1@ABV01@QBDI2I@Z 00450e08     CrimsonWasteland2.obj
 0002:0000ce18       __ehfuncinfo$??0?$basic_string@DU?$char_traits@D@std@@V?$allocator@D@2@@std@@QAE@U_String_constructor_concat_tag@1@ABV01@QBDI2I@Z 00450e18     CrimsonWasteland2.obj
 0002:0000ce44       __catchsym$??$?6U?$char_traits@D@std@@@std@@YAAAV?$basic_ostream@DU?$char_traits@D@std@@@0@AAV10@PBD@Z$3 00450e44     CrimsonWasteland2.obj
 0002:0000ce54       __tryblocktable$??$?6U?$char_traits@D@std@@@std@@YAAAV?$basic_ostream@DU?$char_traits@D@std@@@0@AAV10@PBD@Z 00450e54     CrimsonWasteland2.obj
 0002:0000ce68       __unwindtable$??$?6U?$char_traits@D@std@@@std@@YAAAV?$basic_ostream@DU?$char_traits@D@std@@@0@AAV10@PBD@Z 00450e68     CrimsonWasteland2.obj
 0002:0000ce80       __ehfuncinfo$??$?6U?$char_traits@D@std@@@std@@YAAAV?$basic_ostream@DU?$char_traits@D@std@@@0@AAV10@PBD@Z 00450e80     CrimsonWasteland2.obj
 0002:0000ceb0       __unwindtable$?setAllObjectsVisible@DisplayableObjectContainer@@QBEX_N@Z 00450eb0     CrimsonWasteland2.obj
 0002:0000ceb8       __ehfuncinfo$?setAllObjectsVisible@DisplayableObjectContainer@@QBEX_N@Z 00450eb8     CrimsonWasteland2.obj
 0002:0000cee0       __ehfuncinfo$?erase@?$vector@PAVDisplayableObject@@V?$allocator@PAVDisplayableObject@@@std@@@std@@QAE?AV?$_Vector_iterator@V?$_Vector_val@U?$_Simple_types@PAVDisplayableObject@@@std@@@std@@@2@V?$_Vector_const_iterator@V?$_Vector_val@U?$_Simple_types@PAVDisplayableObject@@@std@@@std@@@2@@Z 00450ee0     CrimsonWasteland2.obj
 0002:0000cf08       __unwindtable$?_Orphan_range_locked@?$vector@PAVDisplayableObject@@V?$allocator@PAVDisplayableObject@@@std@@@std@@ABEXPAPAVDisplayableObject@@0@Z 00450f08     CrimsonWasteland2.obj
 0002:0000cf10       __ehfuncinfo$?_Orphan_range_locked@?$vector@PAVDisplayableObject@@V?$allocator@PAVDisplayableObject@@@std@@@std@@ABEXPAPAVDisplayableObject@@0@Z 00450f10     CrimsonWasteland2.obj
 0002:0000cf38       __unwindtable$??$find@V?$_Vector_iterator@V?$_Vector_val@U?$_Simple_types@PAVDisplayableObject@@@std@@@std@@@std@@PAVDisplayableObject@@@std@@YA?AV?$_Vector_iterator@V?$_Vector_val@U?$_Simple_types@PAVDisplayableObject@@@std@@@std@@@0@V10@V10@ABQAVDisplayableObject@@@Z 00450f38     CrimsonWasteland2.obj
 0002:0000cf48       __ehfuncinfo$??$find@V?$_Vector_iterator@V?$_Vector_val@U?$_Simple_types@PAVDisplayableObject@@@std@@@std@@@std@@PAVDisplayableObject@@@std@@YA?AV?$_Vector_iterator@V?$_Vector_val@U?$_Simple_types@PAVDisplayableObject@@@std@@@std@@@0@V10@V10@ABQAVDisplayableObject@@@Z 00450f48     CrimsonWasteland2.obj
 0002:0000cf74       __unwindtable$??0RawImageData@@QAE@V?$basic_string@DU?$char_traits@D@std@@V?$allocator@D@2@@std@@@Z 00450f74     CrimsonWasteland2.obj
 0002:0000cf7c       __ehfuncinfo$??0RawImageData@@QAE@V?$basic_string@DU?$char_traits@D@std@@V?$allocator@D@2@@std@@@Z 00450f7c     CrimsonWasteland2.obj
 0002:0000cfa4       __ehfuncinfo$??1RawImageData@@QAE@XZ 00450fa4     CrimsonWasteland2.obj
 0002:0000cfcc       __unwindtable$?loadImage@RawImageData@@QAE_NV?$basic_string@DU?$char_traits@D@std@@V?$allocator@D@2@@std@@HHHHH_N@Z 00450fcc     CrimsonWasteland2.obj
 0002:0000cfd4       __ehfuncinfo$?loadImage@RawImageData@@QAE_NV?$basic_string@DU?$char_traits@D@std@@V?$allocator@D@2@@std@@HHHHH_N@Z 00450fd4     CrimsonWasteland2.obj
 0002:0000cffc       __unwindtable$?_Alloc_sentinel_and_proxy@?$_Tree@V?$_Tmap_traits@V?$basic_string@DU?$char_traits@D@std@@V?$allocator@D@2@@std@@V?$weak_ptr@VRawImageData@@@2@U?$less@V?$basic_string@DU?$char_traits@D@std@@V?$allocator@D@2@@std@@@2@V?$allocator@U?$pair@$$CBV?$basic_string@DU?$char_traits@D@std@@V?$allocator@D@2@@std@@V?$weak_ptr@VRawImageData@@@2@@std@@@2@$0A@@std@@@std@@IAEXXZ 00450ffc     CrimsonWasteland2.obj
 0002:0000d004       __ehfuncinfo$?_Alloc_sentinel_and_proxy@?$_Tree@V?$_Tmap_traits@V?$basic_string@DU?$char_traits@D@std@@V?$allocator@D@2@@std@@V?$weak_ptr@VRawImageData@@@2@U?$less@V?$basic_string@DU?$char_traits@D@std@@V?$allocator@D@2@@std@@@2@V?$allocator@U?$pair@$$CBV?$basic_string@DU?$char_traits@D@std@@V?$allocator@D@2@@std@@V?$weak_ptr@VRawImageData@@@2@@std@@@2@$0A@@std@@@std@@IAEXXZ 00451004     CrimsonWasteland2.obj
 0002:0000d02c       __unwindtable$?_Alloc_sentinel_and_proxy@?$_Tree@V?$_Tmap_traits@V?$basic_string@DU?$char_traits@D@std@@V?$allocator@D@2@@std@@V?$shared_ptr@VRawImageData@@@2@U?$less@V?$basic_string@DU?$char_traits@D@std@@V?$allocator@D@2@@std@@@2@V?$allocator@U?$pair@$$CBV?$basic_string@DU?$char_traits@D@std@@V?$allocator@D@2@@std@@V?$shared_ptr@VRawImageData@@@2@@std@@@2@$0A@@std@@@std@@IAEXXZ 0045102c     CrimsonWasteland2.obj
 0002:0000d034       __ehfuncinfo$?_Alloc_sentinel_and_proxy@?$_Tree@V?$_Tmap_traits@V?$basic_string@DU?$char_traits@D@std@@V?$allocator@D@2@@std@@V?$shared_ptr@VRawImageData@@@2@U?$less@V?$basic_string@DU?$char_traits@D@std@@V?$allocator@D@2@@std@@@2@V?$allocator@U?$pair@$$CBV?$basic_string@DU?$char_traits@D@std@@V?$allocator@D@2@@std@@V?$shared_ptr@VRawImageData@@@2@@std@@@2@$0A@@std@@@std@@IAEXXZ 00451034     CrimsonWasteland2.obj
 0002:0000d05c       __unwindtable$?get@ImageManager@@SAPAV1@XZ 0045105c     CrimsonWasteland2.obj
 0002:0000d064       __ehfuncinfo$?get@ImageManager@@SAPAV1@XZ 00451064     CrimsonWasteland2.obj
 0002:0000d08c       __unwindtable$?loadImage@ImageManager@@SA?AVSimpleImage@@V?$basic_string@DU?$char_traits@D@std@@V?$allocator@D@2@@std@@_N@Z 0045108c     CrimsonWasteland2.obj
 0002:0000d09c       __ehfuncinfo$?loadImage@ImageManager@@SA?AVSimpleImage@@V?$basic_string@DU?$char_traits@D@std@@V?$allocator@D@2@@std@@_N@Z 0045109c     CrimsonWasteland2.obj
 0002:0000d0c8       __unwindtable$??0ImageManager@@QAE@XZ 004510c8     CrimsonWasteland2.obj
 0002:0000d0d0       __ehfuncinfo$??0ImageManager@@QAE@XZ 004510d0     CrimsonWasteland2.obj
 0002:0000d0f8       __ehfuncinfo$?getImagePtrbyURL@ImageManager@@QAE?AV?$shared_ptr@VRawImageData@@@std@@V?$basic_string@DU?$char_traits@D@std@@V?$allocator@D@2@@3@_N1@Z 004510f8     CrimsonWasteland2.obj
 0002:0000d11c       __unwindtable$?getImagePtrbyURL@ImageManager@@QAE?AV?$shared_ptr@VRawImageData@@@std@@V?$basic_string@DU?$char_traits@D@std@@V?$allocator@D@2@@3@_N1@Z 0045111c     CrimsonWasteland2.obj
 0002:0000d154       __unwindtable$?getImagebyURL@ImageManager@@QAE?AVSimpleImage@@V?$basic_string@DU?$char_traits@D@std@@V?$allocator@D@2@@std@@_N1@Z 00451154     CrimsonWasteland2.obj
 0002:0000d15c       __ehfuncinfo$?getImagebyURL@ImageManager@@QAE?AVSimpleImage@@V?$basic_string@DU?$char_traits@D@std@@V?$allocator@D@2@@std@@_N1@Z 0045115c     CrimsonWasteland2.obj
 0002:0000d184       __unwindtable$?loadAsNew@ImageManager@@QAE?AV?$shared_ptr@VRawImageData@@@std@@V?$basic_string@DU?$char_traits@D@std@@V?$allocator@D@2@@3@@Z 00451184     CrimsonWasteland2.obj
 0002:0000d194       __ehfuncinfo$?loadAsNew@ImageManager@@QAE?AV?$shared_ptr@VRawImageData@@@std@@V?$basic_string@DU?$char_traits@D@std@@V?$allocator@D@2@@3@@Z 00451194     CrimsonWasteland2.obj
 0002:0000d1c0       __unwindtable$??$?0VRawImageData@@$0A@@?$shared_ptr@VRawImageData@@@std@@QAE@PAVRawImageData@@@Z 004511c0     CrimsonWasteland2.obj
 0002:0000d1d0       __ehfuncinfo$??$?0VRawImageData@@$0A@@?$shared_ptr@VRawImageData@@@std@@QAE@PAVRawImageData@@@Z 004511d0     CrimsonWasteland2.obj
 0002:0000d1fc       __unwindtable$??0ImageObject@@QAE@PAVBaseEngine@@V?$basic_string@DU?$char_traits@D@std@@V?$allocator@D@2@@std@@HH_N@Z 004511fc     CrimsonWasteland2.obj
 0002:0000d21c       __ehfuncinfo$??0ImageObject@@QAE@PAVBaseEngine@@V?$basic_string@DU?$char_traits@D@std@@V?$allocator@D@2@@std@@HH_N@Z 0045121c     CrimsonWasteland2.obj
 0002:0000d248       __unwindtable$??0ClickableImageObject@@QAE@PAVBaseEngine@@V?$basic_string@DU?$char_traits@D@std@@V?$allocator@D@2@@std@@HH_N@Z 00451248     CrimsonWasteland2.obj
 0002:0000d268       __ehfuncinfo$??0ClickableImageObject@@QAE@PAVBaseEngine@@V?$basic_string@DU?$char_traits@D@std@@V?$allocator@D@2@@std@@HH_N@Z 00451268     CrimsonWasteland2.obj
 0002:0000d294       __unwindtable$??0TextBoxObject@@QAE@PAVBaseEngine@@HH@Z 00451294     CrimsonWasteland2.obj
 0002:0000d2a4       __ehfuncinfo$??0TextBoxObject@@QAE@PAVBaseEngine@@HH@Z 004512a4     CrimsonWasteland2.obj
 0002:0000d2d0       __ehfuncinfo$??0CrimsonWasteland2TileManager@@QAE@XZ 004512d0     CrimsonWasteland2.obj
 0002:0000d2f4       __unwindtable$??0CrimsonWasteland2TileManager@@QAE@XZ 004512f4     CrimsonWasteland2.obj
 0002:0000d340       __unwindtable$?virtInitialiseObjects@CrimsonWasteland2@@UAEHXZ 00451340     CrimsonWasteland2.obj
 0002:0000d348       __unwindtable$?virtSetupBackgroundBuffer@CrimsonWasteland2@@UAEXXZ 00451348     CrimsonWasteland2.obj
 0002:0000d358       __unwindtable$?virtDrawStringsUnderneath@CrimsonWasteland2@@UAEXXZ 00451358     CrimsonWasteland2.obj
 0002:0000d370       __ehfuncinfo$?virtMouseDown@CrimsonWasteland2@@UAEXHHH@Z 00451370     CrimsonWasteland2.obj
 0002:0000d394       __ehfuncinfo$?virtDrawStringsUnderneath@CrimsonWasteland2@@UAEXXZ 00451394     CrimsonWasteland2.obj
 0002:0000d3b8       __ehfuncinfo$?virtDrawStringsOnTop@CrimsonWasteland2@@UAEXXZ 004513b8     CrimsonWasteland2.obj
 0002:0000d3dc       __ehfuncinfo$?virtInitialiseObjects@CrimsonWasteland2@@UAEHXZ 004513dc     CrimsonWasteland2.obj
 0002:0000d400       __ehfuncinfo$?virtSetupBackgroundBuffer@CrimsonWasteland2@@UAEXXZ 00451400     CrimsonWasteland2.obj
 0002:0000d424       __ehfuncinfo$??0CrimsonWasteland2@@QAE@XZ 00451424     CrimsonWasteland2.obj
 0002:0000d448       __unwindtable$??0CrimsonWasteland2@@QAE@XZ 00451448     CrimsonWasteland2.obj
 0002:0000d488       __unwindtable$?virtMouseDown@CrimsonWasteland2@@UAEXHHH@Z 00451488     CrimsonWasteland2.obj
 0002:0000d4d0       __unwindtable$?virtDrawStringsOnTop@CrimsonWasteland2@@UAEXXZ 004514d0     CrimsonWasteland2.obj
 0002:0000d584       __ehfuncinfo$?_Tidy@?$vector@V?$basic_string@DU?$char_traits@D@std@@V?$allocator@D@2@@std@@V?$allocator@V?$basic_string@DU?$char_traits@D@std@@V?$allocator@D@2@@std@@@2@@std@@AAEXXZ 00451584     CrimsonWasteland2.obj
 0002:0000d5ac       __ehfuncinfo$??0Lives@@QAE@PAVBaseEngine@@PAVCrimsonWasteland2@@H@Z 004515ac     CrimsonWasteland2.obj
 0002:0000d5d0       __unwindtable$??0Lives@@QAE@PAVBaseEngine@@PAVCrimsonWasteland2@@H@Z 004515d0     CrimsonWasteland2.obj
 0002:0000d600       __unwindtable$?virtDraw@Lives@@UAEXXZ 00451600     CrimsonWasteland2.obj
 0002:0000d608       __ehfuncinfo$?virtDraw@Lives@@UAEXXZ 00451608     CrimsonWasteland2.obj
 0002:0000d630       __unwindtable$??0Bullet@@QAE@PAVBaseEngine@@HHV?$basic_string@DU?$char_traits@D@std@@V?$allocator@D@2@@std@@@Z 00451630     CrimsonWasteland2.obj
 0002:0000d648       __ehfuncinfo$??0Bullet@@QAE@PAVBaseEngine@@HHV?$basic_string@DU?$char_traits@D@std@@V?$allocator@D@2@@std@@@Z 00451648     CrimsonWasteland2.obj
 0002:0000d674       __unwindtable$??0Player@@QAE@PAVBaseEngine@@HH_N@Z 00451674     CrimsonWasteland2.obj
 0002:0000d684       __ehfuncinfo$??0Player@@QAE@PAVBaseEngine@@HH_N@Z 00451684     CrimsonWasteland2.obj
 0002:0000d6b0       __ehfuncinfo$?virtDraw@Player@@UAEXXZ 004516b0     CrimsonWasteland2.obj
 0002:0000d6d4       __unwindtable$?virtDraw@Player@@UAEXXZ 004516d4     CrimsonWasteland2.obj
 0002:0000d718       __unwindtable$?handleShooting@Player@@QAEXH@Z 00451718     CrimsonWasteland2.obj
 0002:0000d728       __ehfuncinfo$?handleShooting@Player@@QAEXH@Z 00451728     CrimsonWasteland2.obj
 0002:0000d754       __unwindtable$??0Zombie@@QAE@PAVBaseEngine@@PAVPlayer@@HH_N@Z 00451754     CrimsonWasteland2.obj
 0002:0000d75c       __ehfuncinfo$??0Zombie@@QAE@PAVBaseEngine@@PAVPlayer@@HH_N@Z 0045175c     CrimsonWasteland2.obj
 0002:0000d784       __unwindtable$?virtDraw@Zombie@@UAEXXZ 00451784     CrimsonWasteland2.obj
 0002:0000d794       __ehfuncinfo$?virtDraw@Zombie@@UAEXXZ 00451794     CrimsonWasteland2.obj
 0002:0000d7c0       __unwindtable$??$find@V?$_Vector_iterator@V?$_Vector_val@U?$_Simple_types@V?$basic_string@DU?$char_traits@D@std@@V?$allocator@D@2@@std@@@std@@@std@@@std@@V?$basic_string@DU?$char_traits@D@std@@V?$allocator@D@2@@2@@std@@YA?AV?$_Vector_iterator@V?$_Vector_val@U?$_Simple_types@V?$basic_string@DU?$char_traits@D@std@@V?$allocator@D@2@@std@@@std@@@std@@@0@V10@V10@ABV?$basic_string@DU?$char_traits@D@std@@V?$allocator@D@2@@0@@Z 004517c0     CrimsonWasteland2.obj
 0002:0000d7d0       __ehfuncinfo$??$find@V?$_Vector_iterator@V?$_Vector_val@U?$_Simple_types@V?$basic_string@DU?$char_traits@D@std@@V?$allocator@D@2@@std@@@std@@@std@@@std@@V?$basic_string@DU?$char_traits@D@std@@V?$allocator@D@2@@2@@std@@YA?AV?$_Vector_iterator@V?$_Vector_val@U?$_Simple_types@V?$basic_string@DU?$char_traits@D@std@@V?$allocator@D@2@@std@@@std@@@std@@@0@V10@V10@ABV?$basic_string@DU?$char_traits@D@std@@V?$allocator@D@2@@0@@Z 004517d0     CrimsonWasteland2.obj
 0002:0000d7fc       __unwindtable$??$_Construct_n@PBV?$basic_string@DU?$char_traits@D@std@@V?$allocator@D@2@@std@@PBV12@@?$vector@V?$basic_string@DU?$char_traits@D@std@@V?$allocator@D@2@@std@@V?$allocator@V?$basic_string@DU?$char_traits@D@std@@V?$allocator@D@2@@std@@@2@@std@@AAEXI$$QAPBV?$basic_string@DU?$char_traits@D@std@@V?$allocator@D@2@@1@0@Z 004517fc     CrimsonWasteland2.obj
 0002:0000d80c       __ehfuncinfo$??$_Construct_n@PBV?$basic_string@DU?$char_traits@D@std@@V?$allocator@D@2@@std@@PBV12@@?$vector@V?$basic_string@DU?$char_traits@D@std@@V?$allocator@D@2@@std@@V?$allocator@V?$basic_string@DU?$char_traits@D@std@@V?$allocator@D@2@@std@@@2@@std@@AAEXI$$QAPBV?$basic_string@DU?$char_traits@D@std@@V?$allocator@D@2@@1@0@Z 0045180c     CrimsonWasteland2.obj
 0002:0000d838       __ehfuncinfo$??1_Sentry_base@?$basic_ostream@DU?$char_traits@D@std@@@std@@QAE@XZ 00451838     CrimsonWasteland2.obj
 0002:0000d860       __unwindtable$??0sentry@?$basic_ostream@DU?$char_traits@D@std@@@std@@QAE@AAV12@@Z 00451860     CrimsonWasteland2.obj
 0002:0000d868       __ehfuncinfo$??0sentry@?$basic_ostream@DU?$char_traits@D@std@@@std@@QAE@AAV12@@Z 00451868     CrimsonWasteland2.obj
 0002:0000d890       __unwindtable$??$_Construct@$00PBD@?$basic_string@DU?$char_traits@D@std@@V?$allocator@D@2@@std@@AAEXQBDI@Z 00451890     CrimsonWasteland2.obj
 0002:0000d898       __ehfuncinfo$??$_Construct@$00PBD@?$basic_string@DU?$char_traits@D@std@@V?$allocator@D@2@@std@@AAEXQBDI@Z 00451898     CrimsonWasteland2.obj
 0002:0000d8c0       __unwindtable$??$_Construct@$01PBD@?$basic_string@DU?$char_traits@D@std@@V?$allocator@D@2@@std@@AAEXQBDI@Z 004518c0     CrimsonWasteland2.obj
 0002:0000d8c8       __ehfuncinfo$??$_Construct@$01PBD@?$basic_string@DU?$char_traits@D@std@@V?$allocator@D@2@@std@@AAEXQBDI@Z 004518c8     CrimsonWasteland2.obj
 0002:0000d8f0       __ehfuncinfo$??$_Destroy_range@V?$allocator@V?$basic_string@DU?$char_traits@D@std@@V?$allocator@D@2@@std@@@std@@@std@@YAXPAV?$basic_string@DU?$char_traits@D@std@@V?$allocator@D@2@@0@QAV10@AAV?$allocator@V?$basic_string@DU?$char_traits@D@std@@V?$allocator@D@2@@std@@@0@@Z 004518f0     CrimsonWasteland2.obj
 0002:0000d918       __ehfuncinfo$??$_Deallocate@$07$0A@@std@@YAXPAXI@Z 00451918     CrimsonWasteland2.obj
 0002:0000d940       __catchsym$??$_Insert_string@DU?$char_traits@D@std@@I@std@@YAAAV?$basic_ostream@DU?$char_traits@D@std@@@0@AAV10@QBDI@Z$3 00451940     CrimsonWasteland2.obj
 0002:0000d950       __tryblocktable$??$_Insert_string@DU?$char_traits@D@std@@I@std@@YAAAV?$basic_ostream@DU?$char_traits@D@std@@@0@AAV10@QBDI@Z 00451950     CrimsonWasteland2.obj
 0002:0000d964       __unwindtable$??$_Insert_string@DU?$char_traits@D@std@@I@std@@YAAAV?$basic_ostream@DU?$char_traits@D@std@@@0@AAV10@QBDI@Z 00451964     CrimsonWasteland2.obj
 0002:0000d97c       __ehfuncinfo$??$_Insert_string@DU?$char_traits@D@std@@I@std@@YAAAV?$basic_ostream@DU?$char_traits@D@std@@@0@AAV10@QBDI@Z 0045197c     CrimsonWasteland2.obj
 0002:0000d9ac       __ehfuncinfo$??$_Deallocate_plain@V?$allocator@U_Container_proxy@std@@@std@@@std@@YAXAAV?$allocator@U_Container_proxy@std@@@0@QAU_Container_proxy@0@@Z 004519ac     CrimsonWasteland2.obj
 0002:0000d9d4       __unwindtable$??$_Uninitialized_copy@PBV?$basic_string@DU?$char_traits@D@std@@V?$allocator@D@2@@std@@PBV12@V?$allocator@V?$basic_string@DU?$char_traits@D@std@@V?$allocator@D@2@@std@@@2@@std@@YAPAV?$basic_string@DU?$char_traits@D@std@@V?$allocator@D@2@@0@PBV10@0PAV10@AAV?$allocator@V?$basic_string@DU?$char_traits@D@std@@V?$allocator@D@2@@std@@@0@@Z 004519d4     CrimsonWasteland2.obj
 0002:0000d9dc       __ehfuncinfo$??$_Uninitialized_copy@PBV?$basic_string@DU?$char_traits@D@std@@V?$allocator@D@2@@std@@PBV12@V?$allocator@V?$basic_string@DU?$char_traits@D@std@@V?$allocator@D@2@@std@@@2@@std@@YAPAV?$basic_string@DU?$char_traits@D@std@@V?$allocator@D@2@@0@PBV10@0PAV10@AAV?$allocator@V?$basic_string@DU?$char_traits@D@std@@V?$allocator@D@2@@std@@@0@@Z 004519dc     CrimsonWasteland2.obj
 0002:0000da04       __ehfuncinfo$??$_Freenode0@V?$allocator@U?$_Tree_node@U?$pair@$$CBV?$basic_string@DU?$char_traits@D@std@@V?$allocator@D@2@@std@@V?$weak_ptr@VRawImageData@@@2@@std@@PAX@std@@@std@@@?$_Tree_node@U?$pair@$$CBV?$basic_string@DU?$char_traits@D@std@@V?$allocator@D@2@@std@@V?$weak_ptr@VRawImageData@@@2@@std@@PAX@std@@SAXAAV?$allocator@U?$_Tree_node@U?$pair@$$CBV?$basic_string@DU?$char_traits@D@std@@V?$allocator@D@2@@std@@V?$weak_ptr@VRawImageData@@@2@@std@@PAX@std@@@1@PAU01@@Z 00451a04     CrimsonWasteland2.obj
 0002:0000da2c       __catchsym$??$_Resize_reallocate@U_Value_init_tag@std@@@?$vector@PAVDisplayableObject@@V?$allocator@PAVDisplayableObject@@@std@@@std@@AAEXIABU_Value_init_tag@1@@Z$2 00451a2c     CrimsonWasteland2.obj
 0002:0000da3c       __unwindtable$??$_Resize_reallocate@U_Value_init_tag@std@@@?$vector@PAVDisplayableObject@@V?$allocator@PAVDisplayableObject@@@std@@@std@@AAEXIABU_Value_init_tag@1@@Z 00451a3c     CrimsonWasteland2.obj
 0002:0000da4c       __tryblocktable$??$_Resize_reallocate@U_Value_init_tag@std@@@?$vector@PAVDisplayableObject@@V?$allocator@PAVDisplayableObject@@@std@@@std@@AAEXIABU_Value_init_tag@1@@Z 00451a4c     CrimsonWasteland2.obj
 0002:0000da60       __ehfuncinfo$??$_Resize_reallocate@U_Value_init_tag@std@@@?$vector@PAVDisplayableObject@@V?$allocator@PAVDisplayableObject@@@std@@@std@@AAEXIABU_Value_init_tag@1@@Z 00451a60     CrimsonWasteland2.obj
 0002:0000da8c       __unwindtable$??$_Uninitialized_value_construct_n@V?$allocator@PAVDisplayableObject@@@std@@@std@@YAPAPAVDisplayableObject@@PAPAV1@IAAV?$allocator@PAVDisplayableObject@@@0@@Z 00451a8c     CrimsonWasteland2.obj
 0002:0000da94       __ehfuncinfo$??$_Uninitialized_value_construct_n@V?$allocator@PAVDisplayableObject@@@std@@@std@@YAPAPAVDisplayableObject@@PAPAV1@IAAV?$allocator@PAVDisplayableObject@@@0@@Z 00451a94     CrimsonWasteland2.obj
 0002:0000dabc       __ehfuncinfo$??$_Freenode@V?$allocator@U?$_Tree_node@U?$pair@$$CBV?$basic_string@DU?$char_traits@D@std@@V?$allocator@D@2@@std@@V?$weak_ptr@VRawImageData@@@2@@std@@PAX@std@@@std@@@?$_Tree_node@U?$pair@$$CBV?$basic_string@DU?$char_traits@D@std@@V?$allocator@D@2@@std@@V?$weak_ptr@VRawImageData@@@2@@std@@PAX@std@@SAXAAV?$allocator@U?$_Tree_node@U?$pair@$$CBV?$basic_string@DU?$char_traits@D@std@@V?$allocator@D@2@@std@@V?$weak_ptr@VRawImageData@@@2@@std@@PAX@std@@@1@PAU01@@Z 00451abc     CrimsonWasteland2.obj
 0002:0000dae4       __unwindtable$??$_Uninitialized_move@PAPAVDisplayableObject@@V?$allocator@PAVDisplayableObject@@@std@@@std@@YAPAPAVDisplayableObject@@QAPAV1@0PAPAV1@AAV?$allocator@PAVDisplayableObject@@@0@@Z 00451ae4     CrimsonWasteland2.obj
 0002:0000daec       __ehfuncinfo$??$_Uninitialized_move@PAPAVDisplayableObject@@V?$allocator@PAVDisplayableObject@@@std@@@std@@YAPAPAVDisplayableObject@@QAPAV1@0PAPAV1@AAV?$allocator@PAVDisplayableObject@@@0@@Z 00451aec     CrimsonWasteland2.obj
 0002:0000db14       __ehfuncinfo$??1?$_Alloc_construct_ptr@V?$allocator@U?$_Tree_node@U?$pair@$$CBV?$basic_string@DU?$char_traits@D@std@@V?$allocator@D@2@@std@@V?$weak_ptr@VRawImageData@@@2@@std@@PAX@std@@@std@@@std@@QAE@XZ 00451b14     CrimsonWasteland2.obj
 0002:0000db3c       __unwindtable$??0?$_Tree_temp_node_alloc@V?$allocator@U?$_Tree_node@U?$pair@$$CBV?$basic_string@DU?$char_traits@D@std@@V?$allocator@D@2@@std@@V?$weak_ptr@VRawImageData@@@2@@std@@PAX@std@@@std@@@std@@QAE@AAV?$allocator@U?$_Tree_node@U?$pair@$$CBV?$basic_string@DU?$char_traits@D@std@@V?$allocator@D@2@@std@@V?$weak_ptr@VRawImageData@@@2@@std@@PAX@std@@@1@@Z 00451b3c     CrimsonWasteland2.obj
 0002:0000db44       __ehfuncinfo$??0?$_Tree_temp_node_alloc@V?$allocator@U?$_Tree_node@U?$pair@$$CBV?$basic_string@DU?$char_traits@D@std@@V?$allocator@D@2@@std@@V?$weak_ptr@VRawImageData@@@2@@std@@PAX@std@@@std@@@std@@QAE@AAV?$allocator@U?$_Tree_node@U?$pair@$$CBV?$basic_string@DU?$char_traits@D@std@@V?$allocator@D@2@@std@@V?$weak_ptr@VRawImageData@@@2@@std@@PAX@std@@@1@@Z 00451b44     CrimsonWasteland2.obj
 0002:0000db6c       __ehfuncinfo$??1?$_Tree_temp_node@V?$allocator@U?$_Tree_node@U?$pair@$$CBV?$basic_string@DU?$char_traits@D@std@@V?$allocator@D@2@@std@@V?$weak_ptr@VRawImageData@@@2@@std@@PAX@std@@@std@@@std@@QAE@XZ 00451b6c     CrimsonWasteland2.obj
 0002:0000db94       __unwindtable$??$?0U?$pair@V?$basic_string@DU?$char_traits@D@std@@V?$allocator@D@2@@std@@V?$weak_ptr@VRawImageData@@@2@@std@@@?$_Tree_temp_node@V?$allocator@U?$_Tree_node@U?$pair@$$CBV?$basic_string@DU?$char_traits@D@std@@V?$allocator@D@2@@std@@V?$weak_ptr@VRawImageData@@@2@@std@@PAX@std@@@std@@@std@@QAE@AAV?$allocator@U?$_Tree_node@U?$pair@$$CBV?$basic_string@DU?$char_traits@D@std@@V?$allocator@D@2@@std@@V?$weak_ptr@VRawImageData@@@2@@std@@PAX@std@@@1@PAU?$_Tree_node@U?$pair@$$CBV?$basic_string@DU?$char_traits@D@std@@V?$allocator@D@2@@std@@V?$weak_ptr@VRawImageData@@@2@@std@@PAX@1@$$QAU?$pair@V?$basic_string@DU?$char_traits@D@std@@V?$allocator@D@2@@std@@V?$weak_ptr@VRawImageData@@@2@@1@@Z 00451b94     CrimsonWasteland2.obj
 0002:0000db9c       __ehfuncinfo$??$?0U?$pair@V?$basic_string@DU?$char_traits@D@std@@V?$allocator@D@2@@std@@V?$weak_ptr@VRawImageData@@@2@@std@@@?$_Tree_temp_node@V?$allocator@U?$_Tree_node@U?$pair@$$CBV?$basic_string@DU?$char_traits@D@std@@V?$allocator@D@2@@std@@V?$weak_ptr@VRawImageData@@@2@@std@@PAX@std@@@std@@@std@@QAE@AAV?$allocator@U?$_Tree_node@U?$pair@$$CBV?$basic_string@DU?$char_traits@D@std@@V?$allocator@D@2@@std@@V?$weak_ptr@VRawImageData@@@2@@std@@PAX@std@@@1@PAU?$_Tree_node@U?$pair@$$CBV?$basic_string@DU?$char_traits@D@std@@V?$allocator@D@2@@std@@V?$weak_ptr@VRawImageData@@@2@@std@@PAX@1@$$QAU?$pair@V?$basic_string@DU?$char_traits@D@std@@V?$allocator@D@2@@std@@V?$weak_ptr@VRawImageData@@@2@@1@@Z 00451b9c     CrimsonWasteland2.obj
 0002:0000dbc4       __ehfuncinfo$??1?$_Alloc_construct_ptr@V?$allocator@U?$_Tree_node@U?$pair@$$CBV?$basic_string@DU?$char_traits@D@std@@V?$allocator@D@2@@std@@V?$shared_ptr@VRawImageData@@@2@@std@@PAX@std@@@std@@@std@@QAE@XZ 00451bc4     CrimsonWasteland2.obj
 0002:0000dbec       __unwindtable$??0?$_Tree_temp_node_alloc@V?$allocator@U?$_Tree_node@U?$pair@$$CBV?$basic_string@DU?$char_traits@D@std@@V?$allocator@D@2@@std@@V?$shared_ptr@VRawImageData@@@2@@std@@PAX@std@@@std@@@std@@QAE@AAV?$allocator@U?$_Tree_node@U?$pair@$$CBV?$basic_string@DU?$char_traits@D@std@@V?$allocator@D@2@@std@@V?$shared_ptr@VRawImageData@@@2@@std@@PAX@std@@@1@@Z 00451bec     CrimsonWasteland2.obj
 0002:0000dbf4       __ehfuncinfo$??0?$_Tree_temp_node_alloc@V?$allocator@U?$_Tree_node@U?$pair@$$CBV?$basic_string@DU?$char_traits@D@std@@V?$allocator@D@2@@std@@V?$shared_ptr@VRawImageData@@@2@@std@@PAX@std@@@std@@@std@@QAE@AAV?$allocator@U?$_Tree_node@U?$pair@$$CBV?$basic_string@DU?$char_traits@D@std@@V?$allocator@D@2@@std@@V?$shared_ptr@VRawImageData@@@2@@std@@PAX@std@@@1@@Z 00451bf4     CrimsonWasteland2.obj
 0002:0000dc1c       __ehfuncinfo$??1?$_Tree_temp_node@V?$allocator@U?$_Tree_node@U?$pair@$$CBV?$basic_string@DU?$char_traits@D@std@@V?$allocator@D@2@@std@@V?$shared_ptr@VRawImageData@@@2@@std@@PAX@std@@@std@@@std@@QAE@XZ 00451c1c     CrimsonWasteland2.obj
 0002:0000dc44       __unwindtable$??$?0U?$pair@V?$basic_string@DU?$char_traits@D@std@@V?$allocator@D@2@@std@@V?$shared_ptr@VRawImageData@@@2@@std@@@?$_Tree_temp_node@V?$allocator@U?$_Tree_node@U?$pair@$$CBV?$basic_string@DU?$char_traits@D@std@@V?$allocator@D@2@@std@@V?$shared_ptr@VRawImageData@@@2@@std@@PAX@std@@@std@@@std@@QAE@AAV?$allocator@U?$_Tree_node@U?$pair@$$CBV?$basic_string@DU?$char_traits@D@std@@V?$allocator@D@2@@std@@V?$shared_ptr@VRawImageData@@@2@@std@@PAX@std@@@1@PAU?$_Tree_node@U?$pair@$$CBV?$basic_string@DU?$char_traits@D@std@@V?$allocator@D@2@@std@@V?$shared_ptr@VRawImageData@@@2@@std@@PAX@1@$$QAU?$pair@V?$basic_string@DU?$char_traits@D@std@@V?$allocator@D@2@@std@@V?$shared_ptr@VRawImageData@@@2@@1@@Z 00451c44     CrimsonWasteland2.obj
 0002:0000dc4c       __ehfuncinfo$??$?0U?$pair@V?$basic_string@DU?$char_traits@D@std@@V?$allocator@D@2@@std@@V?$shared_ptr@VRawImageData@@@2@@std@@@?$_Tree_temp_node@V?$allocator@U?$_Tree_node@U?$pair@$$CBV?$basic_string@DU?$char_traits@D@std@@V?$allocator@D@2@@std@@V?$shared_ptr@VRawImageData@@@2@@std@@PAX@std@@@std@@@std@@QAE@AAV?$allocator@U?$_Tree_node@U?$pair@$$CBV?$basic_string@DU?$char_traits@D@std@@V?$allocator@D@2@@std@@V?$shared_ptr@VRawImageData@@@2@@std@@PAX@std@@@1@PAU?$_Tree_node@U?$pair@$$CBV?$basic_string@DU?$char_traits@D@std@@V?$allocator@D@2@@std@@V?$shared_ptr@VRawImageData@@@2@@std@@PAX@1@$$QAU?$pair@V?$basic_string@DU?$char_traits@D@std@@V?$allocator@D@2@@std@@V?$shared_ptr@VRawImageData@@@2@@1@@Z 00451c4c     CrimsonWasteland2.obj
 0002:0000dcfc       __unwindtable$??0DragableObject@@QAE@PAVBaseEngine@@HH_N1@Z 00451cfc     DraggingDemo.obj
 0002:0000dd04       __ehfuncinfo$??0DragableObject@@QAE@PAVBaseEngine@@HH_N1@Z 00451d04     DraggingDemo.obj
 0002:0000dd2c       __unwindtable$??0DragableObject@@QAE@HHPAVBaseEngine@@HH_N1@Z 00451d2c     DraggingDemo.obj
 0002:0000dd34       __ehfuncinfo$??0DragableObject@@QAE@HHPAVBaseEngine@@HH_N1@Z 00451d34     DraggingDemo.obj
 0002:0000dd5c       __unwindtable$??0DragableImageObject@@QAE@HHPAVBaseEngine@@V?$basic_string@DU?$char_traits@D@std@@V?$allocator@D@2@@std@@_N2@Z 00451d5c     DraggingDemo.obj
 0002:0000dd7c       __ehfuncinfo$??0DragableImageObject@@QAE@HHPAVBaseEngine@@V?$basic_string@DU?$char_traits@D@std@@V?$allocator@D@2@@std@@_N2@Z 00451d7c     DraggingDemo.obj
 0002:0000dda8       __ehfuncinfo$?virtInitialiseObjects@DraggingDemo@@UAEHXZ 00451da8     DraggingDemo.obj
 0002:0000ddcc       __unwindtable$?virtInitialiseObjects@DraggingDemo@@UAEHXZ 00451dcc     DraggingDemo.obj
 0002:0000ddfc       __unwindtable$??0ImageObject@@QAE@HHPAVBaseEngine@@V?$basic_string@DU?$char_traits@D@std@@V?$allocator@D@2@@std@@_N2@Z 00451dfc     DraggingDemo.obj
 0002:0000de1c       __ehfuncinfo$??0ImageObject@@QAE@HHPAVBaseEngine@@V?$basic_string@DU?$char_traits@D@std@@V?$allocator@D@2@@std@@_N2@Z 00451e1c     DraggingDemo.obj
 0002:0000de48       __unwindtable$??0FlashingDemo@@QAE@XZ 00451e48     FlashingDemo.obj
 0002:0000de60       __ehfuncinfo$??0FlashingDemo@@QAE@XZ 00451e60     FlashingDemo.obj
 0002:0000de8c       __ehfuncinfo$?virtInitialiseObjects@ImageMappingDemo@@UAEHXZ 00451e8c     ImageMappingDemo.obj
 0002:0000deb0       __unwindtable$?virtInitialiseObjects@ImageMappingDemo@@UAEHXZ 00451eb0     ImageMappingDemo.obj
 0002:0000dee0       __unwindtable$??0MappableImageObject@@QAE@PAVImagePixelMapping@@HHPAVBaseEngine@@V?$basic_string@DU?$char_traits@D@std@@V?$allocator@D@2@@std@@_N3@Z 00451ee0     ImageMappingDemo.obj
 0002:0000dee8       __ehfuncinfo$??0MappableImageObject@@QAE@PAVImagePixelMapping@@HHPAVBaseEngine@@V?$basic_string@DU?$char_traits@D@std@@V?$allocator@D@2@@std@@_N3@Z 00451ee8     ImageMappingDemo.obj
 0002:0000df10       __unwindtable$?doProgram@@YAHHQAPAD@Z 00451f10     mainfunction.obj
 0002:0000df18       __ehfuncinfo$?doProgram@@YAHHQAPAD@Z 00451f18     mainfunction.obj
 0002:0000df40       __ehfuncinfo$??$_Freenode0@V?$allocator@U?$_Tree_node@U?$pair@$$CBV?$basic_string@DU?$char_traits@D@std@@V?$allocator@D@2@@std@@V?$shared_ptr@VRawImageData@@@2@@std@@PAX@std@@@std@@@?$_Tree_node@U?$pair@$$CBV?$basic_string@DU?$char_traits@D@std@@V?$allocator@D@2@@std@@V?$shared_ptr@VRawImageData@@@2@@std@@PAX@std@@SAXAAV?$allocator@U?$_Tree_node@U?$pair@$$CBV?$basic_string@DU?$char_traits@D@std@@V?$allocator@D@2@@std@@V?$shared_ptr@VRawImageData@@@2@@std@@PAX@std@@@1@PAU01@@Z 00451f40     mainfunction.obj
 0002:0000df68       __ehfuncinfo$??$_Freenode@V?$allocator@U?$_Tree_node@U?$pair@$$CBV?$basic_string@DU?$char_traits@D@std@@V?$allocator@D@2@@std@@V?$shared_ptr@VRawImageData@@@2@@std@@PAX@std@@@std@@@?$_Tree_node@U?$pair@$$CBV?$basic_string@DU?$char_traits@D@std@@V?$allocator@D@2@@std@@V?$shared_ptr@VRawImageData@@@2@@std@@PAX@std@@SAXAAV?$allocator@U?$_Tree_node@U?$pair@$$CBV?$basic_string@DU?$char_traits@D@std@@V?$allocator@D@2@@std@@V?$shared_ptr@VRawImageData@@@2@@std@@PAX@std@@@1@PAU01@@Z 00451f68     mainfunction.obj
 0002:0000df90       __ehfuncinfo$??1DisplayableObjectContainer@@UAE@XZ 00451f90     BaseEngine.obj
 0002:0000dfb8       __ehfuncinfo$?_Tidy@?$vector@PAVDisplayableObject@@V?$allocator@PAVDisplayableObject@@@std@@@std@@AAEXXZ 00451fb8     BaseEngine.obj
 0002:0000dfe0       __unwindtable$?updateAllObjects@BaseEngine@@UAEXH@Z 00451fe0     BaseEngine.obj
 0002:0000dff0       __unwindtable$?drawAllObjects@BaseEngine@@UAEXXZ 00451ff0     BaseEngine.obj
 0002:0000e000       __unwindtable$??0BaseEngine@@QAE@XZ 00452000     BaseEngine.obj
 0002:0000e018       __ehfuncinfo$?updateAllObjects@BaseEngine@@UAEXH@Z 00452018     BaseEngine.obj
 0002:0000e03c       __ehfuncinfo$?drawAllObjects@BaseEngine@@UAEXXZ 0045203c     BaseEngine.obj
 0002:0000e060       __ehfuncinfo$??0BaseEngine@@QAE@XZ 00452060     BaseEngine.obj
 0002:0000e094       __unwindtable$??$for_each@V?$_Vector_iterator@V?$_Vector_val@U?$_Simple_types@PAVDisplayableObject@@@std@@@std@@@std@@V<lambda_a53746b1d833b957fc16129550c0b672>@@@std@@YA?AV<lambda_a53746b1d833b957fc16129550c0b672>@@V?$_Vector_iterator@V?$_Vector_val@U?$_Simple_types@PAVDisplayableObject@@@std@@@std@@@0@0V1@@Z 00452094     BaseEngine.obj
 0002:0000e0a4       __ehfuncinfo$??$for_each@V?$_Vector_iterator@V?$_Vector_val@U?$_Simple_types@PAVDisplayableObject@@@std@@@std@@@std@@V<lambda_a53746b1d833b957fc16129550c0b672>@@@std@@YA?AV<lambda_a53746b1d833b957fc16129550c0b672>@@V?$_Vector_iterator@V?$_Vector_val@U?$_Simple_types@PAVDisplayableObject@@@std@@@std@@@0@0V1@@Z 004520a4     BaseEngine.obj
 0002:0000e0d0       __unwindtable$??$for_each@V?$_Vector_iterator@V?$_Vector_val@U?$_Simple_types@PAVDisplayableObject@@@std@@@std@@@std@@V<lambda_578ee31f284bb656f12d1449e2187e67>@@@std@@YA?AV<lambda_578ee31f284bb656f12d1449e2187e67>@@V?$_Vector_iterator@V?$_Vector_val@U?$_Simple_types@PAVDisplayableObject@@@std@@@std@@@0@0V1@@Z 004520d0     BaseEngine.obj
 0002:0000e0e0       __ehfuncinfo$??$for_each@V?$_Vector_iterator@V?$_Vector_val@U?$_Simple_types@PAVDisplayableObject@@@std@@@std@@@std@@V<lambda_578ee31f284bb656f12d1449e2187e67>@@@std@@YA?AV<lambda_578ee31f284bb656f12d1449e2187e67>@@V?$_Vector_iterator@V?$_Vector_val@U?$_Simple_types@PAVDisplayableObject@@@std@@@std@@@0@0V1@@Z 004520e0     BaseEngine.obj
 0002:0000e10c       __unwindtable$??$for_each@V?$_Vector_iterator@V?$_Vector_val@U?$_Simple_types@PAVDisplayableObject@@@std@@@std@@@std@@V<lambda_2df3d392f0e61298437032b81859b414>@@@std@@YA?AV<lambda_2df3d392f0e61298437032b81859b414>@@V?$_Vector_iterator@V?$_Vector_val@U?$_Simple_types@PAVDisplayableObject@@@std@@@std@@@0@0V1@@Z 0045210c     BaseEngine.obj
 0002:0000e11c       __ehfuncinfo$??$for_each@V?$_Vector_iterator@V?$_Vector_val@U?$_Simple_types@PAVDisplayableObject@@@std@@@std@@@std@@V<lambda_2df3d392f0e61298437032b81859b414>@@@std@@YA?AV<lambda_2df3d392f0e61298437032b81859b414>@@V?$_Vector_iterator@V?$_Vector_val@U?$_Simple_types@PAVDisplayableObject@@@std@@@std@@@0@0V1@@Z 0045211c     BaseEngine.obj
 0002:0000e148       __unwindtable$??$for_each@V?$_Vector_iterator@V?$_Vector_val@U?$_Simple_types@PAVDisplayableObject@@@std@@@std@@@std@@V<lambda_6f91fb9d23638d33f7849f0c1f143eee>@@@std@@YA?AV<lambda_6f91fb9d23638d33f7849f0c1f143eee>@@V?$_Vector_iterator@V?$_Vector_val@U?$_Simple_types@PAVDisplayableObject@@@std@@@std@@@0@0V1@@Z 00452148     BaseEngine.obj
 0002:0000e158       __ehfuncinfo$??$for_each@V?$_Vector_iterator@V?$_Vector_val@U?$_Simple_types@PAVDisplayableObject@@@std@@@std@@@std@@V<lambda_6f91fb9d23638d33f7849f0c1f143eee>@@@std@@YA?AV<lambda_6f91fb9d23638d33f7849f0c1f143eee>@@V?$_Vector_iterator@V?$_Vector_val@U?$_Simple_types@PAVDisplayableObject@@@std@@@std@@@0@0V1@@Z 00452158     BaseEngine.obj
 0002:0000e184       __unwindtable$??$for_each@V?$_Vector_iterator@V?$_Vector_val@U?$_Simple_types@PAVDisplayableObject@@@std@@@std@@@std@@V<lambda_6f21682acb52fd7b677e7e31753b438b>@@@std@@YA?AV<lambda_6f21682acb52fd7b677e7e31753b438b>@@V?$_Vector_iterator@V?$_Vector_val@U?$_Simple_types@PAVDisplayableObject@@@std@@@std@@@0@0V1@@Z 00452184     BaseEngine.obj
 0002:0000e194       __ehfuncinfo$??$for_each@V?$_Vector_iterator@V?$_Vector_val@U?$_Simple_types@PAVDisplayableObject@@@std@@@std@@@std@@V<lambda_6f21682acb52fd7b677e7e31753b438b>@@@std@@YA?AV<lambda_6f21682acb52fd7b677e7e31753b438b>@@V?$_Vector_iterator@V?$_Vector_val@U?$_Simple_types@PAVDisplayableObject@@@std@@@std@@@0@0V1@@Z 00452194     BaseEngine.obj
 0002:0000e1c0       __unwindtable$??$_Construct_n@$$V@?$vector@PAVDisplayableObject@@V?$allocator@PAVDisplayableObject@@@std@@@std@@AAEXI@Z 004521c0     BaseEngine.obj
 0002:0000e1d0       __ehfuncinfo$??$_Construct_n@$$V@?$vector@PAVDisplayableObject@@V?$allocator@PAVDisplayableObject@@@std@@@std@@AAEXI@Z 004521d0     BaseEngine.obj
 0002:0000e1fc       __unwindtable$?getFont@FontManager@@QAEPAVFont@@PBDH@Z 004521fc     FontManager.obj
 0002:0000e204       __ehfuncinfo$?getFont@FontManager@@QAEPAVFont@@PBDH@Z 00452204     FontManager.obj
 0002:0000e22c       __unwindtable$?virtInitialiseObjects@MyDemoA@@UAEHXZ 0045222c     MyDemoA.obj
 0002:0000e234       __unwindtable$?virtSetupBackgroundBuffer@MyDemoA@@UAEXXZ 00452234     MyDemoA.obj
 0002:0000e23c       __unwindtable$??0MyDemoA@@QAE@XZ 0045223c     MyDemoA.obj
 0002:0000e244       __ehfuncinfo$?virtInitialiseObjects@MyDemoA@@UAEHXZ 00452244     MyDemoA.obj
 0002:0000e268       __ehfuncinfo$?virtSetupBackgroundBuffer@MyDemoA@@UAEXXZ 00452268     MyDemoA.obj
 0002:0000e28c       __ehfuncinfo$??0MyDemoA@@QAE@XZ 0045228c     MyDemoA.obj
 0002:0000e2c0       __unwindtable$?loadImage@BaseEngine@@QAE?AVSimpleImage@@V?$basic_string@DU?$char_traits@D@std@@V?$allocator@D@2@@std@@_N@Z 004522c0     Psyes9Engine.obj
 0002:0000e2d0       __ehfuncinfo$?loadImage@BaseEngine@@QAE?AVSimpleImage@@V?$basic_string@DU?$char_traits@D@std@@V?$allocator@D@2@@std@@_N@Z 004522d0     Psyes9Engine.obj
 0002:0000e2fc       __unwindtable$?virtInitialiseObjects@Psyes9Engine@@UAEHXZ 004522fc     Psyes9Engine.obj
 0002:0000e30c       __unwindtable$?virtSetupBackgroundBuffer@Psyes9Engine@@UAEXXZ 0045230c     Psyes9Engine.obj
 0002:0000e31c       __ehfuncinfo$?virtInitialiseObjects@Psyes9Engine@@UAEHXZ 0045231c     Psyes9Engine.obj
 0002:0000e340       __ehfuncinfo$?virtSetupBackgroundBuffer@Psyes9Engine@@UAEXXZ 00452340     Psyes9Engine.obj
 0002:0000e370       __unwindtable$??0BouncingFish@@QAE@PAVBaseEngine@@HHNNNN@Z 00452370     Psyes9Engine.obj
 0002:0000e378       __ehfuncinfo$??0BouncingFish@@QAE@PAVBaseEngine@@HHNNNN@Z 00452378     Psyes9Engine.obj
 0002:0000e3a0       __unwindtable$??0BouncingFishObject@@QAE@PAVBaseEngine@@@Z 004523a0     Psyes9Engine.obj
 0002:0000e3a8       __ehfuncinfo$??0BouncingFishObject@@QAE@PAVBaseEngine@@@Z 004523a8     Psyes9Engine.obj
 0002:0000e3d0       __unwindtable$?virtInitialiseObjects@SimpleDemo@@UAEHXZ 004523d0     SimpleDemo.obj
 0002:0000e3e0       __ehfuncinfo$?virtInitialiseObjects@SimpleDemo@@UAEHXZ 004523e0     SimpleDemo.obj
 0002:0000e40c       __unwindtable$??0BouncingObject@@QAE@PAVBaseEngine@@HHNNNN@Z 0045240c     SimpleDemo.obj
 0002:0000e414       __ehfuncinfo$??0BouncingObject@@QAE@PAVBaseEngine@@HHNNNN@Z 00452414     SimpleDemo.obj
 0002:0000e43c       __catchsym$??$_Emplace_reallocate@ABQAVDisplayableObject@@@?$vector@PAVDisplayableObject@@V?$allocator@PAVDisplayableObject@@@std@@@std@@AAEPAPAVDisplayableObject@@QAPAV2@ABQAV2@@Z$2 0045243c     SimpleDemo.obj
 0002:0000e44c       __unwindtable$??$_Emplace_reallocate@ABQAVDisplayableObject@@@?$vector@PAVDisplayableObject@@V?$allocator@PAVDisplayableObject@@@std@@@std@@AAEPAPAVDisplayableObject@@QAPAV2@ABQAV2@@Z 0045244c     SimpleDemo.obj
 0002:0000e45c       __tryblocktable$??$_Emplace_reallocate@ABQAVDisplayableObject@@@?$vector@PAVDisplayableObject@@V?$allocator@PAVDisplayableObject@@@std@@@std@@AAEPAPAVDisplayableObject@@QAPAV2@ABQAV2@@Z 0045245c     SimpleDemo.obj
 0002:0000e470       __ehfuncinfo$??$_Emplace_reallocate@ABQAVDisplayableObject@@@?$vector@PAVDisplayableObject@@V?$allocator@PAVDisplayableObject@@@std@@@std@@AAEPAPAVDisplayableObject@@QAPAV2@ABQAV2@@Z 00452470     SimpleDemo.obj
 0002:0000e49c       __unwindtable$??0BouncingBall1@@QAE@PAVBouncingBallMain@@HHHHPBDHHPAVTileManager@@@Z 0045249c     BouncingBall.obj
 0002:0000e4a4       __unwindtable$??0BouncingBall@@QAE@PAVBouncingBallMain@@HHHHPBDHH@Z 004524a4     BouncingBall.obj
 0002:0000e4ac       __ehfuncinfo$??0BouncingBall1@@QAE@PAVBouncingBallMain@@HHHHPBDHHPAVTileManager@@@Z 004524ac     BouncingBall.obj
 0002:0000e4d0       __ehfuncinfo$??0BouncingBall@@QAE@PAVBouncingBallMain@@HHHHPBDHH@Z 004524d0     BouncingBall.obj
 0002:0000e4fc       __unwindtable$?virtInitialiseObjects@BouncingBallMain@@UAEHXZ 004524fc     BouncingBallMain.obj
 0002:0000e514       __ehfuncinfo$?virtInitialiseObjects@BouncingBallMain@@UAEHXZ 00452514     BouncingBallMain.obj
 0002:0000e540       __unwindtable$?virtInitialiseObjects@ZoomingDemo@@UAEHXZ 00452540     ZoomingDemo.obj
 0002:0000e560       __ehfuncinfo$?virtInitialiseObjects@ZoomingDemo@@UAEHXZ 00452560     ZoomingDemo.obj
 0002:0000e58c       __ehfuncinfo$??0SimpleFlashingDragableImageObject@@QAE@HHPAVBaseEngine@@V?$basic_string@DU?$char_traits@D@std@@V?$allocator@D@2@@std@@1_N2@Z 0045258c     ZoomingDemo.obj
 0002:0000e5b0       __unwindtable$??0SimpleFlashingDragableImageObject@@QAE@HHPAVBaseEngine@@V?$basic_string@DU?$char_traits@D@std@@V?$allocator@D@2@@std@@1_N2@Z 004525b0     ZoomingDemo.obj
 0002:0000e5f4       __unwindtable$??0MazeDemoMain@@QAE@XZ 004525f4     MazeDemoMain.obj
 0002:0000e5fc       __ehfuncinfo$?virtInitialiseObjects@MazeDemoMain@@UAEHXZ 004525fc     MazeDemoMain.obj
 0002:0000e620       __ehfuncinfo$??0MazeDemoMain@@QAE@XZ 00452620     MazeDemoMain.obj
 0002:0000e644       __unwindtable$?virtInitialiseObjects@MazeDemoMain@@UAEHXZ 00452644     MazeDemoMain.obj
 0002:0000e678       __unwindtable$??0MazeDemoObject@@QAE@PAVMazeDemoMain@@HH@Z 00452678     MazeDemoObject.obj
 0002:0000e680       __ehfuncinfo$??0MazeDemoObject@@QAE@PAVMazeDemoMain@@HH@Z 00452680     MazeDemoObject.obj
 0002:0000e6a8       __ehfuncinfo$??$_H_func@V<lambda_1>@?1??_H_min@_Minmax_traits_1@?A0x8417fefe@@SA?AT__m128i@@T5@@Z@@_Minmax_traits_1@?A0x8417fefe@@SA?AT__m128i@@T2@V<lambda_1>@?1??_H_min@01@SA?AT2@0@Z@@Z 004526a8     msvcprtd:vector_algorithms.obj
 0002:0000e6d0       __ehfuncinfo$??$_H_func@V<lambda_1>@?1??_H_max@_Minmax_traits_1@?A0x8417fefe@@SA?AT__m128i@@T5@@Z@@_Minmax_traits_1@?A0x8417fefe@@SA?AT__m128i@@T2@V<lambda_1>@?1??_H_max@01@SA?AT2@0@Z@@Z 004526d0     msvcprtd:vector_algorithms.obj
 0002:0000e6f8       __ehfuncinfo$??$_H_func@V<lambda_1>@?1??_H_min_u@_Minmax_traits_1@?A0x8417fefe@@SA?AT__m128i@@T5@@Z@@_Minmax_traits_1@?A0x8417fefe@@SA?AT__m128i@@T2@V<lambda_1>@?1??_H_min_u@01@SA?AT2@0@Z@@Z 004526f8     msvcprtd:vector_algorithms.obj
 0002:0000e720       __ehfuncinfo$??$_H_func@V<lambda_1>@?1??_H_max_u@_Minmax_traits_1@?A0x8417fefe@@SA?AT__m128i@@T5@@Z@@_Minmax_traits_1@?A0x8417fefe@@SA?AT__m128i@@T2@V<lambda_1>@?1??_H_max_u@01@SA?AT2@0@Z@@Z 00452720     msvcprtd:vector_algorithms.obj
 0002:0000e748       __ehfuncinfo$??$_H_func@V<lambda_1>@?1??_H_min@_Minmax_traits_2@?A0x8417fefe@@SA?AT__m128i@@T5@@Z@@_Minmax_traits_2@?A0x8417fefe@@SA?AT__m128i@@T2@V<lambda_1>@?1??_H_min@01@SA?AT2@0@Z@@Z 00452748     msvcprtd:vector_algorithms.obj
 0002:0000e770       __ehfuncinfo$??$_H_func@V<lambda_1>@?1??_H_max@_Minmax_traits_2@?A0x8417fefe@@SA?AT__m128i@@T5@@Z@@_Minmax_traits_2@?A0x8417fefe@@SA?AT__m128i@@T2@V<lambda_1>@?1??_H_max@01@SA?AT2@0@Z@@Z 00452770     msvcprtd:vector_algorithms.obj
 0002:0000e798       __ehfuncinfo$??$_H_func@V<lambda_1>@?1??_H_min_u@_Minmax_traits_2@?A0x8417fefe@@SA?AT__m128i@@T5@@Z@@_Minmax_traits_2@?A0x8417fefe@@SA?AT__m128i@@T2@V<lambda_1>@?1??_H_min_u@01@SA?AT2@0@Z@@Z 00452798     msvcprtd:vector_algorithms.obj
 0002:0000e7c0       __ehfuncinfo$??$_H_func@V<lambda_1>@?1??_H_max_u@_Minmax_traits_2@?A0x8417fefe@@SA?AT__m128i@@T5@@Z@@_Minmax_traits_2@?A0x8417fefe@@SA?AT__m128i@@T2@V<lambda_1>@?1??_H_max_u@01@SA?AT2@0@Z@@Z 004527c0     msvcprtd:vector_algorithms.obj
 0002:0000e7e8       __ehfuncinfo$??$_H_func@V<lambda_1>@?1??_H_min@_Minmax_traits_4@?A0x8417fefe@@SA?AT__m128i@@T5@@Z@@_Minmax_traits_4@?A0x8417fefe@@SA?AT__m128i@@T2@V<lambda_1>@?1??_H_min@01@SA?AT2@0@Z@@Z 004527e8     msvcprtd:vector_algorithms.obj
 0002:0000e810       __ehfuncinfo$??$_H_func@V<lambda_1>@?1??_H_max@_Minmax_traits_4@?A0x8417fefe@@SA?AT__m128i@@T5@@Z@@_Minmax_traits_4@?A0x8417fefe@@SA?AT__m128i@@T2@V<lambda_1>@?1??_H_max@01@SA?AT2@0@Z@@Z 00452810     msvcprtd:vector_algorithms.obj
 0002:0000e838       __ehfuncinfo$??$_H_func@V<lambda_1>@?1??_H_min_u@_Minmax_traits_4@?A0x8417fefe@@SA?AT__m128i@@T5@@Z@@_Minmax_traits_4@?A0x8417fefe@@SA?AT__m128i@@T2@V<lambda_1>@?1??_H_min_u@01@SA?AT2@0@Z@@Z 00452838     msvcprtd:vector_algorithms.obj
 0002:0000e860       __ehfuncinfo$??$_H_func@V<lambda_1>@?1??_H_max_u@_Minmax_traits_4@?A0x8417fefe@@SA?AT__m128i@@T5@@Z@@_Minmax_traits_4@?A0x8417fefe@@SA?AT__m128i@@T2@V<lambda_1>@?1??_H_max_u@01@SA?AT2@0@Z@@Z 00452860     msvcprtd:vector_algorithms.obj
 0002:0000e888       __ehfuncinfo$??$_H_func@V<lambda_1>@?1??_H_min@_Minmax_traits_8@?A0x8417fefe@@SA?AT__m128i@@T5@@Z@@_Minmax_traits_8@?A0x8417fefe@@SA?AT__m128i@@T2@V<lambda_1>@?1??_H_min@01@SA?AT2@0@Z@@Z 00452888     msvcprtd:vector_algorithms.obj
 0002:0000e8b0       __ehfuncinfo$??$_H_func@V<lambda_1>@?1??_H_max@_Minmax_traits_8@?A0x8417fefe@@SA?AT__m128i@@T5@@Z@@_Minmax_traits_8@?A0x8417fefe@@SA?AT__m128i@@T2@V<lambda_1>@?1??_H_max@01@SA?AT2@0@Z@@Z 004528b0     msvcprtd:vector_algorithms.obj
 0002:0000e8d8       __ehfuncinfo$??$_H_func@V<lambda_1>@?1??_H_min_u@_Minmax_traits_8@?A0x8417fefe@@SA?AT__m128i@@T5@@Z@@_Minmax_traits_8@?A0x8417fefe@@SA?AT__m128i@@T2@V<lambda_1>@?1??_H_min_u@01@SA?AT2@0@Z@@Z 004528d8     msvcprtd:vector_algorithms.obj
 0002:0000e900       __ehfuncinfo$??$_H_func@V<lambda_1>@?1??_H_max_u@_Minmax_traits_8@?A0x8417fefe@@SA?AT__m128i@@T5@@Z@@_Minmax_traits_8@?A0x8417fefe@@SA?AT__m128i@@T2@V<lambda_1>@?1??_H_max_u@01@SA?AT2@0@Z@@Z 00452900     msvcprtd:vector_algorithms.obj
 0002:0000e928       __sehtable$?__scrt_common_main_seh@@YAHXZ 00452928     MSVCRTD:exe_main.obj
 0002:0000e948       __sehtable$??_M@YGXPAXIIP6EX0@Z@Z 00452948     MSVCRTD:ehvecdtr.obj
 0002:0000e968       __sehtable$?__ArrayUnwind@@YGXPAXIIP6EX0@Z@Z 00452968     MSVCRTD:ehvecdtr.obj
 0002:0000e988       __sehtable$___scrt_is_nonwritable_in_current_image 00452988     MSVCRTD:utility.obj
 0003:00000000       ?firstClick@?1??handleEvent@BaseEngine@@QAE_NPATSDL_Event@@@Z@4_NA 00453000     BaseEngine.obj
 0003:00000004       ?nullMapping@@3VCroppedImagePixelMapping@@A 00453004     SimpleImage.obj
 0003:00000bb8       ?is_initialized_as_dll@@3_NA 00453bb8     MSVCRTD:utility.obj
 0003:00000bb9       ?module_local_atexit_table_initialized@@3_NA 00453bb9     MSVCRTD:utility.obj
 0003:00000bbc       ?module_local_atexit_table@@3U_onexit_table_t@@A 00453bbc     MSVCRTD:utility.obj
 0003:00000bc8       ?module_local_at_quick_exit_table@@3U_onexit_table_t@@A 00453bc8     MSVCRTD:utility.obj
 0003:00000c10       _GS_ExceptionRecord        00453c10     MSVCRTD:gs_report.obj
 0003:00000c60       _GS_ContextRecord          00453c60     MSVCRTD:gs_report.obj
 0004:00000920       .idata$6                   00454920     SDL2:SDL2.dll
 0004:00000936       .idata$6                   00454936     SDL2_image:SDL2_image.dll
 0004:00000996       .idata$6                   00454996     SDL2_ttf:SDL2_ttf.dll
 0004:00000e2a       .idata$6                   00454e2a     msvcprtd:MSVCP140D.dll
 0004:00000f4a       .idata$6                   00454f4a     vcruntimed:VCRUNTIME140D.dll
 0004:0000125e       .idata$6                   0045525e     ucrtd:ucrtbased.dll
 0004:000013e0       .idata$6                   004553e0     kernel32:KERNEL32.dll
 0006:00000170       $R000000                   00457170     * linker generated manifest res *
